Microsoft (R) COFF/PE Dumper Version 12.00.31101.0
Copyright (C) Microsoft Corporation.  All rights reserved.


Dump of file kindlegen.exe

File Type: EXECUTABLE IMAGE

  Section contains the following exports for kindlegen.exe

    00000000 characteristics
    54500516 time date stamp Tue Oct 28 17:05:26 2014
        0.00 version
           1 ordinal base
        7008 number of functions
        7008 number of names

    ordinal hint RVA      name

          1    0 00100290 ??0?$XMLHolder@U_RTL_CRITICAL_SECTION@@@xercesc_2_8@@QAE@XZ
          2    1 00182350 ??0ASCIIRangeFactory@xercesc_2_8@@QAE@XZ
          3    2 00120B20 ??0AbstractDOMParser@xercesc_2_8@@IAE@QAVXMLValidator@1@QAVMemoryManager@1@QAVXMLGrammarPool@1@@Z
          4    3 0017D6E0 ??0AbstractNumericFacetValidator@xercesc_2_8@@IAE@QAVDatatypeValidator@1@QAV?$RefHashTableOf@VKVStringPair@xercesc_2_8@@@1@HW4ValidatorType@21@QAVMemoryManager@1@@Z
          5    4 001BB730 ??0AbstractNumericValidator@xercesc_2_8@@IAE@QAVDatatypeValidator@1@QAV?$RefHashTableOf@VKVStringPair@xercesc_2_8@@@1@HW4ValidatorType@21@QAVMemoryManager@1@@Z
          6    5 0017F600 ??0AbstractStringValidator@xercesc_2_8@@IAE@QAVDatatypeValidator@1@QAV?$RefHashTableOf@VKVStringPair@xercesc_2_8@@@1@HW4ValidatorType@21@QAVMemoryManager@1@@Z
          7    6 00178040 ??0AnySimpleTypeDatatypeValidator@xercesc_2_8@@QAE@QAVMemoryManager@1@@Z
          8    7 00174CE0 ??0AnyURIDatatypeValidator@xercesc_2_8@@QAE@QAVDatatypeValidator@1@QAV?$RefHashTableOf@VKVStringPair@xercesc_2_8@@@1@QAV?$RefArrayVectorOf@_W@1@HQAVMemoryManager@1@@Z
          9    8 00174C60 ??0AnyURIDatatypeValidator@xercesc_2_8@@QAE@QAVMemoryManager@1@@Z
         10    9 000ECA10 ??0ArrayIndexOutOfBoundsException@xercesc_2_8@@QAE@ABV01@@Z
         11    A 000ECAC0 ??0ArrayIndexOutOfBoundsException@xercesc_2_8@@QAE@QBDIW4Codes@XMLExcepts@1@0000PAVMemoryManager@1@@Z
         12    B 000EC9A0 ??0ArrayIndexOutOfBoundsException@xercesc_2_8@@QAE@QBDIW4Codes@XMLExcepts@1@PAVMemoryManager@1@@Z
         13    C 000ECA30 ??0ArrayIndexOutOfBoundsException@xercesc_2_8@@QAE@QBDIW4Codes@XMLExcepts@1@QB_W222PAVMemoryManager@1@@Z
         14    D 000F0210 ??0AttributeList@xercesc_2_8@@QAE@XZ
         15    E 00164A30 ??0Attributes@xercesc_2_8@@QAE@XZ
         16    F 00113BB0 ??0BMPattern@xercesc_2_8@@QAE@QB_WH_NQAVMemoryManager@1@@Z
         17   10 00113B10 ??0BMPattern@xercesc_2_8@@QAE@QB_W_NQAVMemoryManager@1@@Z
         18   11 0017A5B0 ??0Base64BinaryDatatypeValidator@xercesc_2_8@@QAE@QAVDatatypeValidator@1@QAV?$RefHashTableOf@VKVStringPair@xercesc_2_8@@@1@QAV?$RefArrayVectorOf@_W@1@HQAVMemoryManager@1@@Z
         19   12 0017A530 ??0Base64BinaryDatatypeValidator@xercesc_2_8@@QAE@QAVMemoryManager@1@@Z
         20   13 000FE830 ??0BinFileInputStream@xercesc_2_8@@QAE@QAXQAVMemoryManager@1@@Z
         21   14 000FE7B0 ??0BinFileInputStream@xercesc_2_8@@QAE@QBDQAVMemoryManager@1@@Z
         22   15 000FE740 ??0BinFileInputStream@xercesc_2_8@@QAE@QB_WQAVMemoryManager@1@@Z
         23   16 0016CF40 ??0BinHTTPURLInputStream@xercesc_2_8@@QAE@ABVXMLURL@1@PBVXMLNetHTTPInfo@1@@Z
         24   17 00123B50 ??0BinInputStream@xercesc_2_8@@IAE@XZ
         25   18 00142340 ??0BinMemInputStream@xercesc_2_8@@QAE@QBEIW4BufOpts@01@QAVMemoryManager@1@@Z
         26   19 001820B0 ??0BlockRangeFactory@xercesc_2_8@@QAE@XZ
         27   1A 00178150 ??0BooleanDatatypeValidator@xercesc_2_8@@QAE@QAVDatatypeValidator@1@QAV?$RefHashTableOf@VKVStringPair@xercesc_2_8@@@1@QAV?$RefArrayVectorOf@_W@1@HQAVMemoryManager@1@@Z
         28   1B 0012AAE0 ??0BooleanDatatypeValidator@xercesc_2_8@@QAE@QAVMemoryManager@1@@Z
         29   1C 001028D0 ??0CharOp@xercesc_2_8@@QAE@FHQAVMemoryManager@1@@Z
         30   1D 0013BC10 ??0CharToken@xercesc_2_8@@QAE@GHQAVMemoryManager@1@@Z
         31   1E 00102A30 ??0ChildOp@xercesc_2_8@@QAE@FQAVMemoryManager@1@@Z
         32   1F 0013CC20 ??0ClosureToken@xercesc_2_8@@QAE@GQAVToken@1@QAVMemoryManager@1@@Z
         33   20 0011C5D0 ??0ComplexTypeInfo@xercesc_2_8@@QAE@QAVMemoryManager@1@@Z
         34   21 0013BC40 ??0ConcatToken@xercesc_2_8@@QAE@QAVToken@1@0QAVMemoryManager@1@@Z
         35   22 00102B40 ??0ConditionOp@xercesc_2_8@@QAE@FHQBVOp@1@00QAVMemoryManager@1@@Z
         36   23 0013CCB0 ??0ConditionToken@xercesc_2_8@@QAE@IQAVToken@1@00QAVMemoryManager@1@@Z
         37   24 001BB9D0 ??0ContentHandler@xercesc_2_8@@QAE@XZ
         38   25 0013EB50 ??0ContentLeafNameTypeVector@xercesc_2_8@@QAE@ABV01@@Z
         39   26 0013EB20 ??0ContentLeafNameTypeVector@xercesc_2_8@@QAE@QAPAVQName@1@QAW4NodeTypes@ContentSpecNode@1@IQAVMemoryManager@1@@Z
         40   27 0013EB00 ??0ContentLeafNameTypeVector@xercesc_2_8@@QAE@QAVMemoryManager@1@@Z
         41   28 0012BFC0 ??0ContentSpecNode@xercesc_2_8@@QAE@ABV01@@Z
         42   29 00103600 ??0ContentSpecNode@xercesc_2_8@@QAE@QAVMemoryManager@1@@Z
         43   2A 00103640 ??0ContentSpecNode@xercesc_2_8@@QAE@QAVQName@1@QAVMemoryManager@1@@Z
         44   2B 001037A0 ??0ContentSpecNode@xercesc_2_8@@QAE@QAVQName@1@_NQAVMemoryManager@1@@Z
         45   2C 001036F0 ??0ContentSpecNode@xercesc_2_8@@QAE@QAVXMLElementDecl@1@QAVMemoryManager@1@@Z
         46   2D 00103860 ??0ContentSpecNode@xercesc_2_8@@QAE@W4NodeTypes@01@QAV01@1_N2QAVMemoryManager@1@@Z
         47   2E 0010A950 ??0Context@RegularExpression@xercesc_2_8@@QAE@PAV012@@Z
         48   2F 0010A920 ??0Context@RegularExpression@xercesc_2_8@@QAE@QAVMemoryManager@2@@Z
         49   30 001425F0 ??0DGXMLScanner@xercesc_2_8@@QAE@QAVXMLDocumentHandler@1@QAVDocTypeHandler@1@QAVXMLEntityHandler@1@QAVXMLErrorReporter@1@QAVXMLValidator@1@QAVGrammarResolver@1@QAVMemoryManager@1@@Z
         50   31 00142530 ??0DGXMLScanner@xercesc_2_8@@QAE@QAVXMLValidator@1@QAVGrammarResolver@1@QAVMemoryManager@1@@Z
         51   32 001207A0 ??0DOMAttr@xercesc_2_8@@IAE@ABV01@@Z
         52   33 00120790 ??0DOMAttr@xercesc_2_8@@IAE@XZ
         53   34 00163EC0 ??0DOMAttrImpl@xercesc_2_8@@QAE@ABV01@_N@Z
         54   35 00163E20 ??0DOMAttrImpl@xercesc_2_8@@QAE@PAVDOMDocument@1@PB_W@Z
         55   36 001B21B0 ??0DOMAttrMapImpl@xercesc_2_8@@QAE@PAVDOMNode@1@@Z
         56   37 001B21D0 ??0DOMAttrMapImpl@xercesc_2_8@@QAE@PAVDOMNode@1@PBV01@@Z
         57   38 001B71B0 ??0DOMAttrNSImpl@xercesc_2_8@@QAE@ABV01@_N@Z
         58   39 001B7140 ??0DOMAttrNSImpl@xercesc_2_8@@QAE@PAVDOMDocument@1@PB_W1@Z
         59   3A 001B7110 ??0DOMAttrNSImpl@xercesc_2_8@@QAE@PAVDOMDocument@1@PB_W@Z
         60   3B 00164930 ??0DOMBuilder@xercesc_2_8@@IAE@XZ
         61   3C 001B5A10 ??0DOMBuilderImpl@xercesc_2_8@@QAE@QAVXMLValidator@1@QAVMemoryManager@1@QAVXMLGrammarPool@1@@Z
         62   3D 00120900 ??0DOMCDATASection@xercesc_2_8@@IAE@ABV01@@Z
         63   3E 001208F0 ??0DOMCDATASection@xercesc_2_8@@IAE@XZ
         64   3F 001B8BC0 ??0DOMCDATASectionImpl@xercesc_2_8@@QAE@ABV01@_N@Z
         65   40 001B8B30 ??0DOMCDATASectionImpl@xercesc_2_8@@QAE@PAVDOMDocument@1@PB_W@Z
         66   41 001208E0 ??0DOMCharacterData@xercesc_2_8@@IAE@ABV01@@Z
         67   42 001208D0 ??0DOMCharacterData@xercesc_2_8@@IAE@XZ
         68   43 001B19C0 ??0DOMCharacterDataImpl@xercesc_2_8@@QAE@ABV01@@Z
         69   44 001B1920 ??0DOMCharacterDataImpl@xercesc_2_8@@QAE@PAVDOMDocument@1@PB_W@Z
         70   45 001ADF70 ??0DOMChildNode@xercesc_2_8@@QAE@ABV01@@Z
         71   46 001ADF60 ??0DOMChildNode@xercesc_2_8@@QAE@XZ
         72   47 001208D0 ??0DOMComment@xercesc_2_8@@IAE@XZ
         73   48 001B9BC0 ??0DOMCommentImpl@xercesc_2_8@@QAE@ABV01@_N@Z
         74   49 001B9B40 ??0DOMCommentImpl@xercesc_2_8@@QAE@PAVDOMDocument@1@PB_W@Z
         75   4A 001649B0 ??0DOMConfiguration@xercesc_2_8@@IAE@XZ
         76   4B 001B8180 ??0DOMConfigurationImpl@xercesc_2_8@@QAE@QAVMemoryManager@1@@Z
         77   4C 001B9200 ??0DOMDeepNodeListImpl@xercesc_2_8@@QAE@PBVDOMNode@1@PB_W1@Z
         78   4D 001B9130 ??0DOMDeepNodeListImpl@xercesc_2_8@@QAE@PBVDOMNode@1@PB_W@Z
         79   4E 000F70A0 ??0DOMDocument@xercesc_2_8@@IAE@XZ
         80   4F 00164890 ??0DOMDocumentFragment@xercesc_2_8@@IAE@XZ
         81   50 001B9890 ??0DOMDocumentFragmentImpl@xercesc_2_8@@AAE@ABV01@_N@Z
         82   51 001B9850 ??0DOMDocumentFragmentImpl@xercesc_2_8@@IAE@PAVDOMDocument@1@@Z
         83   52 00166BC0 ??0DOMDocumentImpl@xercesc_2_8@@QAE@PB_W0PAVDOMDocumentType@1@QAVMemoryManager@1@@Z
         84   53 00166A80 ??0DOMDocumentImpl@xercesc_2_8@@QAE@QAVMemoryManager@1@@Z
         85   54 00164A20 ??0DOMDocumentRange@xercesc_2_8@@IAE@XZ
         86   55 00120880 ??0DOMDocumentTraversal@xercesc_2_8@@IAE@XZ
         87   56 000F7190 ??0DOMDocumentType@xercesc_2_8@@IAE@XZ
         88   57 0016B230 ??0DOMDocumentTypeImpl@xercesc_2_8@@QAE@ABV01@_N1@Z
         89   58 0016AF10 ??0DOMDocumentTypeImpl@xercesc_2_8@@QAE@PAVDOMDocument@1@PB_W11_N@Z
         90   59 0016AD90 ??0DOMDocumentTypeImpl@xercesc_2_8@@QAE@PAVDOMDocument@1@PB_W_N@Z
         91   5A 00120460 ??0DOMElement@xercesc_2_8@@IAE@ABV01@@Z
         92   5B 00120450 ??0DOMElement@xercesc_2_8@@IAE@XZ
         93   5C 00165700 ??0DOMElementImpl@xercesc_2_8@@QAE@ABV01@_N@Z
         94   5D 001655F0 ??0DOMElementImpl@xercesc_2_8@@QAE@PAVDOMDocument@1@PB_W@Z
         95   5E 00161A30 ??0DOMElementNSImpl@xercesc_2_8@@QAE@ABV01@_N@Z
         96   5F 001619C0 ??0DOMElementNSImpl@xercesc_2_8@@QAE@PAVDOMDocument@1@PB_W1@Z
         97   60 00161990 ??0DOMElementNSImpl@xercesc_2_8@@QAE@PAVDOMDocument@1@PB_W@Z
         98   61 00120A10 ??0DOMEntity@xercesc_2_8@@IAE@ABV01@@Z
         99   62 00120A00 ??0DOMEntity@xercesc_2_8@@IAE@XZ
        100   63 00160C80 ??0DOMEntityImpl@xercesc_2_8@@QAE@ABV01@_N@Z
        101   64 00160BC0 ??0DOMEntityImpl@xercesc_2_8@@QAE@PAVDOMDocument@1@PB_W@Z
        102   65 00120A30 ??0DOMEntityReference@xercesc_2_8@@IAE@ABV01@@Z
        103   66 00164890 ??0DOMEntityReference@xercesc_2_8@@IAE@XZ
        104   67 0015F960 ??0DOMEntityReferenceImpl@xercesc_2_8@@QAE@ABV01@_N@Z
        105   68 0015F6F0 ??0DOMEntityReferenceImpl@xercesc_2_8@@QAE@PAVDOMDocument@1@PB_W@Z
        106   69 0015F820 ??0DOMEntityReferenceImpl@xercesc_2_8@@QAE@PAVDOMDocument@1@PB_W_N@Z
        107   6A 00164A20 ??0DOMEntityResolver@xercesc_2_8@@IAE@XZ
        108   6B 000EBE60 ??0DOMError@xercesc_2_8@@IAE@XZ
        109   6C 00164A20 ??0DOMErrorHandler@xercesc_2_8@@IAE@XZ
        110   6D 001BAFC0 ??0DOMErrorImpl@xercesc_2_8@@QAE@F@Z
        111   6E 001BB020 ??0DOMErrorImpl@xercesc_2_8@@QAE@FPB_W0PAX@Z
        112   6F 001BAFF0 ??0DOMErrorImpl@xercesc_2_8@@QAE@FQB_WQAVDOMLocator@1@@Z
        113   70 001ADF00 ??0DOMException@xercesc_2_8@@QAE@ABV01@@Z
        114   71 001ADE50 ??0DOMException@xercesc_2_8@@QAE@FPB_WQAVMemoryManager@1@@Z
        115   72 001ADE30 ??0DOMException@xercesc_2_8@@QAE@XZ
        116   73 001203E0 ??0DOMImplementation@xercesc_2_8@@IAE@XZ
        117   74 000F5010 ??0DOMImplementationLS@xercesc_2_8@@IAE@XZ
        118   75 000EBF30 ??0DOMImplementationSource@xercesc_2_8@@IAE@XZ
        119   76 00164A30 ??0DOMInputSource@xercesc_2_8@@IAE@XZ
        120   77 00164AB0 ??0DOMLocator@xercesc_2_8@@IAE@XZ
        121   78 001C2920 ??0DOMLocatorImpl@xercesc_2_8@@QAE@JJQAVDOMNode@1@QB_WJ@Z
        122   79 001C2900 ??0DOMLocatorImpl@xercesc_2_8@@QAE@XZ
        123   7A 00120920 ??0DOMNamedNodeMap@xercesc_2_8@@IAE@XZ
        124   7B 001BA0C0 ??0DOMNamedNodeMapImpl@xercesc_2_8@@QAE@PAVDOMNode@1@@Z
        125   7C 00120A30 ??0DOMNode@xercesc_2_8@@IAE@ABV01@@Z
        126   7D 00164890 ??0DOMNode@xercesc_2_8@@IAE@XZ
        127   7E 00164A20 ??0DOMNodeFilter@xercesc_2_8@@IAE@XZ
        128   7F 00162850 ??0DOMNodeImpl@xercesc_2_8@@QAE@ABV01@@Z
        129   80 00162830 ??0DOMNodeImpl@xercesc_2_8@@QAE@PAVDOMNode@1@@Z
        130   81 0015FCB0 ??0DOMNodeIterator@xercesc_2_8@@IAE@ABV01@@Z
        131   82 00120920 ??0DOMNodeIterator@xercesc_2_8@@IAE@XZ
        132   83 001AE070 ??0DOMNodeIteratorImpl@xercesc_2_8@@QAE@ABV01@@Z
        133   84 001AE030 ??0DOMNodeIteratorImpl@xercesc_2_8@@QAE@PAVDOMDocument@1@PAVDOMNode@1@KPAVDOMNodeFilter@1@_N@Z
        134   85 00120880 ??0DOMNodeList@xercesc_2_8@@IAE@XZ
        135   86 0016BD50 ??0DOMNodeListImpl@xercesc_2_8@@QAE@PAVDOMNode@1@@Z
        136   87 00120A60 ??0DOMNotation@xercesc_2_8@@IAE@ABV01@@Z
        137   88 00120A50 ??0DOMNotation@xercesc_2_8@@IAE@XZ
        138   89 0016C210 ??0DOMNotationImpl@xercesc_2_8@@QAE@ABV01@_N@Z
        139   8A 0016C160 ??0DOMNotationImpl@xercesc_2_8@@QAE@PAVDOMDocument@1@PB_W@Z
        140   8B 00120880 ??0DOMPSVITypeInfo@xercesc_2_8@@IAE@XZ
        141   8C 0015FD00 ??0DOMParentNode@xercesc_2_8@@QAE@ABV01@@Z
        142   8D 0015FCE0 ??0DOMParentNode@xercesc_2_8@@QAE@PAVDOMDocument@1@@Z
        143   8E 00120B00 ??0DOMProcessingInstruction@xercesc_2_8@@IAE@ABV01@@Z
        144   8F 00120AF0 ??0DOMProcessingInstruction@xercesc_2_8@@IAE@XZ
        145   90 001623A0 ??0DOMProcessingInstructionImpl@xercesc_2_8@@QAE@ABV01@_N@Z
        146   91 00162300 ??0DOMProcessingInstructionImpl@xercesc_2_8@@QAE@PAVDOMDocument@1@PB_W1@Z
        147   92 0015FC30 ??0DOMRange@xercesc_2_8@@IAE@ABV01@@Z
        148   93 0015FC20 ??0DOMRange@xercesc_2_8@@IAE@XZ
        149   94 001C1970 ??0DOMRangeException@xercesc_2_8@@QAE@ABV01@@Z
        150   95 001C1940 ??0DOMRangeException@xercesc_2_8@@QAE@W4RangeExceptionCode@01@PB_WQAVMemoryManager@1@@Z
        151   96 001C1920 ??0DOMRangeException@xercesc_2_8@@QAE@XZ
        152   97 001AE630 ??0DOMRangeImpl@xercesc_2_8@@QAE@ABV01@@Z
        153   98 001AE5E0 ??0DOMRangeImpl@xercesc_2_8@@QAE@PAVDOMDocument@1@QAVMemoryManager@1@@Z
        154   99 00120900 ??0DOMText@xercesc_2_8@@IAE@ABV01@@Z
        155   9A 001208F0 ??0DOMText@xercesc_2_8@@IAE@XZ
        156   9B 00160730 ??0DOMTextImpl@xercesc_2_8@@QAE@ABV01@_N@Z
        157   9C 001606B0 ??0DOMTextImpl@xercesc_2_8@@QAE@PAVDOMDocument@1@PB_W@Z
        158   9D 001648B0 ??0DOMTreeWalker@xercesc_2_8@@IAE@ABV01@@Z
        159   9E 001648A0 ??0DOMTreeWalker@xercesc_2_8@@IAE@XZ
        160   9F 001B7A00 ??0DOMTreeWalkerImpl@xercesc_2_8@@QAE@ABV01@@Z
        161   A0 001B79D0 ??0DOMTreeWalkerImpl@xercesc_2_8@@QAE@PAVDOMNode@1@KPAVDOMNodeFilter@1@_N@Z
        162   A1 00120880 ??0DOMTypeInfo@xercesc_2_8@@IAE@XZ
        163   A2 00161470 ??0DOMTypeInfoImpl@xercesc_2_8@@QAE@PAVDOMDocumentImpl@1@PBVDOMPSVITypeInfo@1@@Z
        164   A3 00161430 ??0DOMTypeInfoImpl@xercesc_2_8@@QAE@PB_W0@Z
        165   A4 00164A20 ??0DOMUserDataHandler@xercesc_2_8@@IAE@XZ
        166   A5 001648A0 ??0DOMWriter@xercesc_2_8@@IAE@XZ
        167   A6 00164B20 ??0DOMWriterFilter@xercesc_2_8@@IAE@XZ
        168   A7 001B31A0 ??0DOMWriterImpl@xercesc_2_8@@QAE@QAVMemoryManager@1@@Z
        169   A8 000F5010 ??0DOMXPathEvaluator@xercesc_2_8@@IAE@XZ
        170   A9 00164A20 ??0DOMXPathExpression@xercesc_2_8@@IAE@XZ
        171   AA 00120880 ??0DOMXPathNSResolver@xercesc_2_8@@IAE@XZ
        172   AB 00164C40 ??0DOMXPathNamespace@xercesc_2_8@@IAE@XZ
        173   AC 000F4F90 ??0DOMXPathResult@xercesc_2_8@@IAE@XZ
        174   AD 0011AE20 ??0DTDAttDef@xercesc_2_8@@QAE@QAVMemoryManager@1@@Z
        175   AE 0011AEF0 ??0DTDAttDef@xercesc_2_8@@QAE@QB_W0W4AttTypes@XMLAttDef@1@W4DefAttTypes@31@0QAVMemoryManager@1@@Z
        176   AF 0011AE60 ??0DTDAttDef@xercesc_2_8@@QAE@QB_WW4AttTypes@XMLAttDef@1@W4DefAttTypes@31@QAVMemoryManager@1@@Z
        177   B0 00141EF0 ??0DTDAttDefList@xercesc_2_8@@QAE@QAV?$RefHashTableOf@VDTDAttDef@xercesc_2_8@@@1@QAVMemoryManager@1@@Z
        178   B1 001422B0 ??0DTDAttDefList@xercesc_2_8@@QAE@QAVMemoryManager@1@@Z
        179   B2 00115CA0 ??0DTDElementDecl@xercesc_2_8@@QAE@QAVMemoryManager@1@@Z
        180   B3 00115D70 ??0DTDElementDecl@xercesc_2_8@@QAE@QAVQName@1@W4ModelTypes@01@QAVMemoryManager@1@@Z
        181   B4 00115CE0 ??0DTDElementDecl@xercesc_2_8@@QAE@QB_WIW4ModelTypes@01@QAVMemoryManager@1@@Z
        182   B5 000F1E50 ??0DTDEntityDecl@xercesc_2_8@@QAE@QAVMemoryManager@1@@Z
        183   B6 000F1EC0 ??0DTDEntityDecl@xercesc_2_8@@QAE@QB_W0_NQAVMemoryManager@1@@Z
        184   B7 000F1E90 ??0DTDEntityDecl@xercesc_2_8@@QAE@QB_W_NQAVMemoryManager@1@@Z
        185   B8 000F1F00 ??0DTDEntityDecl@xercesc_2_8@@QAE@QB_W_W_N2@Z
        186   B9 00157BC0 ??0DTDGrammar@xercesc_2_8@@QAE@QAVMemoryManager@1@@Z
        187   BA 000F5010 ??0DTDHandler@xercesc_2_8@@QAE@XZ
        188   BB 001859E0 ??0DTDScanner@xercesc_2_8@@QAE@PAVDTDGrammar@1@QAVDocTypeHandler@1@QAVMemoryManager@1@2@Z
        189   BC 00184F80 ??0DTDValidator@xercesc_2_8@@QAE@QAVXMLErrorReporter@1@@Z
        190   BD 0012B310 ??0DatatypeValidator@xercesc_2_8@@IAE@QAV01@QAV?$RefHashTableOf@VKVStringPair@xercesc_2_8@@@1@HW4ValidatorType@01@QAVMemoryManager@1@@Z
        191   BE 0012C6B0 ??0DatatypeValidatorFactory@xercesc_2_8@@QAE@QAVMemoryManager@1@@Z
        192   BF 00177CF0 ??0DateDatatypeValidator@xercesc_2_8@@QAE@QAVDatatypeValidator@1@QAV?$RefHashTableOf@VKVStringPair@xercesc_2_8@@@1@QAV?$RefArrayVectorOf@_W@1@HQAVMemoryManager@1@@Z
        193   C0 00177C70 ??0DateDatatypeValidator@xercesc_2_8@@QAE@QAVMemoryManager@1@@Z
        194   C1 00172EF0 ??0DateTimeDatatypeValidator@xercesc_2_8@@QAE@QAVDatatypeValidator@1@QAV?$RefHashTableOf@VKVStringPair@xercesc_2_8@@@1@QAV?$RefArrayVectorOf@_W@1@HQAVMemoryManager@1@@Z
        195   C2 00172E70 ??0DateTimeDatatypeValidator@xercesc_2_8@@QAE@QAVMemoryManager@1@@Z
        196   C3 001BB140 ??0DateTimeValidator@xercesc_2_8@@IAE@QAVDatatypeValidator@1@QAV?$RefHashTableOf@VKVStringPair@xercesc_2_8@@@1@HW4ValidatorType@21@QAVMemoryManager@1@@Z
        197   C4 001758E0 ??0DayDatatypeValidator@xercesc_2_8@@QAE@QAVDatatypeValidator@1@QAV?$RefHashTableOf@VKVStringPair@xercesc_2_8@@@1@QAV?$RefArrayVectorOf@_W@1@HQAVMemoryManager@1@@Z
        198   C5 00175860 ??0DayDatatypeValidator@xercesc_2_8@@QAE@QAVMemoryManager@1@@Z
        199   C6 00176D90 ??0DecimalDatatypeValidator@xercesc_2_8@@IAE@QAVDatatypeValidator@1@QAV?$RefHashTableOf@VKVStringPair@xercesc_2_8@@@1@HW4ValidatorType@21@QAVMemoryManager@1@@Z
        200   C7 00176BE0 ??0DecimalDatatypeValidator@xercesc_2_8@@QAE@QAVDatatypeValidator@1@QAV?$RefHashTableOf@VKVStringPair@xercesc_2_8@@@1@QAV?$RefArrayVectorOf@_W@1@HQAVMemoryManager@1@@Z
        201   C8 00176B50 ??0DecimalDatatypeValidator@xercesc_2_8@@QAE@QAVMemoryManager@1@@Z
        202   C9 001BBA50 ??0DeclHandler@xercesc_2_8@@QAE@XZ
        203   CA 00102070 ??0DefaultPanicHandler@xercesc_2_8@@QAE@XZ
        204   CB 000F1FB0 ??0DocTypeHandler@xercesc_2_8@@QAE@XZ
        205   CC 000F4F90 ??0DocumentHandler@xercesc_2_8@@QAE@XZ
        206   CD 001742C0 ??0DoubleDatatypeValidator@xercesc_2_8@@IAE@QAVDatatypeValidator@1@QAV?$RefHashTableOf@VKVStringPair@xercesc_2_8@@@1@HW4ValidatorType@21@QAVMemoryManager@1@@Z
        207   CE 00174100 ??0DoubleDatatypeValidator@xercesc_2_8@@QAE@QAVDatatypeValidator@1@QAV?$RefHashTableOf@VKVStringPair@xercesc_2_8@@@1@QAV?$RefArrayVectorOf@_W@1@HQAVMemoryManager@1@@Z
        208   CF 00174080 ??0DoubleDatatypeValidator@xercesc_2_8@@QAE@QAVMemoryManager@1@@Z
        209   D0 00175150 ??0DurationDatatypeValidator@xercesc_2_8@@QAE@QAVDatatypeValidator@1@QAV?$RefHashTableOf@VKVStringPair@xercesc_2_8@@@1@QAV?$RefArrayVectorOf@_W@1@HQAVMemoryManager@1@@Z
        210   D1 001750D0 ??0DurationDatatypeValidator@xercesc_2_8@@QAE@QAVMemoryManager@1@@Z
        211   D2 00175670 ??0ENTITYDatatypeValidator@xercesc_2_8@@QAE@QAVDatatypeValidator@1@QAV?$RefHashTableOf@VKVStringPair@xercesc_2_8@@@1@QAV?$RefArrayVectorOf@_W@1@HQAVMemoryManager@1@@Z
        212   D3 00175600 ??0ENTITYDatatypeValidator@xercesc_2_8@@QAE@QAVMemoryManager@1@@Z
        213   D4 0010DFD0 ??0ElemStack@xercesc_2_8@@QAE@QAVMemoryManager@1@@Z
        214   D5 000F2940 ??0EmptyStackException@xercesc_2_8@@QAE@ABV01@@Z
        215   D6 000F29F0 ??0EmptyStackException@xercesc_2_8@@QAE@QBDIW4Codes@XMLExcepts@1@0000PAVMemoryManager@1@@Z
        216   D7 000F28D0 ??0EmptyStackException@xercesc_2_8@@QAE@QBDIW4Codes@XMLExcepts@1@PAVMemoryManager@1@@Z
        217   D8 000F2960 ??0EmptyStackException@xercesc_2_8@@QAE@QBDIW4Codes@XMLExcepts@1@QB_W222PAVMemoryManager@1@@Z
        218   D9 0016DF60 ??0EncodingValidator@xercesc_2_8@@AAE@XZ
        219   DA 00120750 ??0EndOfEntityException@xercesc_2_8@@QAE@ABV01@@Z
        220   DB 0013ED70 ??0EndOfEntityException@xercesc_2_8@@QAE@PAVXMLEntityDecl@1@I@Z
        221   DC 00164A20 ??0EntityResolver@xercesc_2_8@@QAE@XZ
        222   DD 000F2B00 ??0ErrorHandler@xercesc_2_8@@QAE@XZ
        223   DE 001BE8F0 ??0FieldActivator@xercesc_2_8@@QAE@ABV01@@Z
        224   DF 001BE840 ??0FieldActivator@xercesc_2_8@@QAE@QAVValueStoreCache@1@QAVXPathMatcherStack@1@QAVMemoryManager@1@@Z
        225   E0 00111030 ??0FieldMatcher@xercesc_2_8@@AAE@QAVXercesXPath@1@QAVIC_Field@1@QAVValueStore@1@QAVFieldActivator@1@QAVMemoryManager@1@@Z
        226   E1 0013CD10 ??0FieldValueMap@xercesc_2_8@@QAE@ABV01@@Z
        227   E2 0013CCF0 ??0FieldValueMap@xercesc_2_8@@QAE@QAVMemoryManager@1@@Z
        228   E3 00179E90 ??0FloatDatatypeValidator@xercesc_2_8@@IAE@QAVDatatypeValidator@1@QAV?$RefHashTableOf@VKVStringPair@xercesc_2_8@@@1@HW4ValidatorType@21@QAVMemoryManager@1@@Z
        229   E4 00179CE0 ??0FloatDatatypeValidator@xercesc_2_8@@QAE@QAVDatatypeValidator@1@QAV?$RefHashTableOf@VKVStringPair@xercesc_2_8@@@1@QAV?$RefArrayVectorOf@_W@1@HQAVMemoryManager@1@@Z
        230   E5 00179C60 ??0FloatDatatypeValidator@xercesc_2_8@@QAE@QAVMemoryManager@1@@Z
        231   E6 0016F720 ??0GeneralAttributeCheck@xercesc_2_8@@QAE@QAVMemoryManager@1@@Z
        232   E7 000F31C0 ??0Grammar@xercesc_2_8@@IAE@XZ
        233   E8 0011E370 ??0GrammarResolver@xercesc_2_8@@QAE@QAVXMLGrammarPool@1@QAVMemoryManager@1@@Z
        234   E9 000EC530 ??0HashBase@xercesc_2_8@@QAE@XZ
        235   EA 001403B0 ??0HashCMStateSet@xercesc_2_8@@QAE@XZ
        236   EB 00125690 ??0HashPtr@xercesc_2_8@@QAE@XZ
        237   EC 0011F350 ??0HashXMLCh@xercesc_2_8@@QAE@XZ
        238   ED 00173ED0 ??0HexBinaryDatatypeValidator@xercesc_2_8@@QAE@QAVDatatypeValidator@1@QAV?$RefHashTableOf@VKVStringPair@xercesc_2_8@@@1@QAV?$RefArrayVectorOf@_W@1@HQAVMemoryManager@1@@Z
        239   EE 00173E50 ??0HexBinaryDatatypeValidator@xercesc_2_8@@QAE@QAVMemoryManager@1@@Z
        240   EF 001112D0 ??0IC_Field@xercesc_2_8@@QAE@QAVMemoryManager@1@@Z
        241   F0 001110F0 ??0IC_Field@xercesc_2_8@@QAE@QAVXercesXPath@1@QAVIdentityConstraint@1@@Z
        242   F1 00182DB0 ??0IC_Key@xercesc_2_8@@QAE@QAVMemoryManager@1@@Z
        243   F2 00182CF0 ??0IC_Key@xercesc_2_8@@QAE@QB_W0QAVMemoryManager@1@@Z
        244   F3 001830C0 ??0IC_KeyRef@xercesc_2_8@@QAE@QAVMemoryManager@1@@Z
        245   F4 00182F80 ??0IC_KeyRef@xercesc_2_8@@QAE@QB_W0QAVIdentityConstraint@1@QAVMemoryManager@1@@Z
        246   F5 00182C70 ??0IC_Selector@xercesc_2_8@@QAE@QAVMemoryManager@1@@Z
        247   F6 00182B10 ??0IC_Selector@xercesc_2_8@@QAE@QAVXercesXPath@1@QAVIdentityConstraint@1@@Z
        248   F7 00182F00 ??0IC_Unique@xercesc_2_8@@QAE@QAVMemoryManager@1@@Z
        249   F8 00182E30 ??0IC_Unique@xercesc_2_8@@QAE@QB_W0QAVMemoryManager@1@@Z
        250   F9 00134470 ??0IDDatatypeValidator@xercesc_2_8@@IAE@QAVDatatypeValidator@1@QAV?$RefHashTableOf@VKVStringPair@xercesc_2_8@@@1@HW4ValidatorType@21@QAVMemoryManager@1@@Z
        251   FA 00134350 ??0IDDatatypeValidator@xercesc_2_8@@QAE@QAVDatatypeValidator@1@QAV?$RefHashTableOf@VKVStringPair@xercesc_2_8@@@1@QAV?$RefArrayVectorOf@_W@1@HQAVMemoryManager@1@@Z
        252   FB 001342E0 ??0IDDatatypeValidator@xercesc_2_8@@QAE@QAVMemoryManager@1@@Z
        253   FC 001735A0 ??0IDREFDatatypeValidator@xercesc_2_8@@IAE@QAVDatatypeValidator@1@QAV?$RefHashTableOf@VKVStringPair@xercesc_2_8@@@1@HW4ValidatorType@21@QAVMemoryManager@1@@Z
        254   FD 00173490 ??0IDREFDatatypeValidator@xercesc_2_8@@QAE@QAVDatatypeValidator@1@QAV?$RefHashTableOf@VKVStringPair@xercesc_2_8@@@1@QAV?$RefArrayVectorOf@_W@1@HQAVMemoryManager@1@@Z
        255   FE 00173420 ??0IDREFDatatypeValidator@xercesc_2_8@@QAE@QAVMemoryManager@1@@Z
        256   FF 00147310 ??0IGXMLScanner@xercesc_2_8@@QAE@QAVXMLDocumentHandler@1@QAVDocTypeHandler@1@QAVXMLEntityHandler@1@QAVXMLErrorReporter@1@QAVXMLValidator@1@QAVGrammarResolver@1@QAVMemoryManager@1@@Z
        257  100 001471A0 ??0IGXMLScanner@xercesc_2_8@@QAE@QAVXMLValidator@1@QAVGrammarResolver@1@QAVMemoryManager@1@@Z
        258  101 000F4DD0 ??0IOException@xercesc_2_8@@QAE@ABV01@@Z
        259  102 000F4E80 ??0IOException@xercesc_2_8@@QAE@QBDIW4Codes@XMLExcepts@1@0000PAVMemoryManager@1@@Z
        260  103 000F4D60 ??0IOException@xercesc_2_8@@QAE@QBDIW4Codes@XMLExcepts@1@PAVMemoryManager@1@@Z
        261  104 000F4DF0 ??0IOException@xercesc_2_8@@QAE@QBDIW4Codes@XMLExcepts@1@QB_W222PAVMemoryManager@1@@Z
        262  105 0013D140 ??0IdentityConstraint@xercesc_2_8@@IAE@QB_W0QAVMemoryManager@1@@Z
        263  106 001932C0 ??0IdentityConstraintHandler@xercesc_2_8@@QAE@QAVXMLScanner@1@QAVMemoryManager@1@@Z
        264  107 000EC5B0 ??0IllegalArgumentException@xercesc_2_8@@QAE@ABV01@@Z
        265  108 000EC660 ??0IllegalArgumentException@xercesc_2_8@@QAE@QBDIW4Codes@XMLExcepts@1@0000PAVMemoryManager@1@@Z
        266  109 000EC540 ??0IllegalArgumentException@xercesc_2_8@@QAE@QBDIW4Codes@XMLExcepts@1@PAVMemoryManager@1@@Z
        267  10A 000EC5D0 ??0IllegalArgumentException@xercesc_2_8@@QAE@QBDIW4Codes@XMLExcepts@1@QB_W222PAVMemoryManager@1@@Z
        268  10B 001250D0 ??0InMemMsgLoader@xercesc_2_8@@QAE@QB_W@Z
        269  10C 00135DF0 ??0InputSource@xercesc_2_8@@IAE@QAVMemoryManager@1@@Z
        270  10D 00135EF0 ??0InputSource@xercesc_2_8@@IAE@QBD0QAVMemoryManager@1@@Z
        271  10E 00135EB0 ??0InputSource@xercesc_2_8@@IAE@QBDQAVMemoryManager@1@@Z
        272  10F 00135E60 ??0InputSource@xercesc_2_8@@IAE@QB_W0QAVMemoryManager@1@@Z
        273  110 00135E20 ??0InputSource@xercesc_2_8@@IAE@QB_WQAVMemoryManager@1@@Z
        274  111 001030C0 ??0InvalidDatatypeFacetException@xercesc_2_8@@QAE@ABV01@@Z
        275  112 00103170 ??0InvalidDatatypeFacetException@xercesc_2_8@@QAE@QBDIW4Codes@XMLExcepts@1@0000PAVMemoryManager@1@@Z
        276  113 00103050 ??0InvalidDatatypeFacetException@xercesc_2_8@@QAE@QBDIW4Codes@XMLExcepts@1@PAVMemoryManager@1@@Z
        277  114 001030E0 ??0InvalidDatatypeFacetException@xercesc_2_8@@QAE@QBDIW4Codes@XMLExcepts@1@QB_W222PAVMemoryManager@1@@Z
        278  115 001033A0 ??0InvalidDatatypeValueException@xercesc_2_8@@QAE@ABV01@@Z
        279  116 00103450 ??0InvalidDatatypeValueException@xercesc_2_8@@QAE@QBDIW4Codes@XMLExcepts@1@0000PAVMemoryManager@1@@Z
        280  117 00103330 ??0InvalidDatatypeValueException@xercesc_2_8@@QAE@QBDIW4Codes@XMLExcepts@1@PAVMemoryManager@1@@Z
        281  118 001033C0 ??0InvalidDatatypeValueException@xercesc_2_8@@QAE@QBDIW4Codes@XMLExcepts@1@QB_W222PAVMemoryManager@1@@Z
        282  119 0011B2E0 ??0KVStringPair@xercesc_2_8@@QAE@ABV01@@Z
        283  11A 0011B150 ??0KVStringPair@xercesc_2_8@@QAE@QAVMemoryManager@1@@Z
        284  11B 0011B1E0 ??0KVStringPair@xercesc_2_8@@QAE@QB_W0IQAVMemoryManager@1@@Z
        285  11C 0011B170 ??0KVStringPair@xercesc_2_8@@QAE@QB_W0QAVMemoryManager@1@@Z
        286  11D 0011B260 ??0KVStringPair@xercesc_2_8@@QAE@QB_WI0IQAVMemoryManager@1@@Z
        287  11E 000F0210 ??0LexicalHandler@xercesc_2_8@@QAE@XZ
        288  11F 00178AD0 ??0ListDatatypeValidator@xercesc_2_8@@QAE@QAVDatatypeValidator@1@QAV?$RefHashTableOf@VKVStringPair@xercesc_2_8@@@1@QAV?$RefArrayVectorOf@_W@1@HQAVMemoryManager@1@@Z
        289  120 00178A60 ??0ListDatatypeValidator@xercesc_2_8@@QAE@QAVMemoryManager@1@@Z
        290  121 00135FE0 ??0LocalFileInputSource@xercesc_2_8@@QAE@QB_W0QAVMemoryManager@1@@Z
        291  122 001360A0 ??0LocalFileInputSource@xercesc_2_8@@QAE@QB_WQAVMemoryManager@1@@Z
        292  123 000F2B00 ??0Locator@xercesc_2_8@@QAE@XZ
        293  124 000ED550 ??0MalformedURLException@xercesc_2_8@@QAE@ABV01@@Z
        294  125 000ED600 ??0MalformedURLException@xercesc_2_8@@QAE@QBDIW4Codes@XMLExcepts@1@0000PAVMemoryManager@1@@Z
        295  126 000ED4E0 ??0MalformedURLException@xercesc_2_8@@QAE@QBDIW4Codes@XMLExcepts@1@PAVMemoryManager@1@@Z
        296  127 000ED570 ??0MalformedURLException@xercesc_2_8@@QAE@QBDIW4Codes@XMLExcepts@1@QB_W222PAVMemoryManager@1@@Z
        297  128 0013A5C0 ??0Match@xercesc_2_8@@QAE@ABV01@@Z
        298  129 0013A5A0 ??0Match@xercesc_2_8@@QAE@QAVMemoryManager@1@@Z
        299  12A 001C26D0 ??0MemBufFormatTarget@xercesc_2_8@@QAE@HQAVMemoryManager@1@@Z
        300  12B 001BE6B0 ??0MemBufInputSource@xercesc_2_8@@QAE@QBEIQBD_NQAVMemoryManager@1@@Z
        301  12C 001BE650 ??0MemBufInputSource@xercesc_2_8@@QAE@QBEIQB_W_NQAVMemoryManager@1@@Z
        302  12D 000EC290 ??0MemoryManager@xercesc_2_8@@IAE@XZ
        303  12E 001020E0 ??0MemoryManagerArrayImpl@xercesc_2_8@@QAE@XZ
        304  12F 001020E0 ??0MemoryManagerImpl@xercesc_2_8@@QAE@XZ
        305  130 00102A60 ??0ModifierOp@xercesc_2_8@@QAE@FHHQAVMemoryManager@1@@Z
        306  131 0013CBF0 ??0ModifierToken@xercesc_2_8@@QAE@QAVToken@1@HHQAVMemoryManager@1@@Z
        307  132 00173230 ??0MonthDatatypeValidator@xercesc_2_8@@QAE@QAVDatatypeValidator@1@QAV?$RefHashTableOf@VKVStringPair@xercesc_2_8@@@1@QAV?$RefArrayVectorOf@_W@1@HQAVMemoryManager@1@@Z
        308  133 001731B0 ??0MonthDatatypeValidator@xercesc_2_8@@QAE@QAVMemoryManager@1@@Z
        309  134 00173BF0 ??0MonthDayDatatypeValidator@xercesc_2_8@@QAE@QAVDatatypeValidator@1@QAV?$RefHashTableOf@VKVStringPair@xercesc_2_8@@@1@QAV?$RefArrayVectorOf@_W@1@HQAVMemoryManager@1@@Z
        310  135 00173B70 ??0MonthDayDatatypeValidator@xercesc_2_8@@QAE@QAVMemoryManager@1@@Z
        311  136 00173A70 ??0NCNameDatatypeValidator@xercesc_2_8@@IAE@QAVDatatypeValidator@1@QAV?$RefHashTableOf@VKVStringPair@xercesc_2_8@@@1@HW4ValidatorType@21@QAVMemoryManager@1@@Z
        312  137 00173960 ??0NCNameDatatypeValidator@xercesc_2_8@@QAE@QAVDatatypeValidator@1@QAV?$RefHashTableOf@VKVStringPair@xercesc_2_8@@@1@QAV?$RefArrayVectorOf@_W@1@HQAVMemoryManager@1@@Z
        313  138 001738F0 ??0NCNameDatatypeValidator@xercesc_2_8@@QAE@QAVMemoryManager@1@@Z
        314  139 00178690 ??0NOTATIONDatatypeValidator@xercesc_2_8@@QAE@QAVDatatypeValidator@1@QAV?$RefHashTableOf@VKVStringPair@xercesc_2_8@@@1@QAV?$RefArrayVectorOf@_W@1@HQAVMemoryManager@1@@Z
        315  13A 00178610 ??0NOTATIONDatatypeValidator@xercesc_2_8@@QAE@QAVMemoryManager@1@@Z
        316  13B 00175C50 ??0NameDatatypeValidator@xercesc_2_8@@IAE@QAVDatatypeValidator@1@QAV?$RefHashTableOf@VKVStringPair@xercesc_2_8@@@1@HW4ValidatorType@21@QAVMemoryManager@1@@Z
        317  13C 00175B40 ??0NameDatatypeValidator@xercesc_2_8@@QAE@QAVDatatypeValidator@1@QAV?$RefHashTableOf@VKVStringPair@xercesc_2_8@@@1@QAV?$RefArrayVectorOf@_W@1@HQAVMemoryManager@1@@Z
        318  13D 00175AD0 ??0NameDatatypeValidator@xercesc_2_8@@QAE@QAVMemoryManager@1@@Z
        319  13E 001724B0 ??0NamespaceScope@xercesc_2_8@@QAE@QAVMemoryManager@1@@Z
        320  13F 000ED850 ??0NetAccessorException@xercesc_2_8@@QAE@ABV01@@Z
        321  140 000ED900 ??0NetAccessorException@xercesc_2_8@@QAE@QBDIW4Codes@XMLExcepts@1@0000PAVMemoryManager@1@@Z
        322  141 000ED7E0 ??0NetAccessorException@xercesc_2_8@@QAE@QBDIW4Codes@XMLExcepts@1@PAVMemoryManager@1@@Z
        323  142 000ED870 ??0NetAccessorException@xercesc_2_8@@QAE@QBDIW4Codes@XMLExcepts@1@QB_W222PAVMemoryManager@1@@Z
        324  143 000EC7E0 ??0NoSuchElementException@xercesc_2_8@@QAE@ABV01@@Z
        325  144 000EC890 ??0NoSuchElementException@xercesc_2_8@@QAE@QBDIW4Codes@XMLExcepts@1@0000PAVMemoryManager@1@@Z
        326  145 000EC770 ??0NoSuchElementException@xercesc_2_8@@QAE@QBDIW4Codes@XMLExcepts@1@PAVMemoryManager@1@@Z
        327  146 000EC800 ??0NoSuchElementException@xercesc_2_8@@QAE@QBDIW4Codes@XMLExcepts@1@QB_W222PAVMemoryManager@1@@Z
        328  147 000ED200 ??0NullPointerException@xercesc_2_8@@QAE@ABV01@@Z
        329  148 000ED2B0 ??0NullPointerException@xercesc_2_8@@QAE@QBDIW4Codes@XMLExcepts@1@0000PAVMemoryManager@1@@Z
        330  149 000ED190 ??0NullPointerException@xercesc_2_8@@QAE@QBDIW4Codes@XMLExcepts@1@PAVMemoryManager@1@@Z
        331  14A 000ED220 ??0NullPointerException@xercesc_2_8@@QAE@QBDIW4Codes@XMLExcepts@1@QB_W222PAVMemoryManager@1@@Z
        332  14B 000FB890 ??0NumberFormatException@xercesc_2_8@@QAE@ABV01@@Z
        333  14C 000FB940 ??0NumberFormatException@xercesc_2_8@@QAE@QBDIW4Codes@XMLExcepts@1@0000PAVMemoryManager@1@@Z
        334  14D 000FB820 ??0NumberFormatException@xercesc_2_8@@QAE@QBDIW4Codes@XMLExcepts@1@PAVMemoryManager@1@@Z
        335  14E 000FB8B0 ??0NumberFormatException@xercesc_2_8@@QAE@QBDIW4Codes@XMLExcepts@1@QB_W222PAVMemoryManager@1@@Z
        336  14F 00102690 ??0Op@xercesc_2_8@@IAE@FQAVMemoryManager@1@@Z
        337  150 00114AD0 ??0OpFactory@xercesc_2_8@@QAE@QAVMemoryManager@1@@Z
        338  151 0013F490 ??0OutOfMemoryException@xercesc_2_8@@QAE@ABV01@@Z
        339  152 000EDF60 ??0OutOfMemoryException@xercesc_2_8@@QAE@XZ
        340  153 0011FE80 ??0PSVIAttribute@xercesc_2_8@@QAE@QAVMemoryManager@1@@Z
        341  154 0011FF60 ??0PSVIAttributeList@xercesc_2_8@@QAE@QAVMemoryManager@1@@Z
        342  155 0011FC80 ??0PSVIElement@xercesc_2_8@@QAE@QAVMemoryManager@1@@Z
        343  156 000F7540 ??0PSVIHandler@xercesc_2_8@@IAE@XZ
        344  157 0011FD90 ??0PSVIItem@xercesc_2_8@@QAE@QAVMemoryManager@1@@Z
        345  158 000EBF30 ??0PanicHandler@xercesc_2_8@@IAE@XZ
        346  159 0013BB80 ??0ParenToken@xercesc_2_8@@QAE@GQAVToken@1@HQAVMemoryManager@1@@Z
        347  15A 0010A640 ??0ParseException@xercesc_2_8@@QAE@ABV01@@Z
        348  15B 0010A6F0 ??0ParseException@xercesc_2_8@@QAE@QBDIW4Codes@XMLExcepts@1@0000PAVMemoryManager@1@@Z
        349  15C 0010A5D0 ??0ParseException@xercesc_2_8@@QAE@QBDIW4Codes@XMLExcepts@1@PAVMemoryManager@1@@Z
        350  15D 0010A660 ??0ParseException@xercesc_2_8@@QAE@QBDIW4Codes@XMLExcepts@1@QB_W222PAVMemoryManager@1@@Z
        351  15E 000F0210 ??0Parser@xercesc_2_8@@QAE@XZ
        352  15F 0013A820 ??0ParserForXMLSchema@xercesc_2_8@@QAE@QAVMemoryManager@1@@Z
        353  160 001134D0 ??0QName@xercesc_2_8@@QAE@ABV01@@Z
        354  161 001132B0 ??0QName@xercesc_2_8@@QAE@QAVMemoryManager@1@@Z
        355  162 001132E0 ??0QName@xercesc_2_8@@QAE@QB_W0IQAVMemoryManager@1@@Z
        356  163 001133A0 ??0QName@xercesc_2_8@@QAE@QB_WIQAVMemoryManager@1@@Z
        357  164 00172A10 ??0QNameDatatypeValidator@xercesc_2_8@@QAE@QAVDatatypeValidator@1@QAV?$RefHashTableOf@VKVStringPair@xercesc_2_8@@@1@QAV?$RefArrayVectorOf@_W@1@HQAVMemoryManager@1@@Z
        358  165 00172990 ??0QNameDatatypeValidator@xercesc_2_8@@QAE@QAVMemoryManager@1@@Z
        359  166 001BE810 ??0RangeFactory@xercesc_2_8@@IAE@XZ
        360  167 00102AA0 ??0RangeOp@xercesc_2_8@@QAE@FQBVToken@1@QAVMemoryManager@1@@Z
        361  168 001397D0 ??0RangeToken@xercesc_2_8@@QAE@GQAVMemoryManager@1@@Z
        362  169 0013C220 ??0RangeTokenElemMap@xercesc_2_8@@QAE@I@Z
        363  16A 0013C240 ??0RangeTokenMap@xercesc_2_8@@IAE@PAVMemoryManager@1@@Z
        364  16B 00118B10 ??0ReaderMgr@xercesc_2_8@@QAE@QAVMemoryManager@1@@Z
        365  16C 0010AE10 ??0RegularExpression@xercesc_2_8@@QAE@QBD0QAVMemoryManager@1@@Z
        366  16D 0010AD20 ??0RegularExpression@xercesc_2_8@@QAE@QBDQAVMemoryManager@1@@Z
        367  16E 0010B000 ??0RegularExpression@xercesc_2_8@@QAE@QB_W0QAVMemoryManager@1@@Z
        368  16F 0010AF50 ??0RegularExpression@xercesc_2_8@@QAE@QB_WQAVMemoryManager@1@@Z
        369  170 00136760 ??0RegxParser@xercesc_2_8@@QAE@QAVMemoryManager@1@@Z
        370  171 000EC370 ??0RuntimeException@xercesc_2_8@@QAE@ABV01@@Z
        371  172 000EC420 ??0RuntimeException@xercesc_2_8@@QAE@QBDIW4Codes@XMLExcepts@1@0000PAVMemoryManager@1@@Z
        372  173 000EC300 ??0RuntimeException@xercesc_2_8@@QAE@QBDIW4Codes@XMLExcepts@1@PAVMemoryManager@1@@Z
        373  174 000EC390 ??0RuntimeException@xercesc_2_8@@QAE@QBDIW4Codes@XMLExcepts@1@QB_W222PAVMemoryManager@1@@Z
        374  175 0017EE30 ??0SAX2XMLReader@xercesc_2_8@@QAE@XZ
        375  176 001BBC80 ??0SAX2XMLReaderImpl@xercesc_2_8@@QAE@QAVMemoryManager@1@QAVXMLGrammarPool@1@@Z
        376  177 000F50C0 ??0SAXException@xercesc_2_8@@QAE@ABV01@@Z
        377  178 000F5030 ??0SAXException@xercesc_2_8@@QAE@QAVMemoryManager@1@@Z
        378  179 000F5090 ??0SAXException@xercesc_2_8@@QAE@QBDQAVMemoryManager@1@@Z
        379  17A 000F5060 ??0SAXException@xercesc_2_8@@QAE@QB_WQAVMemoryManager@1@@Z
        380  17B 00110B20 ??0SAXNotRecognizedException@xercesc_2_8@@QAE@ABV01@@Z
        381  17C 00110B20 ??0SAXNotRecognizedException@xercesc_2_8@@QAE@ABVSAXException@1@@Z
        382  17D 00110A80 ??0SAXNotRecognizedException@xercesc_2_8@@QAE@QAVMemoryManager@1@@Z
        383  17E 00110AE0 ??0SAXNotRecognizedException@xercesc_2_8@@QAE@QBDQAVMemoryManager@1@@Z
        384  17F 00110AB0 ??0SAXNotRecognizedException@xercesc_2_8@@QAE@QB_WQAVMemoryManager@1@@Z
        385  180 00110B20 ??0SAXNotSupportedException@xercesc_2_8@@QAE@ABV01@@Z
        386  181 00110B20 ??0SAXNotSupportedException@xercesc_2_8@@QAE@ABVSAXException@1@@Z
        387  182 00110A80 ??0SAXNotSupportedException@xercesc_2_8@@QAE@QAVMemoryManager@1@@Z
        388  183 00110AE0 ??0SAXNotSupportedException@xercesc_2_8@@QAE@QBDQAVMemoryManager@1@@Z
        389  184 00110AB0 ??0SAXNotSupportedException@xercesc_2_8@@QAE@QB_WQAVMemoryManager@1@@Z
        390  185 0011BD10 ??0SAXParseException@xercesc_2_8@@QAE@ABV01@@Z
        391  186 0011BC70 ??0SAXParseException@xercesc_2_8@@QAE@QB_W00JJQAVMemoryManager@1@@Z
        392  187 0011BBB0 ??0SAXParseException@xercesc_2_8@@QAE@QB_WABVLocator@1@QAVMemoryManager@1@@Z
        393  188 000F5270 ??0SAXParser@xercesc_2_8@@QAE@QAVXMLValidator@1@QAVMemoryManager@1@QAVXMLGrammarPool@1@@Z
        394  189 00150160 ??0SGXMLScanner@xercesc_2_8@@QAE@QAVXMLDocumentHandler@1@QAVDocTypeHandler@1@QAVXMLEntityHandler@1@QAVXMLErrorReporter@1@QAVXMLValidator@1@QAVGrammarResolver@1@QAVMemoryManager@1@@Z
        395  18A 00150000 ??0SGXMLScanner@xercesc_2_8@@QAE@QAVXMLValidator@1@QAVGrammarResolver@1@QAVMemoryManager@1@@Z
        396  18B 0010F440 ??0SchemaAttDef@xercesc_2_8@@QAE@PBV01@@Z
        397  18C 0010F230 ??0SchemaAttDef@xercesc_2_8@@QAE@QAVMemoryManager@1@@Z
        398  18D 0010F370 ??0SchemaAttDef@xercesc_2_8@@QAE@QB_W0H0W4AttTypes@XMLAttDef@1@W4DefAttTypes@31@0QAVMemoryManager@1@@Z
        399  18E 0010F290 ??0SchemaAttDef@xercesc_2_8@@QAE@QB_W0HW4AttTypes@XMLAttDef@1@W4DefAttTypes@31@QAVMemoryManager@1@@Z
        400  18F 0013E6F0 ??0SchemaAttDefList@xercesc_2_8@@QAE@QAV?$RefHash2KeysTableOf@VSchemaAttDef@xercesc_2_8@@@1@QAVMemoryManager@1@@Z
        401  190 0013EAD0 ??0SchemaAttDefList@xercesc_2_8@@QAE@QAVMemoryManager@1@@Z
        402  191 0012ADD0 ??0SchemaDateTimeException@xercesc_2_8@@QAE@ABV01@@Z
        403  192 0012AE80 ??0SchemaDateTimeException@xercesc_2_8@@QAE@QBDIW4Codes@XMLExcepts@1@0000PAVMemoryManager@1@@Z
        404  193 0012AD60 ??0SchemaDateTimeException@xercesc_2_8@@QAE@QBDIW4Codes@XMLExcepts@1@PAVMemoryManager@1@@Z
        405  194 0012ADF0 ??0SchemaDateTimeException@xercesc_2_8@@QAE@QBDIW4Codes@XMLExcepts@1@QB_W222PAVMemoryManager@1@@Z
        406  195 00114010 ??0SchemaElementDecl@xercesc_2_8@@QAE@QAVMemoryManager@1@@Z
        407  196 00114150 ??0SchemaElementDecl@xercesc_2_8@@QAE@QBVQName@1@W4ModelTypes@01@HQAVMemoryManager@1@@Z
        408  197 00114080 ??0SchemaElementDecl@xercesc_2_8@@QAE@QB_W0HW4ModelTypes@01@HQAVMemoryManager@1@@Z
        409  198 001345F0 ??0SchemaGrammar@xercesc_2_8@@QAE@QAVMemoryManager@1@@Z
        410  199 00193A20 ??0SchemaInfo@xercesc_2_8@@QAE@GHHHHIQA_WQB_WQBVDOMElement@1@QAVMemoryManager@1@@Z
        411  19A 0018B260 ??0SchemaValidator@xercesc_2_8@@QAE@QAVXMLErrorReporter@1@QAVMemoryManager@1@@Z
        412  19B 000F1940 ??0SecurityManager@xercesc_2_8@@QAE@XZ
        413  19C 00182930 ??0SelectorMatcher@xercesc_2_8@@AAE@QAVXercesXPath@1@QAVIC_Selector@1@QAVFieldActivator@1@HQAVMemoryManager@1@@Z
        414  19D 00135430 ??0StringDatatypeValidator@xercesc_2_8@@IAE@QAVDatatypeValidator@1@QAV?$RefHashTableOf@VKVStringPair@xercesc_2_8@@@1@HW4ValidatorType@21@QAVMemoryManager@1@@Z
        415  19E 00135320 ??0StringDatatypeValidator@xercesc_2_8@@QAE@QAVDatatypeValidator@1@QAV?$RefHashTableOf@VKVStringPair@xercesc_2_8@@@1@QAV?$RefArrayVectorOf@_W@1@HQAVMemoryManager@1@@Z
        416  19F 001352C0 ??0StringDatatypeValidator@xercesc_2_8@@QAE@QAVMemoryManager@1@@Z
        417  1A0 00102AD0 ??0StringOp@xercesc_2_8@@QAE@FQB_WQAVMemoryManager@1@@Z
        418  1A1 0013BA40 ??0StringToken@xercesc_2_8@@QAE@GQB_WHQAVMemoryManager@1@@Z
        419  1A2 0013ED70 ??0SubstitutionGroupComparator@xercesc_2_8@@QAE@QAVGrammarResolver@1@QAVXMLStringPool@1@@Z
        420  1A3 000F2E00 ??0ThrowEOEJanitor@xercesc_2_8@@QAE@PAVReaderMgr@1@_N@Z
        421  1A4 00179900 ??0TimeDatatypeValidator@xercesc_2_8@@QAE@QAVDatatypeValidator@1@QAV?$RefHashTableOf@VKVStringPair@xercesc_2_8@@@1@QAV?$RefArrayVectorOf@_W@1@HQAVMemoryManager@1@@Z
        422  1A5 00179880 ??0TimeDatatypeValidator@xercesc_2_8@@QAE@QAVMemoryManager@1@@Z
        423  1A6 0011F430 ??0Token@xercesc_2_8@@QAE@GQAVMemoryManager@1@@Z
        424  1A7 0010F8D0 ??0TokenFactory@xercesc_2_8@@QAE@QAVMemoryManager@1@@Z
        425  1A8 000F22E0 ??0TranscodingException@xercesc_2_8@@QAE@ABV01@@Z
        426  1A9 000F2390 ??0TranscodingException@xercesc_2_8@@QAE@QBDIW4Codes@XMLExcepts@1@0000PAVMemoryManager@1@@Z
        427  1AA 000F2270 ??0TranscodingException@xercesc_2_8@@QAE@QBDIW4Codes@XMLExcepts@1@PAVMemoryManager@1@@Z
        428  1AB 000F2300 ??0TranscodingException@xercesc_2_8@@QAE@QBDIW4Codes@XMLExcepts@1@QB_W222PAVMemoryManager@1@@Z
        429  1AC 00195C80 ??0TraverseSchema@xercesc_2_8@@QAE@QAVDOMElement@1@QAVXMLStringPool@1@QAVSchemaGrammar@1@QAVGrammarResolver@1@QAVXMLScanner@1@QB_WQAVXMLEntityHandler@1@QAVXMLErrorReporter@1@QAVMemoryManager@1@@Z
        430  1AD 00136330 ??0URLInputSource@xercesc_2_8@@QAE@ABVXMLURL@1@QAVMemoryManager@1@@Z
        431  1AE 00136490 ??0URLInputSource@xercesc_2_8@@QAE@QB_W00QAVMemoryManager@1@@Z
        432  1AF 001363E0 ??0URLInputSource@xercesc_2_8@@QAE@QB_W0QAVMemoryManager@1@@Z
        433  1B0 00136610 ??0URLInputSource@xercesc_2_8@@QAE@QB_WQBD1QAVMemoryManager@1@@Z
        434  1B1 00136560 ??0URLInputSource@xercesc_2_8@@QAE@QB_WQBDQAVMemoryManager@1@@Z
        435  1B2 00125860 ??0UTFDataFormatException@xercesc_2_8@@QAE@ABV01@@Z
        436  1B3 00125910 ??0UTFDataFormatException@xercesc_2_8@@QAE@QBDIW4Codes@XMLExcepts@1@0000PAVMemoryManager@1@@Z
        437  1B4 001257F0 ??0UTFDataFormatException@xercesc_2_8@@QAE@QBDIW4Codes@XMLExcepts@1@PAVMemoryManager@1@@Z
        438  1B5 00125880 ??0UTFDataFormatException@xercesc_2_8@@QAE@QBDIW4Codes@XMLExcepts@1@QB_W222PAVMemoryManager@1@@Z
        439  1B6 00105C40 ??0UnexpectedEOFException@xercesc_2_8@@QAE@ABV01@@Z
        440  1B7 00105CF0 ??0UnexpectedEOFException@xercesc_2_8@@QAE@QBDIW4Codes@XMLExcepts@1@0000PAVMemoryManager@1@@Z
        441  1B8 00105BD0 ??0UnexpectedEOFException@xercesc_2_8@@QAE@QBDIW4Codes@XMLExcepts@1@PAVMemoryManager@1@@Z
        442  1B9 00105C60 ??0UnexpectedEOFException@xercesc_2_8@@QAE@QBDIW4Codes@XMLExcepts@1@QB_W222PAVMemoryManager@1@@Z
        443  1BA 00180FD0 ??0UnicodeRangeFactory@xercesc_2_8@@QAE@XZ
        444  1BB 001048D0 ??0UnionDatatypeValidator@xercesc_2_8@@QAE@QAV?$RefVectorOf@VDatatypeValidator@xercesc_2_8@@@1@HQAVMemoryManager@1@@Z
        445  1BC 00104980 ??0UnionDatatypeValidator@xercesc_2_8@@QAE@QAVDatatypeValidator@1@QAV?$RefHashTableOf@VKVStringPair@xercesc_2_8@@@1@QAV?$RefArrayVectorOf@_W@1@HQAVMemoryManager@1@QAV?$RefVectorOf@VDatatypeValidator@xercesc_2_8@@@1@_N@Z
        446  1BD 001047E0 ??0UnionDatatypeValidator@xercesc_2_8@@QAE@QAVMemoryManager@1@@Z
        447  1BE 00102900 ??0UnionOp@xercesc_2_8@@QAE@FHQAVMemoryManager@1@@Z
        448  1BF 0013BCE0 ??0UnionToken@xercesc_2_8@@QAE@GQAVMemoryManager@1@@Z
        449  1C0 000F13D0 ??0ValidationContext@xercesc_2_8@@IAE@QAVMemoryManager@1@@Z
        450  1C1 00135880 ??0ValidationContextImpl@xercesc_2_8@@QAE@QAVMemoryManager@1@@Z
        451  1C2 0013D650 ??0ValueStore@xercesc_2_8@@QAE@QAVIdentityConstraint@1@QAVXMLScanner@1@QAVMemoryManager@1@@Z
        452  1C3 001830F0 ??0ValueStoreCache@xercesc_2_8@@QAE@QAVMemoryManager@1@@Z
        453  1C4 0011DEC0 ??0VecAttrListImpl@xercesc_2_8@@QAE@XZ
        454  1C5 001C2BF0 ??0VecAttributesImpl@xercesc_2_8@@QAE@XZ
        455  1C6 0010EA00 ??0WFElemStack@xercesc_2_8@@QAE@QAVMemoryManager@1@@Z
        456  1C7 0014C180 ??0WFXMLScanner@xercesc_2_8@@QAE@QAVXMLDocumentHandler@1@QAVDocTypeHandler@1@QAVXMLEntityHandler@1@QAVXMLErrorReporter@1@QAVXMLValidator@1@QAVGrammarResolver@1@QAVMemoryManager@1@@Z
        457  1C8 0014C0C0 ??0WFXMLScanner@xercesc_2_8@@QAE@QAVXMLValidator@1@QAVGrammarResolver@1@QAVMemoryManager@1@@Z
        458  1C9 001249D0 ??0Win32LCPTranscoder@xercesc_2_8@@QAE@XZ
        459  1CA 00123F10 ??0Win32TransService@xercesc_2_8@@QAE@XZ
        460  1CB 00124670 ??0Win32Transcoder@xercesc_2_8@@QAE@QB_WIIIQAVMemoryManager@1@@Z
        461  1CC 00124F50 ??0WinSockNetAccessor@xercesc_2_8@@QAE@XZ
        462  1CD 001C29C0 ??0Wrapper4DOMInputSource@xercesc_2_8@@QAE@QAVDOMInputSource@1@_NQAVMemoryManager@1@@Z
        463  1CE 001844B0 ??0XML256TableTranscoder@xercesc_2_8@@IAE@QB_WI0QBUTransRec@XMLTransService@1@IQAVMemoryManager@1@@Z
        464  1CF 0016DC50 ??0XML88591Transcoder@xercesc_2_8@@QAE@QB_WIQAVMemoryManager@1@@Z
        465  1D0 0016ECB0 ??0XMLASCIITranscoder@xercesc_2_8@@QAE@QB_WIQAVMemoryManager@1@@Z
        466  1D1 00175D90 ??0XMLAbstractDoubleFloat@xercesc_2_8@@IAE@QAVMemoryManager@1@@Z
        467  1D2 00118860 ??0XMLAttDef@xercesc_2_8@@IAE@QB_WW4AttTypes@01@W4DefAttTypes@01@0QAVMemoryManager@1@@Z
        468  1D3 00118820 ??0XMLAttDef@xercesc_2_8@@IAE@W4AttTypes@01@W4DefAttTypes@01@QAVMemoryManager@1@@Z
        469  1D4 000F1820 ??0XMLAttDefList@xercesc_2_8@@IAE@QAVMemoryManager@1@@Z
        470  1D5 00117040 ??0XMLAttr@xercesc_2_8@@QAE@IQB_W00W4AttTypes@XMLAttDef@1@_NQAVMemoryManager@1@PAVDatatypeValidator@1@2@Z
        471  1D6 00117120 ??0XMLAttr@xercesc_2_8@@QAE@IQB_W0W4AttTypes@XMLAttDef@1@_NQAVMemoryManager@1@PAVDatatypeValidator@1@2@Z
        472  1D7 00116FD0 ??0XMLAttr@xercesc_2_8@@QAE@QAVMemoryManager@1@@Z
        473  1D8 001ADA30 ??0XMLBigDecimal@xercesc_2_8@@QAE@QAVMemoryManager@1@@Z
        474  1D9 001AD070 ??0XMLBigDecimal@xercesc_2_8@@QAE@QB_WQAVMemoryManager@1@@Z
        475  1DA 001AC990 ??0XMLBigInteger@xercesc_2_8@@QAE@ABV01@@Z
        476  1DB 001AC830 ??0XMLBigInteger@xercesc_2_8@@QAE@QB_WQAVMemoryManager@1@@Z
        477  1DC 000ECBD0 ??0XMLBuffer@xercesc_2_8@@QAE@IQAVMemoryManager@1@@Z
        478  1DD 000ECDF0 ??0XMLBufferFullHandler@xercesc_2_8@@QAE@ABV01@@Z
        479  1DE 000EBF30 ??0XMLBufferFullHandler@xercesc_2_8@@QAE@XZ
        480  1DF 0011BEB0 ??0XMLBufferMgr@xercesc_2_8@@QAE@QAVMemoryManager@1@@Z
        481  1E0 001403F0 ??0XMLCanRepGroup@xercesc_2_8@@QAE@W4CanRepGroup@01@@Z
        482  1E1 0016E510 ??0XMLChTranscoder@xercesc_2_8@@QAE@QB_WIQAVMemoryManager@1@@Z
        483  1E2 000F1B20 ??0XMLContentModel@xercesc_2_8@@IAE@XZ
        484  1E3 00157890 ??0XMLDTDDescription@xercesc_2_8@@IAE@QAVMemoryManager@1@@Z
        485  1E4 001595F0 ??0XMLDTDDescriptionImpl@xercesc_2_8@@QAE@QAVMemoryManager@1@@Z
        486  1E5 001593B0 ??0XMLDTDDescriptionImpl@xercesc_2_8@@QAE@QB_WQAVMemoryManager@1@@Z
        487  1E6 0017B2F0 ??0XMLDateTime@xercesc_2_8@@QAE@ABV01@@Z
        488  1E7 0017B210 ??0XMLDateTime@xercesc_2_8@@QAE@QAVMemoryManager@1@@Z
        489  1E8 0017B270 ??0XMLDateTime@xercesc_2_8@@QAE@QB_WQAVMemoryManager@1@@Z
        490  1E9 000EC270 ??0XMLDeleter@xercesc_2_8@@IAE@XZ
        491  1EA 000F1740 ??0XMLDocumentHandler@xercesc_2_8@@IAE@XZ
        492  1EB 00175080 ??0XMLDouble@xercesc_2_8@@QAE@QAVMemoryManager@1@@Z
        493  1EC 00174F80 ??0XMLDouble@xercesc_2_8@@QAE@QB_WQAVMemoryManager@1@@Z
        494  1ED 0013E640 ??0XMLEBCDICTranscoder@xercesc_2_8@@QAE@QB_WIQAVMemoryManager@1@@Z
        495  1EE 00102E80 ??0XMLElementDecl@xercesc_2_8@@IAE@QAVMemoryManager@1@@Z
        496  1EF 00117450 ??0XMLEntityDecl@xercesc_2_8@@QAE@QAVMemoryManager@1@@Z
        497  1F0 00117500 ??0XMLEntityDecl@xercesc_2_8@@QAE@QB_W0QAVMemoryManager@1@@Z
        498  1F1 00117480 ??0XMLEntityDecl@xercesc_2_8@@QAE@QB_WQAVMemoryManager@1@@Z
        499  1F2 001175E0 ??0XMLEntityDecl@xercesc_2_8@@QAE@QB_W_WQAVMemoryManager@1@@Z
        500  1F3 000F18D0 ??0XMLEntityHandler@xercesc_2_8@@IAE@XZ
        501  1F4 00164A20 ??0XMLEntityResolver@xercesc_2_8@@IAE@XZ
        502  1F5 000EC290 ??0XMLErrorReporter@xercesc_2_8@@IAE@XZ
        503  1F6 000FEC70 ??0XMLException@xercesc_2_8@@QAE@ABV01@@Z
        504  1F7 000FEBF0 ??0XMLException@xercesc_2_8@@QAE@QBDIQAVMemoryManager@1@@Z
        505  1F8 000FEBD0 ??0XMLException@xercesc_2_8@@QAE@XZ
        506  1F9 001738B0 ??0XMLFloat@xercesc_2_8@@QAE@QAVMemoryManager@1@@Z
        507  1FA 00173710 ??0XMLFloat@xercesc_2_8@@QAE@QB_WQAVMemoryManager@1@@Z
        508  1FB 00164BA0 ??0XMLFormatTarget@xercesc_2_8@@IAE@XZ
        509  1FC 001C1B60 ??0XMLFormatter@xercesc_2_8@@QAE@QBD0QAVXMLFormatTarget@1@W4EscapeFlags@01@W4UnRepFlags@01@QAVMemoryManager@1@@Z
        510  1FD 001C1DB0 ??0XMLFormatter@xercesc_2_8@@QAE@QBDQAVXMLFormatTarget@1@W4EscapeFlags@01@W4UnRepFlags@01@QAVMemoryManager@1@@Z
        511  1FE 001C1CB0 ??0XMLFormatter@xercesc_2_8@@QAE@QB_W0QAVXMLFormatTarget@1@W4EscapeFlags@01@W4UnRepFlags@01@QAVMemoryManager@1@@Z
        512  1FF 001C1EB0 ??0XMLFormatter@xercesc_2_8@@QAE@QB_WQAVXMLFormatTarget@1@W4EscapeFlags@01@W4UnRepFlags@01@QAVMemoryManager@1@@Z
        513  200 0011F3A0 ??0XMLGrammarDescription@xercesc_2_8@@IAE@QAVMemoryManager@1@@Z
        514  201 000F4560 ??0XMLGrammarPool@xercesc_2_8@@IAE@QAVMemoryManager@1@@Z
        515  202 001597B0 ??0XMLGrammarPoolImpl@xercesc_2_8@@QAE@QAVMemoryManager@1@@Z
        516  203 0016DA70 ??0XMLIBM1047Transcoder@xercesc_2_8@@QAE@QB_WIQAVMemoryManager@1@@Z
        517  204 0016DB40 ??0XMLIBM1140Transcoder@xercesc_2_8@@QAE@QB_WIQAVMemoryManager@1@@Z
        518  205 001403F0 ??0XMLInteger@xercesc_2_8@@QAE@H@Z
        519  206 00127520 ??0XMLLCPTranscoder@xercesc_2_8@@IAE@XZ
        520  207 000FE9B0 ??0XMLMsgLoader@xercesc_2_8@@IAE@XZ
        521  208 0011DA20 ??0XMLMutex@xercesc_2_8@@QAE@QAVMemoryManager@1@@Z
        522  209 0011DA90 ??0XMLMutexLock@xercesc_2_8@@QAE@QAVXMLMutex@1@@Z
        523  20A 000ED770 ??0XMLNetAccessor@xercesc_2_8@@IAE@XZ
        524  20B 000ED740 ??0XMLNetHTTPInfo@xercesc_2_8@@QAE@XZ
        525  20C 0011DB20 ??0XMLNotationDecl@xercesc_2_8@@QAE@QAVMemoryManager@1@@Z
        526  20D 0011DB50 ??0XMLNotationDecl@xercesc_2_8@@QAE@QB_W000QAVMemoryManager@1@@Z
        527  20E 0017ED40 ??0XMLNumber@xercesc_2_8@@IAE@ABV01@@Z
        528  20F 0017ED30 ??0XMLNumber@xercesc_2_8@@IAE@XZ
        529  210 00120750 ??0XMLPScanToken@xercesc_2_8@@QAE@ABV01@@Z
        530  211 001ADF60 ??0XMLPScanToken@xercesc_2_8@@QAE@XZ
        531  212 000EC080 ??0XMLPlatformUtilsException@xercesc_2_8@@QAE@ABV01@@Z
        532  213 000EC130 ??0XMLPlatformUtilsException@xercesc_2_8@@QAE@QBDIW4Codes@XMLExcepts@1@0000PAVMemoryManager@1@@Z
        533  214 000EC010 ??0XMLPlatformUtilsException@xercesc_2_8@@QAE@QBDIW4Codes@XMLExcepts@1@PAVMemoryManager@1@@Z
        534  215 000EC0A0 ??0XMLPlatformUtilsException@xercesc_2_8@@QAE@QBDIW4Codes@XMLExcepts@1@QB_W222PAVMemoryManager@1@@Z
        535  216 00180860 ??0XMLRangeFactory@xercesc_2_8@@QAE@XZ
        536  217 00111610 ??0XMLReader@xercesc_2_8@@QAE@QB_W0QAVBinInputStream@1@0W4RefFrom@01@W4Types@01@W4Sources@01@_N5W4XMLVersion@01@QAVMemoryManager@1@@Z
        537  218 00111950 ??0XMLReader@xercesc_2_8@@QAE@QB_W0QAVBinInputStream@1@W4Encodings@XMLRecognizer@1@W4RefFrom@01@W4Types@01@W4Sources@01@_N6W4XMLVersion@01@QAVMemoryManager@1@@Z
        538  219 00111450 ??0XMLReader@xercesc_2_8@@QAE@QB_W0QAVBinInputStream@1@W4RefFrom@01@W4Types@01@W4Sources@01@_N5W4XMLVersion@01@QAVMemoryManager@1@@Z
        539  21A 00114AB0 ??0XMLRefInfo@xercesc_2_8@@QAE@QAVMemoryManager@1@@Z
        540  21B 000F2180 ??0XMLRefInfo@xercesc_2_8@@QAE@QB_W_N1QAVMemoryManager@1@@Z
        541  21C 00123C30 ??0XMLRegisterCleanup@xercesc_2_8@@QAE@XZ
        542  21D 000F5240 ??0XMLResourceIdentifier@xercesc_2_8@@QAE@W4ResourceIdentifierType@01@QB_W111PBVLocator@1@@Z
        543  21E 001064F0 ??0XMLScanner@xercesc_2_8@@QAE@QAVXMLDocumentHandler@1@QAVDocTypeHandler@1@QAVXMLEntityHandler@1@QAVXMLErrorReporter@1@QAVXMLValidator@1@QAVGrammarResolver@1@QAVMemoryManager@1@@Z
        544  21F 00106100 ??0XMLScanner@xercesc_2_8@@QAE@QAVXMLValidator@1@QAVGrammarResolver@1@QAVMemoryManager@1@@Z
        545  220 0011BB20 ??0XMLSchemaDescription@xercesc_2_8@@IAE@QAVMemoryManager@1@@Z
        546  221 00159320 ??0XMLSchemaDescriptionImpl@xercesc_2_8@@QAE@QAVMemoryManager@1@@Z
        547  222 00158ED0 ??0XMLSchemaDescriptionImpl@xercesc_2_8@@QAE@QB_WQAVMemoryManager@1@@Z
        548  223 00116970 ??0XMLStringPool@xercesc_2_8@@QAE@IQAVMemoryManager@1@@Z
        549  224 00116E50 ??0XMLStringPool@xercesc_2_8@@QAE@QAVMemoryManager@1@@Z
        550  225 00194350 ??0XMLStringTokenizer@xercesc_2_8@@QAE@QB_W0QAVMemoryManager@1@@Z
        551  226 00194220 ??0XMLStringTokenizer@xercesc_2_8@@QAE@QB_WQAVMemoryManager@1@@Z
        552  227 001A88F0 ??0XMLSynchronizedStringPool@xercesc_2_8@@QAE@PBVXMLStringPool@1@IQAVMemoryManager@1@@Z
        553  228 00125AF0 ??0XMLTransService@xercesc_2_8@@IAE@XZ
        554  229 001274E0 ??0XMLTranscoder@xercesc_2_8@@IAE@QB_WIQAVMemoryManager@1@@Z
        555  22A 0016E2A0 ??0XMLUCS4Transcoder@xercesc_2_8@@QAE@QB_WI_NQAVMemoryManager@1@@Z
        556  22B 000EE9C0 ??0XMLURL@xercesc_2_8@@QAE@ABV01@@Z
        557  22C 000EE6F0 ??0XMLURL@xercesc_2_8@@QAE@ABV01@QBD@Z
        558  22D 000EE640 ??0XMLURL@xercesc_2_8@@QAE@ABV01@QB_W@Z
        559  22E 000EE450 ??0XMLURL@xercesc_2_8@@QAE@QAVMemoryManager@1@@Z
        560  22F 000EE8B0 ??0XMLURL@xercesc_2_8@@QAE@QBDQAVMemoryManager@1@@Z
        561  230 000EE490 ??0XMLURL@xercesc_2_8@@QAE@QB_W0QAVMemoryManager@1@@Z
        562  231 000EE800 ??0XMLURL@xercesc_2_8@@QAE@QB_WQAVMemoryManager@1@@Z
        563  232 000EE540 ??0XMLURL@xercesc_2_8@@QAE@QB_WQBDQAVMemoryManager@1@@Z
        564  233 0016EEB0 ??0XMLUTF16Transcoder@xercesc_2_8@@QAE@QB_WI_NQAVMemoryManager@1@@Z
        565  234 0016E600 ??0XMLUTF8Transcoder@xercesc_2_8@@QAE@QB_WIQAVMemoryManager@1@@Z
        566  235 000F7F90 ??0XMLUri@xercesc_2_8@@QAE@ABV01@@Z
        567  236 000FB7E0 ??0XMLUri@xercesc_2_8@@QAE@QAVMemoryManager@1@@Z
        568  237 000F7EE0 ??0XMLUri@xercesc_2_8@@QAE@QBV01@QB_WQAVMemoryManager@1@@Z
        569  238 000F7E30 ??0XMLUri@xercesc_2_8@@QAE@QB_WQAVMemoryManager@1@@Z
        570  239 001158F0 ??0XMLValidator@xercesc_2_8@@IAE@QAVXMLErrorReporter@1@@Z
        571  23A 0016DB90 ??0XMLWin1252Transcoder@xercesc_2_8@@QAE@QB_WIQAVMemoryManager@1@@Z
        572  23B 000EDF60 ??0XMemory@xercesc_2_8@@IAE@XZ
        573  23C 00127E70 ??0XPathException@xercesc_2_8@@QAE@ABV01@@Z
        574  23D 00127F20 ??0XPathException@xercesc_2_8@@QAE@QBDIW4Codes@XMLExcepts@1@0000PAVMemoryManager@1@@Z
        575  23E 00127E00 ??0XPathException@xercesc_2_8@@QAE@QBDIW4Codes@XMLExcepts@1@PAVMemoryManager@1@@Z
        576  23F 00127E90 ??0XPathException@xercesc_2_8@@QAE@QBDIW4Codes@XMLExcepts@1@QB_W222PAVMemoryManager@1@@Z
        577  240 001179E0 ??0XPathMatcher@xercesc_2_8@@QAE@QAVXercesXPath@1@QAVIdentityConstraint@1@QAVMemoryManager@1@@Z
        578  241 00117940 ??0XPathMatcher@xercesc_2_8@@QAE@QAVXercesXPath@1@QAVMemoryManager@1@@Z
        579  242 0018B070 ??0XPathMatcherStack@xercesc_2_8@@QAE@QAVMemoryManager@1@@Z
        580  243 00129A50 ??0XPathScanner@xercesc_2_8@@QAE@QAVXMLStringPool@1@@Z
        581  244 0012A8E0 ??0XPathScannerForSchema@xercesc_2_8@@QAE@QAVXMLStringPool@1@@Z
        582  245 001BF200 ??0XSAXMLScanner@xercesc_2_8@@IAE@QAVGrammarResolver@1@QAVXMLStringPool@1@QAVSchemaGrammar@1@QAVMemoryManager@1@@Z
        583  246 0017EF90 ??0XSAnnotation@xercesc_2_8@@QAE@QAVMemoryManager@1@@Z
        584  247 0017EF00 ??0XSAnnotation@xercesc_2_8@@QAE@QB_WQAVMemoryManager@1@@Z
        585  248 001C1490 ??0XSAttributeDeclaration@xercesc_2_8@@QAE@QAVSchemaAttDef@1@QAVXSSimpleTypeDefinition@1@QAVXSAnnotation@1@QAVXSModel@1@W4SCOPE@XSConstants@1@PAVXSComplexTypeDefinition@1@QAVMemoryManager@1@@Z
        586  249 001C17F0 ??0XSAttributeGroupDefinition@xercesc_2_8@@QAE@QAVXercesAttGroupInfo@1@QAV?$RefVectorOf@VXSAttributeUse@xercesc_2_8@@@1@QAVXSWildcard@1@QAVXSAnnotation@1@QAVXSModel@1@QAVMemoryManager@1@@Z
        587  24A 001C15F0 ??0XSAttributeUse@xercesc_2_8@@QAE@QAVXSAttributeDeclaration@1@QAVXSModel@1@QAVMemoryManager@1@@Z
        588  24B 0015F3B0 ??0XSComplexTypeDefinition@xercesc_2_8@@QAE@QAVComplexTypeInfo@1@QAVXSWildcard@1@QAVXSSimpleTypeDefinition@1@QAV?$RefVectorOf@VXSAttributeUse@xercesc_2_8@@@1@QAVXSTypeDefinition@1@QAVXSParticle@1@QAVXSAnnotation@1@QAVXSModel@1@QAVMemoryManager@1@@Z
        589  24C 00194610 ??0XSDDOMParser@xercesc_2_8@@QAE@QAVXMLValidator@1@QAVMemoryManager@1@QAVXMLGrammarPool@1@@Z
        590  24D 001B8050 ??0XSDElementNSImpl@xercesc_2_8@@QAE@ABV01@_N@Z
        591  24E 001B8010 ??0XSDElementNSImpl@xercesc_2_8@@QAE@PAVDOMDocument@1@PB_W1JJ@Z
        592  24F 001B7FD0 ??0XSDElementNSImpl@xercesc_2_8@@QAE@PAVDOMDocument@1@PB_W@Z
        593  250 0016F2E0 ??0XSDErrorReporter@xercesc_2_8@@QAE@QAVXMLErrorReporter@1@@Z
        594  251 001BF160 ??0XSDLocator@xercesc_2_8@@QAE@XZ
        595  252 001646A0 ??0XSElementDeclaration@xercesc_2_8@@QAE@QAVSchemaElementDecl@1@QAVXSTypeDefinition@1@QAV01@QAVXSAnnotation@1@QAV?$XSNamedMap@VXSIDCDefinition@xercesc_2_8@@@1@QAVXSModel@1@W4SCOPE@XSConstants@1@QAVXSComplexTypeDefinition@1@QAVMemoryManager@1@@Z
        596  253 001C0F90 ??0XSFacet@xercesc_2_8@@QAE@W4FACET@XSSimpleTypeDefinition@1@QB_W_NQAVXSAnnotation@1@QAVXSModel@1@QAVMemoryManager@1@@Z
        597  254 001C0DB0 ??0XSIDCDefinition@xercesc_2_8@@QAE@QAVIdentityConstraint@1@QAV01@QAVXSAnnotation@1@QAV?$RefArrayVectorOf@_W@1@QAVXSModel@1@QAVMemoryManager@1@@Z
        598  255 0015A790 ??0XSModel@xercesc_2_8@@QAE@PAV01@PAVGrammarResolver@1@QAVMemoryManager@1@@Z
        599  256 0015A080 ??0XSModel@xercesc_2_8@@QAE@PAVXMLGrammarPool@1@QAVMemoryManager@1@@Z
        600  257 001C0A80 ??0XSModelGroup@xercesc_2_8@@QAE@W4COMPOSITOR_TYPE@01@QAV?$RefVectorOf@VXSParticle@xercesc_2_8@@@1@QAVXSAnnotation@1@QAVXSModel@1@QAVMemoryManager@1@@Z
        601  258 001C0C70 ??0XSModelGroupDefinition@xercesc_2_8@@QAE@QAVXercesGroupInfo@1@QAVXSParticle@1@QAVXSAnnotation@1@QAVXSModel@1@QAVMemoryManager@1@@Z
        602  259 001C02E0 ??0XSMultiValueFacet@xercesc_2_8@@QAE@W4FACET@XSSimpleTypeDefinition@1@PAV?$RefArrayVectorOf@_W@1@_NQAVXSAnnotation@1@QAVXSModel@1@QAVMemoryManager@1@@Z
        603  25A 001A8BD0 ??0XSNamespaceItem@xercesc_2_8@@QAE@QAVXSModel@1@QAVSchemaGrammar@1@QAVMemoryManager@1@@Z
        604  25B 001A8D80 ??0XSNamespaceItem@xercesc_2_8@@QAE@QAVXSModel@1@QB_WQAVMemoryManager@1@@Z
        605  25C 001C0B80 ??0XSNotationDeclaration@xercesc_2_8@@QAE@QAVXMLNotationDecl@1@QAVXSAnnotation@1@QAVXSModel@1@QAVMemoryManager@1@@Z
        606  25D 001A9210 ??0XSObject@xercesc_2_8@@QAE@W4COMPONENT_TYPE@XSConstants@1@QAVXSModel@1@QAVMemoryManager@1@@Z
        607  25E 001A9280 ??0XSObjectFactory@xercesc_2_8@@QAE@QAVMemoryManager@1@@Z
        608  25F 001C16B0 ??0XSParticle@xercesc_2_8@@QAE@W4TERM_TYPE@01@QAVXSModel@1@QAVXSObject@1@HHQAVMemoryManager@1@@Z
        609  260 001C1030 ??0XSSimpleTypeDefinition@xercesc_2_8@@QAE@QAVDatatypeValidator@1@W4VARIETY@01@QAVXSTypeDefinition@1@QAV01@QAV?$RefVectorOf@VXSSimpleTypeDefinition@xercesc_2_8@@@1@PAVXSAnnotation@1@QAVXSModel@1@QAVMemoryManager@1@@Z
        610  261 001ADD30 ??0XSTypeDefinition@xercesc_2_8@@QAE@W4TYPE_CATEGORY@01@QAV01@QAVXSModel@1@QAVMemoryManager@1@@Z
        611  262 0015D010 ??0XSValue@xercesc_2_8@@AAE@W4DataType@01@QAVMemoryManager@1@@Z
        612  263 001C04B0 ??0XSWildcard@xercesc_2_8@@QAE@QAVSchemaAttDef@1@QAVXSAnnotation@1@QAVXSModel@1@QAVMemoryManager@1@@Z
        613  264 001C0700 ??0XSWildcard@xercesc_2_8@@QAE@QBVContentSpecNode@1@QAVXSAnnotation@1@QAVXSModel@1@QAVMemoryManager@1@@Z
        614  265 000EDE30 ??0XSerializable@xercesc_2_8@@IAE@ABV01@@Z
        615  266 000F5010 ??0XSerializable@xercesc_2_8@@IAE@XZ
        616  267 000EDAA0 ??0XSerializationException@xercesc_2_8@@QAE@ABV01@@Z
        617  268 000EDB50 ??0XSerializationException@xercesc_2_8@@QAE@QBDIW4Codes@XMLExcepts@1@0000PAVMemoryManager@1@@Z
        618  269 000EDA30 ??0XSerializationException@xercesc_2_8@@QAE@QBDIW4Codes@XMLExcepts@1@PAVMemoryManager@1@@Z
        619  26A 000EDAC0 ??0XSerializationException@xercesc_2_8@@QAE@QBDIW4Codes@XMLExcepts@1@QB_W222PAVMemoryManager@1@@Z
        620  26B 00100560 ??0XSerializeEngine@xercesc_2_8@@QAE@PAVBinInputStream@1@QAVMemoryManager@1@K@Z
        621  26C 00100340 ??0XSerializeEngine@xercesc_2_8@@QAE@PAVBinInputStream@1@QAVXMLGrammarPool@1@K@Z
        622  26D 00100650 ??0XSerializeEngine@xercesc_2_8@@QAE@PAVBinOutputStream@1@QAVMemoryManager@1@K@Z
        623  26E 00100440 ??0XSerializeEngine@xercesc_2_8@@QAE@PAVBinOutputStream@1@QAVXMLGrammarPool@1@K@Z
        624  26F 000EDF60 ??0XUtil@xercesc_2_8@@AAE@XZ
        625  270 00134FE0 ??0XercesAttGroupInfo@xercesc_2_8@@QAE@IIQAVMemoryManager@1@@Z
        626  271 00134FB0 ??0XercesAttGroupInfo@xercesc_2_8@@QAE@QAVMemoryManager@1@@Z
        627  272 000F7730 ??0XercesDOMParser@xercesc_2_8@@QAE@QAVXMLValidator@1@QAVMemoryManager@1@QAVXMLGrammarPool@1@@Z
        628  273 00133F90 ??0XercesGroupInfo@xercesc_2_8@@QAE@IIQAVMemoryManager@1@@Z
        629  274 00133EB0 ??0XercesGroupInfo@xercesc_2_8@@QAE@QAVMemoryManager@1@@Z
        630  275 001286A0 ??0XercesLocationPath@xercesc_2_8@@QAE@QAV?$RefVectorOf@VXercesStep@xercesc_2_8@@@1@@Z
        631  276 00128840 ??0XercesLocationPath@xercesc_2_8@@QAE@QAVMemoryManager@1@@Z
        632  277 00128250 ??0XercesNodeTest@xercesc_2_8@@QAE@ABV01@@Z
        633  278 00128070 ??0XercesNodeTest@xercesc_2_8@@QAE@FQAVMemoryManager@1@@Z
        634  279 00128390 ??0XercesNodeTest@xercesc_2_8@@QAE@QAVMemoryManager@1@@Z
        635  27A 00128110 ??0XercesNodeTest@xercesc_2_8@@QAE@QBVQName@1@@Z
        636  27B 001281A0 ??0XercesNodeTest@xercesc_2_8@@QAE@QB_WIQAVMemoryManager@1@@Z
        637  27C 00128490 ??0XercesStep@xercesc_2_8@@QAE@ABV01@@Z
        638  27D 00128470 ??0XercesStep@xercesc_2_8@@QAE@GQAVXercesNodeTest@1@@Z
        639  27E 00128680 ??0XercesStep@xercesc_2_8@@QAE@QAVMemoryManager@1@@Z
        640  27F 00129A30 ??0XercesXPath@xercesc_2_8@@QAE@QAVMemoryManager@1@@Z
        641  280 00128860 ??0XercesXPath@xercesc_2_8@@QAE@QB_WQAVXMLStringPool@1@QAVNamespaceScope@1@I_NQAVMemoryManager@1@@Z
        642  281 001753E0 ??0YearDatatypeValidator@xercesc_2_8@@QAE@QAVDatatypeValidator@1@QAV?$RefHashTableOf@VKVStringPair@xercesc_2_8@@@1@QAV?$RefArrayVectorOf@_W@1@HQAVMemoryManager@1@@Z
        643  282 00175360 ??0YearDatatypeValidator@xercesc_2_8@@QAE@QAVMemoryManager@1@@Z
        644  283 001749E0 ??0YearMonthDatatypeValidator@xercesc_2_8@@QAE@QAVDatatypeValidator@1@QAV?$RefHashTableOf@VKVStringPair@xercesc_2_8@@@1@QAV?$RefArrayVectorOf@_W@1@HQAVMemoryManager@1@@Z
        645  284 00174960 ??0YearMonthDatatypeValidator@xercesc_2_8@@QAE@QAVMemoryManager@1@@Z
        646  285 001BD790 ??1?$XMLHolder@U_RTL_CRITICAL_SECTION@@@xercesc_2_8@@QAE@XZ
        647  286 001BE830 ??1ASCIIRangeFactory@xercesc_2_8@@UAE@XZ
        648  287 00120C50 ??1AbstractDOMParser@xercesc_2_8@@UAE@XZ
        649  288 0017D600 ??1AbstractNumericFacetValidator@xercesc_2_8@@UAE@XZ
        650  289 00174180 ??1AbstractNumericValidator@xercesc_2_8@@UAE@XZ
        651  28A 0017F580 ??1AbstractStringValidator@xercesc_2_8@@UAE@XZ
        652  28B 001780A0 ??1AnySimpleTypeDatatypeValidator@xercesc_2_8@@UAE@XZ
        653  28C 00174CD0 ??1AnyURIDatatypeValidator@xercesc_2_8@@UAE@XZ
        654  28D 00103200 ??1ArrayIndexOutOfBoundsException@xercesc_2_8@@UAE@XZ
        655  28E 000F01A0 ??1AttributeList@xercesc_2_8@@UAE@XZ
        656  28F 00164A40 ??1Attributes@xercesc_2_8@@UAE@XZ
        657  290 00113F30 ??1BMPattern@xercesc_2_8@@QAE@XZ
        658  291 0017A5A0 ??1Base64BinaryDatatypeValidator@xercesc_2_8@@UAE@XZ
        659  292 000FE850 ??1BinFileInputStream@xercesc_2_8@@UAE@XZ
        660  293 0016D8B0 ??1BinHTTPURLInputStream@xercesc_2_8@@UAE@XZ
        661  294 00123B40 ??1BinInputStream@xercesc_2_8@@UAE@XZ
        662  295 001423E0 ??1BinMemInputStream@xercesc_2_8@@UAE@XZ
        663  296 001BE830 ??1BlockRangeFactory@xercesc_2_8@@UAE@XZ
        664  297 0012AB40 ??1BooleanDatatypeValidator@xercesc_2_8@@UAE@XZ
        665  298 000F05A0 ??1CharOp@xercesc_2_8@@UAE@XZ
        666  299 0013BC70 ??1CharToken@xercesc_2_8@@UAE@XZ
        667  29A 000F05A0 ??1ChildOp@xercesc_2_8@@UAE@XZ
        668  29B 0013BC70 ??1ClosureToken@xercesc_2_8@@UAE@XZ
        669  29C 0011C6F0 ??1ComplexTypeInfo@xercesc_2_8@@UAE@XZ
        670  29D 0013BC70 ??1ConcatToken@xercesc_2_8@@UAE@XZ
        671  29E 000F05A0 ??1ConditionOp@xercesc_2_8@@UAE@XZ
        672  29F 0013BC70 ??1ConditionToken@xercesc_2_8@@UAE@XZ
        673  2A0 001BB9E0 ??1ContentHandler@xercesc_2_8@@UAE@XZ
        674  2A1 001159A0 ??1ContentLeafNameTypeVector@xercesc_2_8@@QAE@XZ
        675  2A2 001038B0 ??1ContentSpecNode@xercesc_2_8@@UAE@XZ
        676  2A3 0010AB70 ??1Context@RegularExpression@xercesc_2_8@@QAE@XZ
        677  2A4 001426C0 ??1DGXMLScanner@xercesc_2_8@@UAE@XZ
        678  2A5 00120A70 ??1DOMAttr@xercesc_2_8@@UAE@XZ
        679  2A6 001B8C50 ??1DOMAttrImpl@xercesc_2_8@@UAE@XZ
        680  2A7 00120930 ??1DOMAttrMapImpl@xercesc_2_8@@UAE@XZ
        681  2A8 001B8C50 ??1DOMAttrNSImpl@xercesc_2_8@@UAE@XZ
        682  2A9 00164940 ??1DOMBuilder@xercesc_2_8@@UAE@XZ
        683  2AA 001B5A90 ??1DOMBuilderImpl@xercesc_2_8@@UAE@XZ
        684  2AB 00120A70 ??1DOMCDATASection@xercesc_2_8@@UAE@XZ
        685  2AC 001B8C50 ??1DOMCDATASectionImpl@xercesc_2_8@@UAE@XZ
        686  2AD 00120A70 ??1DOMCharacterData@xercesc_2_8@@UAE@XZ
        687  2AE 001BD790 ??1DOMCharacterDataImpl@xercesc_2_8@@QAE@XZ
        688  2AF 001BD790 ??1DOMChildNode@xercesc_2_8@@QAE@XZ
        689  2B0 00120A70 ??1DOMComment@xercesc_2_8@@UAE@XZ
        690  2B1 00120A70 ??1DOMCommentImpl@xercesc_2_8@@UAE@XZ
        691  2B2 001B81B0 ??1DOMConfiguration@xercesc_2_8@@UAE@XZ
        692  2B3 001B81B0 ??1DOMConfigurationImpl@xercesc_2_8@@UAE@XZ
        693  2B4 0016BD70 ??1DOMDeepNodeListImpl@xercesc_2_8@@UAE@XZ
        694  2B5 000F70E0 ??1DOMDocument@xercesc_2_8@@UAE@XZ
        695  2B6 00120A70 ??1DOMDocumentFragment@xercesc_2_8@@UAE@XZ
        696  2B7 001B8C50 ??1DOMDocumentFragmentImpl@xercesc_2_8@@UAE@XZ
        697  2B8 00166DD0 ??1DOMDocumentImpl@xercesc_2_8@@UAE@XZ
        698  2B9 0015FCA0 ??1DOMDocumentRange@xercesc_2_8@@UAE@XZ
        699  2BA 000F7030 ??1DOMDocumentTraversal@xercesc_2_8@@UAE@XZ
        700  2BB 00120A70 ??1DOMDocumentType@xercesc_2_8@@UAE@XZ
        701  2BC 001B8C50 ??1DOMDocumentTypeImpl@xercesc_2_8@@UAE@XZ
        702  2BD 00120A70 ??1DOMElement@xercesc_2_8@@UAE@XZ
        703  2BE 001B8C50 ??1DOMElementImpl@xercesc_2_8@@UAE@XZ
        704  2BF 001B8C50 ??1DOMElementNSImpl@xercesc_2_8@@UAE@XZ
        705  2C0 00120A70 ??1DOMEntity@xercesc_2_8@@UAE@XZ
        706  2C1 001B8C50 ??1DOMEntityImpl@xercesc_2_8@@UAE@XZ
        707  2C2 00120A70 ??1DOMEntityReference@xercesc_2_8@@UAE@XZ
        708  2C3 001B8C50 ??1DOMEntityReferenceImpl@xercesc_2_8@@UAE@XZ
        709  2C4 0015FCA0 ??1DOMEntityResolver@xercesc_2_8@@UAE@XZ
        710  2C5 000EBE70 ??1DOMError@xercesc_2_8@@UAE@XZ
        711  2C6 0015FCA0 ??1DOMErrorHandler@xercesc_2_8@@UAE@XZ
        712  2C7 001BB060 ??1DOMErrorImpl@xercesc_2_8@@UAE@XZ
        713  2C8 001C19A0 ??1DOMException@xercesc_2_8@@UAE@XZ
        714  2C9 000F5020 ??1DOMImplementation@xercesc_2_8@@UAE@XZ
        715  2CA 000F5020 ??1DOMImplementationLS@xercesc_2_8@@UAE@XZ
        716  2CB 000EBF40 ??1DOMImplementationSource@xercesc_2_8@@UAE@XZ
        717  2CC 00164A40 ??1DOMInputSource@xercesc_2_8@@UAE@XZ
        718  2CD 001C2950 ??1DOMLocator@xercesc_2_8@@UAE@XZ
        719  2CE 001C2950 ??1DOMLocatorImpl@xercesc_2_8@@UAE@XZ
        720  2CF 00120930 ??1DOMNamedNodeMap@xercesc_2_8@@UAE@XZ
        721  2D0 00120930 ??1DOMNamedNodeMapImpl@xercesc_2_8@@UAE@XZ
        722  2D1 00120A70 ??1DOMNode@xercesc_2_8@@UAE@XZ
        723  2D2 0015FCA0 ??1DOMNodeFilter@xercesc_2_8@@UAE@XZ
        724  2D3 001BD790 ??1DOMNodeImpl@xercesc_2_8@@QAE@XZ
        725  2D4 00120930 ??1DOMNodeIterator@xercesc_2_8@@UAE@XZ
        726  2D5 001AE100 ??1DOMNodeIteratorImpl@xercesc_2_8@@UAE@XZ
        727  2D6 000F7030 ??1DOMNodeList@xercesc_2_8@@UAE@XZ
        728  2D7 0016BD70 ??1DOMNodeListImpl@xercesc_2_8@@UAE@XZ
        729  2D8 00120A70 ??1DOMNotation@xercesc_2_8@@UAE@XZ
        730  2D9 00120A70 ??1DOMNotationImpl@xercesc_2_8@@UAE@XZ
        731  2DA 000F7030 ??1DOMPSVITypeInfo@xercesc_2_8@@UAE@XZ
        732  2DB 00120470 ??1DOMParentNode@xercesc_2_8@@QAE@XZ
        733  2DC 00120A70 ??1DOMProcessingInstruction@xercesc_2_8@@UAE@XZ
        734  2DD 00120A70 ??1DOMProcessingInstructionImpl@xercesc_2_8@@UAE@XZ
        735  2DE 001AE680 ??1DOMRange@xercesc_2_8@@UAE@XZ
        736  2DF 001C19A0 ??1DOMRangeException@xercesc_2_8@@UAE@XZ
        737  2E0 001AE680 ??1DOMRangeImpl@xercesc_2_8@@UAE@XZ
        738  2E1 00120A70 ??1DOMText@xercesc_2_8@@UAE@XZ
        739  2E2 00120A70 ??1DOMTextImpl@xercesc_2_8@@UAE@XZ
        740  2E3 001648C0 ??1DOMTreeWalker@xercesc_2_8@@UAE@XZ
        741  2E4 001648C0 ??1DOMTreeWalkerImpl@xercesc_2_8@@UAE@XZ
        742  2E5 000F7030 ??1DOMTypeInfo@xercesc_2_8@@UAE@XZ
        743  2E6 00120890 ??1DOMTypeInfoImpl@xercesc_2_8@@UAE@XZ
        744  2E7 0015FCA0 ??1DOMUserDataHandler@xercesc_2_8@@UAE@XZ
        745  2E8 001648C0 ??1DOMWriter@xercesc_2_8@@UAE@XZ
        746  2E9 0015FCA0 ??1DOMWriterFilter@xercesc_2_8@@UAE@XZ
        747  2EA 001B3120 ??1DOMWriterImpl@xercesc_2_8@@UAE@XZ
        748  2EB 000F5020 ??1DOMXPathEvaluator@xercesc_2_8@@UAE@XZ
        749  2EC 0015FCA0 ??1DOMXPathExpression@xercesc_2_8@@UAE@XZ
        750  2ED 000F7030 ??1DOMXPathNSResolver@xercesc_2_8@@UAE@XZ
        751  2EE 00120A70 ??1DOMXPathNamespace@xercesc_2_8@@UAE@XZ
        752  2EF 000F4FA0 ??1DOMXPathResult@xercesc_2_8@@UAE@XZ
        753  2F0 0011AF80 ??1DTDAttDef@xercesc_2_8@@UAE@XZ
        754  2F1 00141FB0 ??1DTDAttDefList@xercesc_2_8@@UAE@XZ
        755  2F2 00115E00 ??1DTDElementDecl@xercesc_2_8@@UAE@XZ
        756  2F3 000F1F40 ??1DTDEntityDecl@xercesc_2_8@@UAE@XZ
        757  2F4 00157D20 ??1DTDGrammar@xercesc_2_8@@UAE@XZ
        758  2F5 000F5020 ??1DTDHandler@xercesc_2_8@@UAE@XZ
        759  2F6 00185AA0 ??1DTDScanner@xercesc_2_8@@UAE@XZ
        760  2F7 000F4CB0 ??1DTDValidator@xercesc_2_8@@UAE@XZ
        761  2F8 0012B380 ??1DatatypeValidator@xercesc_2_8@@UAE@XZ
        762  2F9 0012C6D0 ??1DatatypeValidatorFactory@xercesc_2_8@@UAE@XZ
        763  2FA 00173C70 ??1DateDatatypeValidator@xercesc_2_8@@UAE@XZ
        764  2FB 00173C70 ??1DateTimeDatatypeValidator@xercesc_2_8@@UAE@XZ
        765  2FC 00173C70 ??1DateTimeValidator@xercesc_2_8@@UAE@XZ
        766  2FD 00173C70 ??1DayDatatypeValidator@xercesc_2_8@@UAE@XZ
        767  2FE 00174180 ??1DecimalDatatypeValidator@xercesc_2_8@@UAE@XZ
        768  2FF 001BBA60 ??1DeclHandler@xercesc_2_8@@UAE@XZ
        769  300 000EBF40 ??1DefaultPanicHandler@xercesc_2_8@@UAE@XZ
        770  301 000F1FC0 ??1DocTypeHandler@xercesc_2_8@@UAE@XZ
        771  302 000F4FA0 ??1DocumentHandler@xercesc_2_8@@UAE@XZ
        772  303 00174180 ??1DoubleDatatypeValidator@xercesc_2_8@@UAE@XZ
        773  304 00173C70 ??1DurationDatatypeValidator@xercesc_2_8@@UAE@XZ
        774  305 001343E0 ??1ENTITYDatatypeValidator@xercesc_2_8@@UAE@XZ
        775  306 0010E0A0 ??1ElemStack@xercesc_2_8@@QAE@XZ
        776  307 00103200 ??1EmptyStackException@xercesc_2_8@@UAE@XZ
        777  308 0016DF80 ??1EncodingValidator@xercesc_2_8@@AAE@XZ
        778  309 001BD790 ??1EndOfEntityException@xercesc_2_8@@QAE@XZ
        779  30A 0015FCA0 ??1EntityResolver@xercesc_2_8@@UAE@XZ
        780  30B 0011C180 ??1ErrorHandler@xercesc_2_8@@UAE@XZ
        781  30C 001BEAC0 ??1FieldActivator@xercesc_2_8@@QAE@XZ
        782  30D 000F3D20 ??1FieldMatcher@xercesc_2_8@@UAE@XZ
        783  30E 0013CEB0 ??1FieldValueMap@xercesc_2_8@@QAE@XZ
        784  30F 00174180 ??1FloatDatatypeValidator@xercesc_2_8@@UAE@XZ
        785  310 0016F790 ??1GeneralAttributeCheck@xercesc_2_8@@QAE@XZ
        786  311 000F5020 ??1Grammar@xercesc_2_8@@UAE@XZ
        787  312 0011E4D0 ??1GrammarResolver@xercesc_2_8@@QAE@XZ
        788  313 001256A0 ??1HashBase@xercesc_2_8@@UAE@XZ
        789  314 001256A0 ??1HashCMStateSet@xercesc_2_8@@UAE@XZ
        790  315 001256A0 ??1HashPtr@xercesc_2_8@@UAE@XZ
        791  316 001256A0 ??1HashXMLCh@xercesc_2_8@@UAE@XZ
        792  317 00173EC0 ??1HexBinaryDatatypeValidator@xercesc_2_8@@UAE@XZ
        793  318 00111110 ??1IC_Field@xercesc_2_8@@UAE@XZ
        794  319 00182D20 ??1IC_Key@xercesc_2_8@@UAE@XZ
        795  31A 00182FB0 ??1IC_KeyRef@xercesc_2_8@@UAE@XZ
        796  31B 00182B30 ??1IC_Selector@xercesc_2_8@@UAE@XZ
        797  31C 00182E60 ??1IC_Unique@xercesc_2_8@@UAE@XZ
        798  31D 001343E0 ??1IDDatatypeValidator@xercesc_2_8@@UAE@XZ
        799  31E 001343E0 ??1IDREFDatatypeValidator@xercesc_2_8@@UAE@XZ
        800  31F 00147490 ??1IGXMLScanner@xercesc_2_8@@UAE@XZ
        801  320 00103200 ??1IOException@xercesc_2_8@@UAE@XZ
        802  321 0013D200 ??1IdentityConstraint@xercesc_2_8@@UAE@XZ
        803  322 00193400 ??1IdentityConstraintHandler@xercesc_2_8@@UAE@XZ
        804  323 00103200 ??1IllegalArgumentException@xercesc_2_8@@UAE@XZ
        805  324 00125190 ??1InMemMsgLoader@xercesc_2_8@@UAE@XZ
        806  325 00135D20 ??1InputSource@xercesc_2_8@@UAE@XZ
        807  326 00103200 ??1InvalidDatatypeFacetException@xercesc_2_8@@UAE@XZ
        808  327 00103200 ??1InvalidDatatypeValueException@xercesc_2_8@@UAE@XZ
        809  328 0011B350 ??1KVStringPair@xercesc_2_8@@UAE@XZ
        810  329 000F01A0 ??1LexicalHandler@xercesc_2_8@@UAE@XZ
        811  32A 00178B90 ??1ListDatatypeValidator@xercesc_2_8@@UAE@XZ
        812  32B 00135D20 ??1LocalFileInputSource@xercesc_2_8@@UAE@XZ
        813  32C 0011C180 ??1Locator@xercesc_2_8@@UAE@XZ
        814  32D 00103200 ??1MalformedURLException@xercesc_2_8@@UAE@XZ
        815  32E 0013A610 ??1Match@xercesc_2_8@@UAE@XZ
        816  32F 001C2750 ??1MemBufFormatTarget@xercesc_2_8@@UAE@XZ
        817  330 001BE710 ??1MemBufInputSource@xercesc_2_8@@UAE@XZ
        818  331 000EC280 ??1MemoryManager@xercesc_2_8@@UAE@XZ
        819  332 000EC280 ??1MemoryManagerArrayImpl@xercesc_2_8@@UAE@XZ
        820  333 000EC280 ??1MemoryManagerImpl@xercesc_2_8@@UAE@XZ
        821  334 000F05A0 ??1ModifierOp@xercesc_2_8@@UAE@XZ
        822  335 0013BC70 ??1ModifierToken@xercesc_2_8@@UAE@XZ
        823  336 00173C70 ??1MonthDatatypeValidator@xercesc_2_8@@UAE@XZ
        824  337 00173C70 ??1MonthDayDatatypeValidator@xercesc_2_8@@UAE@XZ
        825  338 001343E0 ??1NCNameDatatypeValidator@xercesc_2_8@@UAE@XZ
        826  339 00178680 ??1NOTATIONDatatypeValidator@xercesc_2_8@@UAE@XZ
        827  33A 001343E0 ??1NameDatatypeValidator@xercesc_2_8@@UAE@XZ
        828  33B 00172550 ??1NamespaceScope@xercesc_2_8@@QAE@XZ
        829  33C 00103200 ??1NetAccessorException@xercesc_2_8@@UAE@XZ
        830  33D 00103200 ??1NoSuchElementException@xercesc_2_8@@UAE@XZ
        831  33E 00103200 ??1NullPointerException@xercesc_2_8@@UAE@XZ
        832  33F 00103200 ??1NumberFormatException@xercesc_2_8@@UAE@XZ
        833  340 000F05A0 ??1Op@xercesc_2_8@@UAE@XZ
        834  341 00114B90 ??1OpFactory@xercesc_2_8@@QAE@XZ
        835  342 001BD790 ??1OutOfMemoryException@xercesc_2_8@@QAE@XZ
        836  343 000F7330 ??1PSVIAttribute@xercesc_2_8@@UAE@XZ
        837  344 000F73B0 ??1PSVIAttributeList@xercesc_2_8@@QAE@XZ
        838  345 0011FCC0 ??1PSVIElement@xercesc_2_8@@UAE@XZ
        839  346 000F7530 ??1PSVIHandler@xercesc_2_8@@UAE@XZ
        840  347 000F7230 ??1PSVIItem@xercesc_2_8@@UAE@XZ
        841  348 000EBF40 ??1PanicHandler@xercesc_2_8@@UAE@XZ
        842  349 0013BC70 ??1ParenToken@xercesc_2_8@@UAE@XZ
        843  34A 00103200 ??1ParseException@xercesc_2_8@@UAE@XZ
        844  34B 000F01A0 ??1Parser@xercesc_2_8@@UAE@XZ
        845  34C 001367A0 ??1ParserForXMLSchema@xercesc_2_8@@UAE@XZ
        846  34D 00113450 ??1QName@xercesc_2_8@@UAE@XZ
        847  34E 00172A00 ??1QNameDatatypeValidator@xercesc_2_8@@UAE@XZ
        848  34F 001BE830 ??1RangeFactory@xercesc_2_8@@UAE@XZ
        849  350 000F05A0 ??1RangeOp@xercesc_2_8@@UAE@XZ
        850  351 00139810 ??1RangeToken@xercesc_2_8@@UAE@XZ
        851  352 001BD790 ??1RangeTokenElemMap@xercesc_2_8@@QAE@XZ
        852  353 0013C390 ??1RangeTokenMap@xercesc_2_8@@IAE@XZ
        853  354 00118B50 ??1ReaderMgr@xercesc_2_8@@UAE@XZ
        854  355 0010B0B0 ??1RegularExpression@xercesc_2_8@@QAE@XZ
        855  356 001367A0 ??1RegxParser@xercesc_2_8@@UAE@XZ
        856  357 001BD790 ??1RegxUtil@xercesc_2_8@@QAE@XZ
        857  358 00103200 ??1RuntimeException@xercesc_2_8@@UAE@XZ
        858  359 0017EE40 ??1SAX2XMLReader@xercesc_2_8@@UAE@XZ
        859  35A 001BBDB0 ??1SAX2XMLReaderImpl@xercesc_2_8@@UAE@XZ
        860  35B 000F5200 ??1SAXException@xercesc_2_8@@UAE@XZ
        861  35C 000F5200 ??1SAXNotRecognizedException@xercesc_2_8@@UAE@XZ
        862  35D 000F5200 ??1SAXNotSupportedException@xercesc_2_8@@UAE@XZ
        863  35E 0011BDB0 ??1SAXParseException@xercesc_2_8@@UAE@XZ
        864  35F 000F53B0 ??1SAXParser@xercesc_2_8@@UAE@XZ
        865  360 001502D0 ??1SGXMLScanner@xercesc_2_8@@UAE@XZ
        866  361 0010F570 ??1SchemaAttDef@xercesc_2_8@@UAE@XZ
        867  362 0013E7B0 ??1SchemaAttDefList@xercesc_2_8@@UAE@XZ
        868  363 00103200 ??1SchemaDateTimeException@xercesc_2_8@@UAE@XZ
        869  364 00114210 ??1SchemaElementDecl@xercesc_2_8@@UAE@XZ
        870  365 001348A0 ??1SchemaGrammar@xercesc_2_8@@UAE@XZ
        871  366 00193C10 ??1SchemaInfo@xercesc_2_8@@QAE@XZ
        872  367 0018B360 ??1SchemaValidator@xercesc_2_8@@UAE@XZ
        873  368 000F1950 ??1SecurityManager@xercesc_2_8@@UAE@XZ
        874  369 0013D060 ??1SelectorMatcher@xercesc_2_8@@UAE@XZ
        875  36A 001343E0 ??1StringDatatypeValidator@xercesc_2_8@@UAE@XZ
        876  36B 000F0730 ??1StringOp@xercesc_2_8@@UAE@XZ
        877  36C 0013BAC0 ??1StringToken@xercesc_2_8@@UAE@XZ
        878  36D 001BD790 ??1SubstitutionGroupComparator@xercesc_2_8@@QAE@XZ
        879  36E 000F2E20 ??1ThrowEOEJanitor@xercesc_2_8@@QAE@XZ
        880  36F 00173C70 ??1TimeDatatypeValidator@xercesc_2_8@@UAE@XZ
        881  370 0013BC70 ??1Token@xercesc_2_8@@UAE@XZ
        882  371 00114B90 ??1TokenFactory@xercesc_2_8@@QAE@XZ
        883  372 00103200 ??1TranscodingException@xercesc_2_8@@UAE@XZ
        884  373 00195E60 ??1TraverseSchema@xercesc_2_8@@QAE@XZ
        885  374 001366C0 ??1URLInputSource@xercesc_2_8@@UAE@XZ
        886  375 00103200 ??1UTFDataFormatException@xercesc_2_8@@UAE@XZ
        887  376 00103200 ??1UnexpectedEOFException@xercesc_2_8@@UAE@XZ
        888  377 001BE830 ??1UnicodeRangeFactory@xercesc_2_8@@UAE@XZ
        889  378 00104850 ??1UnionDatatypeValidator@xercesc_2_8@@UAE@XZ
        890  379 000F0610 ??1UnionOp@xercesc_2_8@@UAE@XZ
        891  37A 0013BD10 ??1UnionToken@xercesc_2_8@@UAE@XZ
        892  37B 000F13C0 ??1ValidationContext@xercesc_2_8@@UAE@XZ
        893  37C 00135820 ??1ValidationContextImpl@xercesc_2_8@@UAE@XZ
        894  37D 0013D6A0 ??1ValueStore@xercesc_2_8@@QAE@XZ
        895  37E 00183180 ??1ValueStoreCache@xercesc_2_8@@QAE@XZ
        896  37F 0011DEE0 ??1VecAttrListImpl@xercesc_2_8@@UAE@XZ
        897  380 001C2C10 ??1VecAttributesImpl@xercesc_2_8@@UAE@XZ
        898  381 0010EAB0 ??1WFElemStack@xercesc_2_8@@QAE@XZ
        899  382 0014C250 ??1WFXMLScanner@xercesc_2_8@@UAE@XZ
        900  383 001249E0 ??1Win32LCPTranscoder@xercesc_2_8@@UAE@XZ
        901  384 001243C0 ??1Win32TransService@xercesc_2_8@@UAE@XZ
        902  385 0016E550 ??1Win32Transcoder@xercesc_2_8@@UAE@XZ
        903  386 00124F60 ??1WinSockNetAccessor@xercesc_2_8@@UAE@XZ
        904  387 001C2A60 ??1Wrapper4DOMInputSource@xercesc_2_8@@UAE@XZ
        905  388 0016E550 ??1XML256TableTranscoder@xercesc_2_8@@UAE@XZ
        906  389 0016E550 ??1XML88591Transcoder@xercesc_2_8@@UAE@XZ
        907  38A 0016E550 ??1XMLASCIITranscoder@xercesc_2_8@@UAE@XZ
        908  38B 00175DD0 ??1XMLAbstractDoubleFloat@xercesc_2_8@@UAE@XZ
        909  38C 001187A0 ??1XMLAttDef@xercesc_2_8@@UAE@XZ
        910  38D 000F5020 ??1XMLAttDefList@xercesc_2_8@@UAE@XZ
        911  38E 000F15C0 ??1XMLAttr@xercesc_2_8@@QAE@XZ
        912  38F 001AD1A0 ??1XMLBigDecimal@xercesc_2_8@@UAE@XZ
        913  390 001AC960 ??1XMLBigInteger@xercesc_2_8@@QAE@XZ
        914  391 000ECC10 ??1XMLBuffer@xercesc_2_8@@QAE@XZ
        915  392 000EBF40 ??1XMLBufferFullHandler@xercesc_2_8@@UAE@XZ
        916  393 0011BF00 ??1XMLBufferMgr@xercesc_2_8@@QAE@XZ
        917  394 001BD790 ??1XMLCanRepGroup@xercesc_2_8@@QAE@XZ
        918  395 0016E550 ??1XMLChTranscoder@xercesc_2_8@@UAE@XZ
        919  396 000F1B10 ??1XMLContentModel@xercesc_2_8@@UAE@XZ
        920  397 000F5020 ??1XMLDTDDescription@xercesc_2_8@@UAE@XZ
        921  398 00159420 ??1XMLDTDDescriptionImpl@xercesc_2_8@@UAE@XZ
        922  399 0017B1B0 ??1XMLDateTime@xercesc_2_8@@UAE@XZ
        923  39A 000EC260 ??1XMLDeleter@xercesc_2_8@@UAE@XZ
        924  39B 000F1730 ??1XMLDocumentHandler@xercesc_2_8@@UAE@XZ
        925  39C 00175000 ??1XMLDouble@xercesc_2_8@@UAE@XZ
        926  39D 0016E550 ??1XMLEBCDICTranscoder@xercesc_2_8@@UAE@XZ
        927  39E 00102BF0 ??1XMLElementDecl@xercesc_2_8@@UAE@XZ
        928  39F 001176B0 ??1XMLEntityDecl@xercesc_2_8@@UAE@XZ
        929  3A0 000F18C0 ??1XMLEntityHandler@xercesc_2_8@@UAE@XZ
        930  3A1 0015FCA0 ??1XMLEntityResolver@xercesc_2_8@@UAE@XZ
        931  3A2 000EC280 ??1XMLErrorReporter@xercesc_2_8@@UAE@XZ
        932  3A3 00103200 ??1XMLException@xercesc_2_8@@UAE@XZ
        933  3A4 00173790 ??1XMLFloat@xercesc_2_8@@UAE@XZ
        934  3A5 00164B90 ??1XMLFormatTarget@xercesc_2_8@@UAE@XZ
        935  3A6 001C1FA0 ??1XMLFormatter@xercesc_2_8@@QAE@XZ
        936  3A7 000F5020 ??1XMLGrammarDescription@xercesc_2_8@@UAE@XZ
        937  3A8 000F4520 ??1XMLGrammarPool@xercesc_2_8@@UAE@XZ
        938  3A9 00159710 ??1XMLGrammarPoolImpl@xercesc_2_8@@UAE@XZ
        939  3AA 0016E550 ??1XMLIBM1047Transcoder@xercesc_2_8@@UAE@XZ
        940  3AB 0016E550 ??1XMLIBM1140Transcoder@xercesc_2_8@@UAE@XZ
        941  3AC 001BD790 ??1XMLInteger@xercesc_2_8@@QAE@XZ
        942  3AD 001249E0 ??1XMLLCPTranscoder@xercesc_2_8@@UAE@XZ
        943  3AE 000FE9A0 ??1XMLMsgLoader@xercesc_2_8@@UAE@XZ
        944  3AF 0011DA40 ??1XMLMutex@xercesc_2_8@@QAE@XZ
        945  3B0 0011DAB0 ??1XMLMutexLock@xercesc_2_8@@QAE@XZ
        946  3B1 000ED760 ??1XMLNetAccessor@xercesc_2_8@@UAE@XZ
        947  3B2 0011DC30 ??1XMLNotationDecl@xercesc_2_8@@UAE@XZ
        948  3B3 000F5020 ??1XMLNumber@xercesc_2_8@@UAE@XZ
        949  3B4 001BD790 ??1XMLPScanToken@xercesc_2_8@@QAE@XZ
        950  3B5 00103200 ??1XMLPlatformUtilsException@xercesc_2_8@@UAE@XZ
        951  3B6 001BE830 ??1XMLRangeFactory@xercesc_2_8@@UAE@XZ
        952  3B7 00111BA0 ??1XMLReader@xercesc_2_8@@QAE@XZ
        953  3B8 000F2200 ??1XMLRefInfo@xercesc_2_8@@UAE@XZ
        954  3B9 001BD790 ??1XMLResourceIdentifier@xercesc_2_8@@QAE@XZ
        955  3BA 001068F0 ??1XMLScanner@xercesc_2_8@@UAE@XZ
        956  3BB 000F5020 ??1XMLSchemaDescription@xercesc_2_8@@UAE@XZ
        957  3BC 00158FC0 ??1XMLSchemaDescriptionImpl@xercesc_2_8@@UAE@XZ
        958  3BD 00116A40 ??1XMLStringPool@xercesc_2_8@@UAE@XZ
        959  3BE 00194480 ??1XMLStringTokenizer@xercesc_2_8@@QAE@XZ
        960  3BF 001A8960 ??1XMLSynchronizedStringPool@xercesc_2_8@@UAE@XZ
        961  3C0 00125C60 ??1XMLTransService@xercesc_2_8@@UAE@XZ
        962  3C1 0016E550 ??1XMLTranscoder@xercesc_2_8@@UAE@XZ
        963  3C2 0016E550 ??1XMLUCS4Transcoder@xercesc_2_8@@UAE@XZ
        964  3C3 000EEAF0 ??1XMLURL@xercesc_2_8@@UAE@XZ
        965  3C4 0016E550 ??1XMLUTF16Transcoder@xercesc_2_8@@UAE@XZ
        966  3C5 0016E550 ??1XMLUTF8Transcoder@xercesc_2_8@@UAE@XZ
        967  3C6 001BD790 ??1XMLUniCharacter@xercesc_2_8@@QAE@XZ
        968  3C7 000F80C0 ??1XMLUri@xercesc_2_8@@UAE@XZ
        969  3C8 000F4CB0 ??1XMLValidator@xercesc_2_8@@UAE@XZ
        970  3C9 0016E550 ??1XMLWin1252Transcoder@xercesc_2_8@@UAE@XZ
        971  3CA 00103200 ??1XPathException@xercesc_2_8@@UAE@XZ
        972  3CB 00117A80 ??1XPathMatcher@xercesc_2_8@@UAE@XZ
        973  3CC 0018B140 ??1XPathMatcherStack@xercesc_2_8@@QAE@XZ
        974  3CD 00104670 ??1XPathScanner@xercesc_2_8@@UAE@XZ
        975  3CE 00104670 ??1XPathScannerForSchema@xercesc_2_8@@UAE@XZ
        976  3CF 001BF280 ??1XSAXMLScanner@xercesc_2_8@@UAE@XZ
        977  3D0 0017F000 ??1XSAnnotation@xercesc_2_8@@UAE@XZ
        978  3D1 001C0BB0 ??1XSAttributeDeclaration@xercesc_2_8@@UAE@XZ
        979  3D2 001C1830 ??1XSAttributeGroupDefinition@xercesc_2_8@@UAE@XZ
        980  3D3 001C0BB0 ??1XSAttributeUse@xercesc_2_8@@UAE@XZ
        981  3D4 0015F520 ??1XSComplexTypeDefinition@xercesc_2_8@@UAE@XZ
        982  3D5 001947C0 ??1XSDDOMParser@xercesc_2_8@@UAE@XZ
        983  3D6 001B8C50 ??1XSDElementNSImpl@xercesc_2_8@@UAE@XZ
        984  3D7 00146E90 ??1XSDErrorReporter@xercesc_2_8@@UAE@XZ
        985  3D8 0011C180 ??1XSDLocator@xercesc_2_8@@UAE@XZ
        986  3D9 00164750 ??1XSElementDeclaration@xercesc_2_8@@UAE@XZ
        987  3DA 001C0BB0 ??1XSFacet@xercesc_2_8@@UAE@XZ
        988  3DB 001C0EC0 ??1XSIDCDefinition@xercesc_2_8@@UAE@XZ
        989  3DC 0015B300 ??1XSModel@xercesc_2_8@@QAE@XZ
        990  3DD 001C0AC0 ??1XSModelGroup@xercesc_2_8@@UAE@XZ
        991  3DE 001C0CB0 ??1XSModelGroupDefinition@xercesc_2_8@@UAE@XZ
        992  3DF 001C03F0 ??1XSMultiValueFacet@xercesc_2_8@@UAE@XZ
        993  3E0 001A8F30 ??1XSNamespaceItem@xercesc_2_8@@QAE@XZ
        994  3E1 001C0BB0 ??1XSNotationDeclaration@xercesc_2_8@@UAE@XZ
        995  3E2 001C0BB0 ??1XSObject@xercesc_2_8@@UAE@XZ
        996  3E3 001A9390 ??1XSObjectFactory@xercesc_2_8@@QAE@XZ
        997  3E4 001C16F0 ??1XSParticle@xercesc_2_8@@UAE@XZ
        998  3E5 001C11B0 ??1XSSimpleTypeDefinition@xercesc_2_8@@UAE@XZ
        999  3E6 001C0BB0 ??1XSTypeDefinition@xercesc_2_8@@UAE@XZ
       1000  3E7 0015D030 ??1XSValue@xercesc_2_8@@QAE@XZ
       1001  3E8 001C0950 ??1XSWildcard@xercesc_2_8@@UAE@XZ
       1002  3E9 000F5020 ??1XSerializable@xercesc_2_8@@UAE@XZ
       1003  3EA 00103200 ??1XSerializationException@xercesc_2_8@@UAE@XZ
       1004  3EB 001002C0 ??1XSerializeEngine@xercesc_2_8@@QAE@XZ
       1005  3EC 001BD790 ??1XUtil@xercesc_2_8@@AAE@XZ
       1006  3ED 00135010 ??1XercesAttGroupInfo@xercesc_2_8@@UAE@XZ
       1007  3EE 000F7780 ??1XercesDOMParser@xercesc_2_8@@UAE@XZ
       1008  3EF 00134080 ??1XercesGroupInfo@xercesc_2_8@@UAE@XZ
       1009  3F0 00104580 ??1XercesLocationPath@xercesc_2_8@@UAE@XZ
       1010  3F1 001043B0 ??1XercesNodeTest@xercesc_2_8@@UAE@XZ
       1011  3F2 001044A0 ??1XercesStep@xercesc_2_8@@UAE@XZ
       1012  3F3 00128920 ??1XercesXPath@xercesc_2_8@@UAE@XZ
       1013  3F4 00173C70 ??1YearDatatypeValidator@xercesc_2_8@@UAE@XZ
       1014  3F5 00173C70 ??1YearMonthDatatypeValidator@xercesc_2_8@@UAE@XZ
       1015  3F6 00101FF0 ??2XMemory@xercesc_2_8@@SAPAXI@Z
       1016  3F7 00102020 ??2XMemory@xercesc_2_8@@SAPAXIPAVMemoryManager@1@@Z
       1017  3F8 00102040 ??2XMemory@xercesc_2_8@@SAPAXIPAX@Z
       1018  3F9 00101FF0 ??2XMemory@xercesc_2_8@@SAPAXIPBDH@Z
       1019  3FA 001BD790 ??3XMemory@xercesc_2_8@@SAXPAX0@Z
       1020  3FB 00102050 ??3XMemory@xercesc_2_8@@SAXPAX@Z
       1021  3FC 00102050 ??3XMemory@xercesc_2_8@@SAXPAXPAVMemoryManager@1@@Z
       1022  3FD 00102050 ??3XMemory@xercesc_2_8@@SAXPAXPBDH@Z
       1023  3FE 000ED990 ??4ArrayIndexOutOfBoundsException@xercesc_2_8@@QAEAAV01@ABV01@@Z
       1024  3FF 0013F490 ??4Base64@xercesc_2_8@@QAEAAV01@ABV01@@Z
       1025  400 0010AA50 ??4Context@RegularExpression@xercesc_2_8@@QAEAAV012@ABV012@@Z
       1026  401 0013F490 ??4DOMImplementationRegistry@xercesc_2_8@@QAEAAV01@ABV01@@Z
       1027  402 00120750 ??4DOMNodeImpl@xercesc_2_8@@QAEAAV01@ABV01@@Z
       1028  403 001AE0C0 ??4DOMNodeIteratorImpl@xercesc_2_8@@QAEAAV01@ABV01@@Z
       1029  404 001B7A30 ??4DOMTreeWalkerImpl@xercesc_2_8@@QAEAAV01@ABV01@@Z
       1030  405 000ED990 ??4EmptyStackException@xercesc_2_8@@QAEAAV01@ABV01@@Z
       1031  406 00125AA0 ??4EncodingValidator@xercesc_2_8@@QAEAAV01@ABV01@@Z
       1032  407 00105E20 ??4FieldActivator@xercesc_2_8@@QAEAAV01@ABV01@@Z
       1033  408 000ED990 ??4IOException@xercesc_2_8@@QAEAAV01@ABV01@@Z
       1034  409 000ED990 ??4IllegalArgumentException@xercesc_2_8@@QAEAAV01@ABV01@@Z
       1035  40A 000ED990 ??4InvalidDatatypeFacetException@xercesc_2_8@@QAEAAV01@ABV01@@Z
       1036  40B 000ED990 ??4InvalidDatatypeValueException@xercesc_2_8@@QAEAAV01@ABV01@@Z
       1037  40C 000ED990 ??4MalformedURLException@xercesc_2_8@@QAEAAV01@ABV01@@Z
       1038  40D 0013A5F0 ??4Match@xercesc_2_8@@QAEAAV01@ABV01@@Z
       1039  40E 000ED990 ??4NetAccessorException@xercesc_2_8@@QAEAAV01@ABV01@@Z
       1040  40F 000ED990 ??4NoSuchElementException@xercesc_2_8@@QAEAAV01@ABV01@@Z
       1041  410 000ED990 ??4NullPointerException@xercesc_2_8@@QAEAAV01@ABV01@@Z
       1042  411 000ED990 ??4NumberFormatException@xercesc_2_8@@QAEAAV01@ABV01@@Z
       1043  412 0013F490 ??4OutOfMemoryException@xercesc_2_8@@QAEAAV01@ABV01@@Z
       1044  413 0013F490 ??4PSVIDefs@xercesc_2_8@@QAEAAV01@ABV01@@Z
       1045  414 000ED990 ??4ParseException@xercesc_2_8@@QAEAAV01@ABV01@@Z
       1046  415 0013F490 ??4RegxUtil@xercesc_2_8@@QAEAAV01@ABV01@@Z
       1047  416 000ED990 ??4RuntimeException@xercesc_2_8@@QAEAAV01@ABV01@@Z
       1048  417 000F50F0 ??4SAXException@xercesc_2_8@@QAEAAV01@ABV01@@Z
       1049  418 000F50F0 ??4SAXNotRecognizedException@xercesc_2_8@@QAEAAV01@ABV01@@Z
       1050  419 000F50F0 ??4SAXNotSupportedException@xercesc_2_8@@QAEAAV01@ABV01@@Z
       1051  41A 0011BE30 ??4SAXParseException@xercesc_2_8@@QAEAAV01@ABV01@@Z
       1052  41B 000ED990 ??4SchemaDateTimeException@xercesc_2_8@@QAEAAV01@ABV01@@Z
       1053  41C 0013F490 ??4SchemaSymbols@xercesc_2_8@@QAEAAV01@ABV01@@Z
       1054  41D 000ED990 ??4TranscodingException@xercesc_2_8@@QAEAAV01@ABV01@@Z
       1055  41E 000ED990 ??4UTFDataFormatException@xercesc_2_8@@QAEAAV01@ABV01@@Z
       1056  41F 000ED990 ??4UnexpectedEOFException@xercesc_2_8@@QAEAAV01@ABV01@@Z
       1057  420 0013F490 ??4XMLBufferFullHandler@xercesc_2_8@@QAEAAV01@ABV01@@Z
       1058  421 0013F490 ??4XMLChar1_0@xercesc_2_8@@QAEAAV01@ABV01@@Z
       1059  422 0013F490 ??4XMLChar1_1@xercesc_2_8@@QAEAAV01@ABV01@@Z
       1060  423 0017B360 ??4XMLDateTime@xercesc_2_8@@QAEAAV01@ABV01@@Z
       1061  424 000FECF0 ??4XMLException@xercesc_2_8@@QAEAAV01@ABV01@@Z
       1062  425 000ED710 ??4XMLNetHTTPInfo@xercesc_2_8@@QAEAAV01@ABV01@@Z
       1063  426 00105E20 ??4XMLPScanToken@xercesc_2_8@@QAEAAV01@ABV01@@Z
       1064  427 0013F490 ??4XMLPlatformUtils@xercesc_2_8@@QAEAAV01@ABV01@@Z
       1065  428 000ED990 ??4XMLPlatformUtilsException@xercesc_2_8@@QAEAAV01@ABV01@@Z
       1066  429 0013F490 ??4XMLScannerResolver@xercesc_2_8@@QAEAAV01@ABV01@@Z
       1067  42A 0013F490 ??4XMLString@xercesc_2_8@@QAEAAV01@ABV01@@Z
       1068  42B 000EEB00 ??4XMLURL@xercesc_2_8@@QAEAAV01@ABV01@@Z
       1069  42C 0013F490 ??4XMLUni@xercesc_2_8@@QAEAAV01@ABV01@@Z
       1070  42D 0013F490 ??4XMLUniCharacter@xercesc_2_8@@QAEAAV01@ABV01@@Z
       1071  42E 000F8040 ??4XMLUri@xercesc_2_8@@QAEAAV01@ABV01@@Z
       1072  42F 0013F490 ??4XMemory@xercesc_2_8@@QAEAAV01@ABV01@@Z
       1073  430 000ED990 ??4XPathException@xercesc_2_8@@QAEAAV01@ABV01@@Z
       1074  431 0013F490 ??4XPathSymbols@xercesc_2_8@@QAEAAV01@ABV01@@Z
       1075  432 00120750 ??4XProtoType@xercesc_2_8@@QAEAAV01@ABV01@@Z
       1076  433 0013F490 ??4XSConstants@xercesc_2_8@@QAEAAV01@ABV01@@Z
       1077  434 000ED990 ??4XSerializationException@xercesc_2_8@@QAEAAV01@ABV01@@Z
       1078  435 0013F490 ??4XUtil@xercesc_2_8@@QAEAAV01@ABV01@@Z
       1079  436 0013F490 ??4XercesElementWildcard@xercesc_2_8@@QAEAAV01@ABV01@@Z
       1080  437 001283B0 ??4XercesNodeTest@xercesc_2_8@@QAEAAV01@ABV01@@Z
       1081  438 00128530 ??4XercesStep@xercesc_2_8@@QAEAAV01@ABV01@@Z
       1082  439 00100FD0 ??5XSerializeEngine@xercesc_2_8@@QAEAAV01@AAD@Z
       1083  43A 00100EF0 ??5XSerializeEngine@xercesc_2_8@@QAEAAV01@AAE@Z
       1084  43B 00100EA0 ??5XSerializeEngine@xercesc_2_8@@QAEAAV01@AAF@Z
       1085  43C 00101080 ??5XSerializeEngine@xercesc_2_8@@QAEAAV01@AAH@Z
       1086  43D 00101080 ??5XSerializeEngine@xercesc_2_8@@QAEAAV01@AAI@Z
       1087  43E 00101080 ??5XSerializeEngine@xercesc_2_8@@QAEAAV01@AAJ@Z
       1088  43F 00101080 ??5XSerializeEngine@xercesc_2_8@@QAEAAV01@AAK@Z
       1089  440 00101120 ??5XSerializeEngine@xercesc_2_8@@QAEAAV01@AAM@Z
       1090  441 001011C0 ??5XSerializeEngine@xercesc_2_8@@QAEAAV01@AAN@Z
       1091  442 00100F60 ??5XSerializeEngine@xercesc_2_8@@QAEAAV01@AA_N@Z
       1092  443 00100EA0 ??5XSerializeEngine@xercesc_2_8@@QAEAAV01@AA_W@Z
       1093  444 001C22B0 ??6XMLFormatter@xercesc_2_8@@QAEAAV01@QB_W@Z
       1094  445 001403F0 ??6XMLFormatter@xercesc_2_8@@QAEAAV01@W4EscapeFlags@01@@Z
       1095  446 00164C20 ??6XMLFormatter@xercesc_2_8@@QAEAAV01@W4UnRepFlags@01@@Z
       1096  447 001C2300 ??6XMLFormatter@xercesc_2_8@@QAEAAV01@_W@Z
       1097  448 00100F80 ??6XSerializeEngine@xercesc_2_8@@QAEAAV01@D@Z
       1098  449 00100F80 ??6XSerializeEngine@xercesc_2_8@@QAEAAV01@E@Z
       1099  44A 00100FE0 ??6XSerializeEngine@xercesc_2_8@@QAEAAV01@F@Z
       1100  44B 00101030 ??6XSerializeEngine@xercesc_2_8@@QAEAAV01@H@Z
       1101  44C 00101030 ??6XSerializeEngine@xercesc_2_8@@QAEAAV01@I@Z
       1102  44D 00101030 ??6XSerializeEngine@xercesc_2_8@@QAEAAV01@J@Z
       1103  44E 00101030 ??6XSerializeEngine@xercesc_2_8@@QAEAAV01@K@Z
       1104  44F 001010D0 ??6XSerializeEngine@xercesc_2_8@@QAEAAV01@M@Z
       1105  450 00101170 ??6XSerializeEngine@xercesc_2_8@@QAEAAV01@N@Z
       1106  451 00100F40 ??6XSerializeEngine@xercesc_2_8@@QAEAAV01@_N@Z
       1107  452 00100FE0 ??6XSerializeEngine@xercesc_2_8@@QAEAAV01@_W@Z
       1108  453 00111170 ??8IC_Field@xercesc_2_8@@QBE_NABV01@@Z
       1109  454 00111170 ??8IC_Selector@xercesc_2_8@@QBE_NABV01@@Z
       1110  455 0013D290 ??8IdentityConstraint@xercesc_2_8@@QBE_NABV01@@Z
       1111  456 001139A0 ??8QName@xercesc_2_8@@QBE_NABV01@@Z
       1112  457 0015C710 ??8XMLBigInteger@xercesc_2_8@@QBE_NABV01@@Z
       1113  458 000EEBB0 ??8XMLURL@xercesc_2_8@@QBE_NABV01@@Z
       1114  459 001286C0 ??8XercesLocationPath@xercesc_2_8@@QBE_NABV01@@Z
       1115  45A 001283F0 ??8XercesNodeTest@xercesc_2_8@@QBE_NABV01@@Z
       1116  45B 00128560 ??8XercesStep@xercesc_2_8@@QBE_NABV01@@Z
       1117  45C 00128990 ??8XercesXPath@xercesc_2_8@@QBE_NABV01@@Z
       1118  45D 00182B90 ??9IC_Field@xercesc_2_8@@QBE_NABV01@@Z
       1119  45E 00182B90 ??9IC_Selector@xercesc_2_8@@QBE_NABV01@@Z
       1120  45F 0013D3A0 ??9IdentityConstraint@xercesc_2_8@@QBE_NABV01@@Z
       1121  460 000ED470 ??9XMLURL@xercesc_2_8@@QBE_NABV01@@Z
       1122  461 001287B0 ??9XercesLocationPath@xercesc_2_8@@QBE_NABV01@@Z
       1123  462 00128420 ??9XercesNodeTest@xercesc_2_8@@QBE_NABV01@@Z
       1124  463 001285B0 ??9XercesStep@xercesc_2_8@@QBE_NABV01@@Z
       1125  464 00128A50 ??9XercesXPath@xercesc_2_8@@QBE_NABV01@@Z
       1126  465 005A4CC4 ??_7ASCIIRangeFactory@xercesc_2_8@@6B@
       1127  466 005A1060 ??_7AbstractDOMParser@xercesc_2_8@@6BDocTypeHandler@1@@
       1128  467 005A10A4 ??_7AbstractDOMParser@xercesc_2_8@@6BPSVIHandler@1@@
       1129  468 005A0FF8 ??_7AbstractDOMParser@xercesc_2_8@@6BXMLDocumentHandler@1@@
       1130  469 005A1044 ??_7AbstractDOMParser@xercesc_2_8@@6BXMLEntityHandler@1@@
       1131  46A 005A1038 ??_7AbstractDOMParser@xercesc_2_8@@6BXMLErrorReporter@1@@
       1132  46B 005A4A78 ??_7AbstractNumericFacetValidator@xercesc_2_8@@6B@
       1133  46C 005A5B90 ??_7AbstractNumericValidator@xercesc_2_8@@6B@
       1134  46D 005A4C48 ??_7AbstractStringValidator@xercesc_2_8@@6B@
       1135  46E 005A456C ??_7AnySimpleTypeDatatypeValidator@xercesc_2_8@@6B@
       1136  46F 005A3FA8 ??_7AnyURIDatatypeValidator@xercesc_2_8@@6B@
       1137  470 0059F0C0 ??_7ArrayIndexOutOfBoundsException@xercesc_2_8@@6B@
       1138  471 0059F37C ??_7AttributeList@xercesc_2_8@@6B@
       1139  472 005A2D4C ??_7Attributes@xercesc_2_8@@6B@
       1140  473 005A4948 ??_7Base64BinaryDatatypeValidator@xercesc_2_8@@6B@
       1141  474 0059FD2C ??_7BinFileInputStream@xercesc_2_8@@6B@
       1142  475 005A3630 ??_7BinHTTPURLInputStream@xercesc_2_8@@6B@
       1143  476 005A1174 ??_7BinInputStream@xercesc_2_8@@6B@
       1144  477 005A2228 ??_7BinMemInputStream@xercesc_2_8@@6B@
       1145  478 005A4CB8 ??_7BlockRangeFactory@xercesc_2_8@@6B@
       1146  479 005A1598 ??_7BooleanDatatypeValidator@xercesc_2_8@@6B@
       1147  47A 0059F414 ??_7CharOp@xercesc_2_8@@6B@
       1148  47B 005A1C10 ??_7CharToken@xercesc_2_8@@6B@
       1149  47C 0059F474 ??_7ChildOp@xercesc_2_8@@6B@
       1150  47D 005A1D68 ??_7ClosureToken@xercesc_2_8@@6B@
       1151  47E 005A09DC ??_7ComplexTypeInfo@xercesc_2_8@@6B@
       1152  47F 005A1C58 ??_7ConcatToken@xercesc_2_8@@6B@
       1153  480 0059F534 ??_7ConditionOp@xercesc_2_8@@6B@
       1154  481 005A1DB0 ??_7ConditionToken@xercesc_2_8@@6B@
       1155  482 005A5CB4 ??_7ContentHandler@xercesc_2_8@@6B@
       1156  483 005A0144 ??_7ContentSpecNode@xercesc_2_8@@6B@
       1157  484 005A2270 ??_7DGXMLScanner@xercesc_2_8@@6B@
       1158  485 005A0DB0 ??_7DOMAttr@xercesc_2_8@@6B@
       1159  486 005A2BC8 ??_7DOMAttrImpl@xercesc_2_8@@6B@
       1160  487 005A5328 ??_7DOMAttrMapImpl@xercesc_2_8@@6B@
       1161  488 005A5550 ??_7DOMAttrNSImpl@xercesc_2_8@@6B@
       1162  489 005A2CD8 ??_7DOMBuilder@xercesc_2_8@@6B@
       1163  48A 005A54D8 ??_7DOMBuilderImpl@xercesc_2_8@@6B@
       1164  48B 005A5480 ??_7DOMBuilderImpl@xercesc_2_8@@6BDocTypeHandler@1@@
       1165  48C 005A54C4 ??_7DOMBuilderImpl@xercesc_2_8@@6BPSVIHandler@1@@
       1166  48D 005A5418 ??_7DOMBuilderImpl@xercesc_2_8@@6BXMLDocumentHandler@1@@
       1167  48E 005A5464 ??_7DOMBuilderImpl@xercesc_2_8@@6BXMLEntityHandler@1@@
       1168  48F 005A5458 ??_7DOMBuilderImpl@xercesc_2_8@@6BXMLErrorReporter@1@@
       1169  490 005A0C38 ??_7DOMCDATASection@xercesc_2_8@@6B@
       1170  491 005A5790 ??_7DOMCDATASectionImpl@xercesc_2_8@@6B@
       1171  492 005A10B8 ??_7DOMCharacterData@xercesc_2_8@@6B@
       1172  493 005A10B8 ??_7DOMComment@xercesc_2_8@@6B@
       1173  494 005A5948 ??_7DOMCommentImpl@xercesc_2_8@@6B@
       1174  495 005A2DE8 ??_7DOMConfiguration@xercesc_2_8@@6B@
       1175  496 005A5760 ??_7DOMConfigurationImpl@xercesc_2_8@@6B@
       1176  497 005A5860 ??_7DOMDeepNodeListImpl@xercesc_2_8@@6B@
       1177  498 0059F8E8 ??_7DOMDocument@xercesc_2_8@@6BDOMDocumentRange@1@@
       1178  499 0059F998 ??_7DOMDocument@xercesc_2_8@@6BDOMDocumentTraversal@1@@
       1179  49A 0059F9A8 ??_7DOMDocument@xercesc_2_8@@6BDOMNode@1@@
       1180  49B 0059F988 ??_7DOMDocument@xercesc_2_8@@6BDOMXPathEvaluator@1@@
       1181  49C 005A2DF8 ??_7DOMDocumentFragment@xercesc_2_8@@6B@
       1182  49D 005A5898 ??_7DOMDocumentFragmentImpl@xercesc_2_8@@6B@
       1183  49E 005A3140 ??_7DOMDocumentImpl@xercesc_2_8@@6BDOMDocumentRange@1@@
       1184  49F 005A3214 ??_7DOMDocumentImpl@xercesc_2_8@@6BDOMDocumentTraversal@1@@
       1185  4A0 005A3220 ??_7DOMDocumentImpl@xercesc_2_8@@6BDOMNode@1@@
       1186  4A1 005A3204 ??_7DOMDocumentImpl@xercesc_2_8@@6BDOMXPathEvaluator@1@@
       1187  4A2 005A2828 ??_7DOMDocumentRange@xercesc_2_8@@6B@
       1188  4A3 0059FA44 ??_7DOMDocumentTraversal@xercesc_2_8@@6B@
       1189  4A4 0059FA50 ??_7DOMDocumentType@xercesc_2_8@@6B@
       1190  4A5 005A3318 ??_7DOMDocumentTypeImpl@xercesc_2_8@@6B@
       1191  4A6 005A0B48 ??_7DOMElement@xercesc_2_8@@6B@
       1192  4A7 005A2F50 ??_7DOMElementImpl@xercesc_2_8@@6B@
       1193  4A8 005A2A10 ??_7DOMElementNSImpl@xercesc_2_8@@6B@
       1194  4A9 005A0E68 ??_7DOMEntity@xercesc_2_8@@6B@
       1195  4AA 005A2918 ??_7DOMEntityImpl@xercesc_2_8@@6B@
       1196  4AB 005A2DF8 ??_7DOMEntityReference@xercesc_2_8@@6B@
       1197  4AC 005A2720 ??_7DOMEntityReferenceImpl@xercesc_2_8@@6B@
       1198  4AD 005A2828 ??_7DOMEntityResolver@xercesc_2_8@@6B@
       1199  4AE 0059F038 ??_7DOMError@xercesc_2_8@@6B@
       1200  4AF 005A2828 ??_7DOMErrorHandler@xercesc_2_8@@6B@
       1201  4B0 005A5A30 ??_7DOMErrorImpl@xercesc_2_8@@6B@
       1202  4B1 005A5298 ??_7DOMException@xercesc_2_8@@6B@
       1203  4B2 005A0F28 ??_7DOMImplementation@xercesc_2_8@@6B@
       1204  4B3 0059F344 ??_7DOMImplementationLS@xercesc_2_8@@6B@
       1205  4B4 0059F06C ??_7DOMImplementationSource@xercesc_2_8@@6B@
       1206  4B5 005A2D4C ??_7DOMInputSource@xercesc_2_8@@6B@
       1207  4B6 005A2CA8 ??_7DOMLocator@xercesc_2_8@@6B@
       1208  4B7 005A6054 ??_7DOMLocatorImpl@xercesc_2_8@@6B@
       1209  4B8 005A0B20 ??_7DOMNamedNodeMap@xercesc_2_8@@6B@
       1210  4B9 005A5A04 ??_7DOMNamedNodeMapImpl@xercesc_2_8@@6B@
       1211  4BA 005A2DF8 ??_7DOMNode@xercesc_2_8@@6B@
       1212  4BB 005A2828 ??_7DOMNodeFilter@xercesc_2_8@@6B@
       1213  4BC 005A0B20 ??_7DOMNodeIterator@xercesc_2_8@@6B@
       1214  4BD 005A529C ??_7DOMNodeIteratorImpl@xercesc_2_8@@6B@
       1215  4BE 0059FA44 ??_7DOMNodeList@xercesc_2_8@@6B@
       1216  4BF 005A33E4 ??_7DOMNodeListImpl@xercesc_2_8@@6B@
       1217  4C0 005A0F50 ??_7DOMNotation@xercesc_2_8@@6B@
       1218  4C1 005A3430 ??_7DOMNotationImpl@xercesc_2_8@@6B@
       1219  4C2 0059FA44 ??_7DOMPSVITypeInfo@xercesc_2_8@@6B@
       1220  4C3 005A0D08 ??_7DOMProcessingInstruction@xercesc_2_8@@6B@
       1221  4C4 005A2B18 ??_7DOMProcessingInstructionImpl@xercesc_2_8@@6B@
       1222  4C5 005A27C0 ??_7DOMRange@xercesc_2_8@@6B@
       1223  4C6 005A600C ??_7DOMRangeException@xercesc_2_8@@6B@
       1224  4C7 005A52C0 ??_7DOMRangeImpl@xercesc_2_8@@6B@
       1225  4C8 005A0C38 ??_7DOMText@xercesc_2_8@@6B@
       1226  4C9 005A2840 ??_7DOMTextImpl@xercesc_2_8@@6B@
       1227  4CA 005A2DAC ??_7DOMTreeWalker@xercesc_2_8@@6B@
       1228  4CB 005A561C ??_7DOMTreeWalkerImpl@xercesc_2_8@@6B@
       1229  4CC 0059FA44 ??_7DOMTypeInfo@xercesc_2_8@@6B@
       1230  4CD 005A2A04 ??_7DOMTypeInfoImpl@xercesc_2_8@@6BDOMPSVITypeInfo@1@@
       1231  4CE 005A29F0 ??_7DOMTypeInfoImpl@xercesc_2_8@@6BDOMTypeInfo@1@@
       1232  4CF 005A2828 ??_7DOMUserDataHandler@xercesc_2_8@@6B@
       1233  4D0 005A2DAC ??_7DOMWriter@xercesc_2_8@@6B@
       1234  4D1 005A2E94 ??_7DOMWriterFilter@xercesc_2_8@@6B@
       1235  4D2 005A5370 ??_7DOMWriterImpl@xercesc_2_8@@6B@
       1236  4D3 0059F344 ??_7DOMXPathEvaluator@xercesc_2_8@@6B@
       1237  4D4 005A2828 ??_7DOMXPathExpression@xercesc_2_8@@6B@
       1238  4D5 0059FA44 ??_7DOMXPathNSResolver@xercesc_2_8@@6B@
       1239  4D6 005A2EB0 ??_7DOMXPathNamespace@xercesc_2_8@@6B@
       1240  4D7 0059F354 ??_7DOMXPathResult@xercesc_2_8@@6B@
       1241  4D8 005A089C ??_7DTDAttDef@xercesc_2_8@@6B@
       1242  4D9 005A21EC ??_7DTDAttDefList@xercesc_2_8@@6B@
       1243  4DA 005A05A0 ??_7DTDElementDecl@xercesc_2_8@@6B@
       1244  4DB 0059F574 ??_7DTDEntityDecl@xercesc_2_8@@6B@
       1245  4DC 005A24F0 ??_7DTDGrammar@xercesc_2_8@@6B@
       1246  4DD 0059F344 ??_7DTDHandler@xercesc_2_8@@6B@
       1247  4DE 005A4FE4 ??_7DTDScanner@xercesc_2_8@@6B@
       1248  4DF 005A4F6C ??_7DTDValidator@xercesc_2_8@@6B@
       1249  4E0 005A156C ??_7DatatypeValidator@xercesc_2_8@@6B@
       1250  4E1 005A1600 ??_7DatatypeValidatorFactory@xercesc_2_8@@6B@
       1251  4E2 005A4490 ??_7DateDatatypeValidator@xercesc_2_8@@6B@
       1252  4E3 005A3A18 ??_7DateTimeDatatypeValidator@xercesc_2_8@@6B@
       1253  4E4 005A5AC0 ??_7DateTimeValidator@xercesc_2_8@@6B@
       1254  4E5 005A4210 ??_7DayDatatypeValidator@xercesc_2_8@@6B@
       1255  4E6 005A4420 ??_7DecimalDatatypeValidator@xercesc_2_8@@6B@
       1256  4E7 005A5CE4 ??_7DeclHandler@xercesc_2_8@@6B@
       1257  4E8 0059FEF4 ??_7DefaultPanicHandler@xercesc_2_8@@6B@
       1258  4E9 0059F6B0 ??_7DocTypeHandler@xercesc_2_8@@6B@
       1259  4EA 0059F354 ??_7DocumentHandler@xercesc_2_8@@6B@
       1260  4EB 005A3E60 ??_7DoubleDatatypeValidator@xercesc_2_8@@6B@
       1261  4EC 005A4050 ??_7DurationDatatypeValidator@xercesc_2_8@@6B@
       1262  4ED 005A41A0 ??_7ENTITYDatatypeValidator@xercesc_2_8@@6B@
       1263  4EE 0059F828 ??_7EmptyStackException@xercesc_2_8@@6B@
       1264  4EF 005A2828 ??_7EntityResolver@xercesc_2_8@@6B@
       1265  4F0 0059F834 ??_7ErrorHandler@xercesc_2_8@@6B@
       1266  4F1 0059F870 ??_7FieldMatcher@xercesc_2_8@@6B@
       1267  4F2 005A4878 ??_7FloatDatatypeValidator@xercesc_2_8@@6B@
       1268  4F3 0059F6F8 ??_7Grammar@xercesc_2_8@@6B@
       1269  4F4 0059F09C ??_7HashBase@xercesc_2_8@@6B@
       1270  4F5 005A2194 ??_7HashCMStateSet@xercesc_2_8@@6B@
       1271  4F6 005A1310 ??_7HashPtr@xercesc_2_8@@6B@
       1272  4F7 005A0A40 ??_7HashXMLCh@xercesc_2_8@@6B@
       1273  4F8 005A3DA0 ??_7HexBinaryDatatypeValidator@xercesc_2_8@@6B@
       1274  4F9 005A0418 ??_7IC_Field@xercesc_2_8@@6B@
       1275  4FA 005A4CF4 ??_7IC_Key@xercesc_2_8@@6B@
       1276  4FB 005A4D34 ??_7IC_KeyRef@xercesc_2_8@@6B@
       1277  4FC 005A4CDC ??_7IC_Selector@xercesc_2_8@@6B@
       1278  4FD 005A4D14 ??_7IC_Unique@xercesc_2_8@@6B@
       1279  4FE 005A16C0 ??_7IDDatatypeValidator@xercesc_2_8@@6B@
       1280  4FF 005A3B68 ??_7IDREFDatatypeValidator@xercesc_2_8@@6B@
       1281  500 005A22F0 ??_7IGXMLScanner@xercesc_2_8@@6B@
       1282  501 0059F888 ??_7IOException@xercesc_2_8@@6B@
       1283  502 005A1E0C ??_7IdentityConstraint@xercesc_2_8@@6B@
       1284  503 005A5098 ??_7IdentityConstraintHandler@xercesc_2_8@@6B@
       1285  504 0059F0A8 ??_7IllegalArgumentException@xercesc_2_8@@6B@
       1286  505 005A12C8 ??_7InMemMsgLoader@xercesc_2_8@@6B@
       1287  506 005A18E0 ??_7InputSource@xercesc_2_8@@6B@
       1288  507 005A012C ??_7InvalidDatatypeFacetException@xercesc_2_8@@6B@
       1289  508 005A0138 ??_7InvalidDatatypeValueException@xercesc_2_8@@6B@
       1290  509 005A08CC ??_7KVStringPair@xercesc_2_8@@6B@
       1291  50A 0059F37C ??_7LexicalHandler@xercesc_2_8@@6B@
       1292  50B 005A4738 ??_7ListDatatypeValidator@xercesc_2_8@@6B@
       1293  50C 005A1908 ??_7LocalFileInputSource@xercesc_2_8@@6B@
       1294  50D 0059F834 ??_7Locator@xercesc_2_8@@6B@
       1295  50E 0059F0DC ??_7MalformedURLException@xercesc_2_8@@6B@
       1296  50F 005A1AC0 ??_7Match@xercesc_2_8@@6B@
       1297  510 005A6048 ??_7MemBufFormatTarget@xercesc_2_8@@6B@
       1298  511 005A5E5C ??_7MemBufInputSource@xercesc_2_8@@6B@
       1299  512 0059F02C ??_7MemoryManager@xercesc_2_8@@6B@
       1300  513 0059FEFC ??_7MemoryManagerArrayImpl@xercesc_2_8@@6B@
       1301  514 0059FEFC ??_7MemoryManagerImpl@xercesc_2_8@@6B@
       1302  515 0059F4A4 ??_7ModifierOp@xercesc_2_8@@6B@
       1303  516 005A1D20 ??_7ModifierToken@xercesc_2_8@@6B@
       1304  517 005A3A98 ??_7MonthDatatypeValidator@xercesc_2_8@@6B@
       1305  518 005A3CD0 ??_7MonthDayDatatypeValidator@xercesc_2_8@@6B@
       1306  519 005A3C58 ??_7NCNameDatatypeValidator@xercesc_2_8@@6B@
       1307  51A 005A4678 ??_7NOTATIONDatatypeValidator@xercesc_2_8@@6B@
       1308  51B 005A42E0 ??_7NameDatatypeValidator@xercesc_2_8@@6B@
       1309  51C 0059F0E8 ??_7NetAccessorException@xercesc_2_8@@6B@
       1310  51D 0059F0B4 ??_7NoSuchElementException@xercesc_2_8@@6B@
       1311  51E 0059F0CC ??_7NullPointerException@xercesc_2_8@@6B@
       1312  51F 0059FD08 ??_7NumberFormatException@xercesc_2_8@@6B@
       1313  520 0059F3E4 ??_7Op@xercesc_2_8@@6B@
       1314  521 0059FB14 ??_7PSVIAttribute@xercesc_2_8@@6B@
       1315  522 005A0AC8 ??_7PSVIElement@xercesc_2_8@@6B@
       1316  523 0059F8D4 ??_7PSVIHandler@xercesc_2_8@@6B@
       1317  524 0059FB04 ??_7PSVIItem@xercesc_2_8@@6B@
       1318  525 0059F06C ??_7PanicHandler@xercesc_2_8@@6B@
       1319  526 005A1BC8 ??_7ParenToken@xercesc_2_8@@6B@
       1320  527 005A0330 ??_7ParseException@xercesc_2_8@@6B@
       1321  528 0059F37C ??_7Parser@xercesc_2_8@@6B@
       1322  529 005A1B00 ??_7ParserForXMLSchema@xercesc_2_8@@6B@
       1323  52A 005A0464 ??_7QName@xercesc_2_8@@6B@
       1324  52B 005A39A0 ??_7QNameDatatypeValidator@xercesc_2_8@@6B@
       1325  52C 005A5E84 ??_7RangeFactory@xercesc_2_8@@6B@
       1326  52D 0059F4D4 ??_7RangeOp@xercesc_2_8@@6B@
       1327  52E 005A1A78 ??_7RangeToken@xercesc_2_8@@6B@
       1328  52F 005A084C ??_7ReaderMgr@xercesc_2_8@@6B@
       1329  530 005A1990 ??_7RegxParser@xercesc_2_8@@6B@
       1330  531 0059F090 ??_7RuntimeException@xercesc_2_8@@6B@
       1331  532 005A4B30 ??_7SAX2XMLReader@xercesc_2_8@@6B@
       1332  533 005A5E18 ??_7SAX2XMLReaderImpl@xercesc_2_8@@6BDocTypeHandler@1@@
       1333  534 005A5CF8 ??_7SAX2XMLReaderImpl@xercesc_2_8@@6BSAX2XMLReader@1@@
       1334  535 005A5DB4 ??_7SAX2XMLReaderImpl@xercesc_2_8@@6BXMLDocumentHandler@1@@
       1335  536 005A5DF8 ??_7SAX2XMLReaderImpl@xercesc_2_8@@6BXMLEntityHandler@1@@
       1336  537 005A5DEC ??_7SAX2XMLReaderImpl@xercesc_2_8@@6BXMLErrorReporter@1@@
       1337  538 0059F894 ??_7SAXException@xercesc_2_8@@6B@
       1338  539 0059F894 ??_7SAXNotRecognizedException@xercesc_2_8@@6B@
       1339  53A 0059F894 ??_7SAXNotSupportedException@xercesc_2_8@@6B@
       1340  53B 005A0948 ??_7SAXParseException@xercesc_2_8@@6B@
       1341  53C 0059F7D8 ??_7SAXParser@xercesc_2_8@@6BDocTypeHandler@1@@
       1342  53D 0059F750 ??_7SAXParser@xercesc_2_8@@6BParser@1@@
       1343  53E 0059F778 ??_7SAXParser@xercesc_2_8@@6BXMLDocumentHandler@1@@
       1344  53F 0059F7BC ??_7SAXParser@xercesc_2_8@@6BXMLEntityHandler@1@@
       1345  540 0059F7B0 ??_7SAXParser@xercesc_2_8@@6BXMLErrorReporter@1@@
       1346  541 005A2418 ??_7SGXMLScanner@xercesc_2_8@@6B@
       1347  542 005A0380 ??_7SchemaAttDef@xercesc_2_8@@6B@
       1348  543 005A1EFC ??_7SchemaAttDefList@xercesc_2_8@@6B@
       1349  544 005A15C8 ??_7SchemaDateTimeException@xercesc_2_8@@6B@
       1350  545 005A04D0 ??_7SchemaElementDecl@xercesc_2_8@@6B@
       1351  546 005A1728 ??_7SchemaGrammar@xercesc_2_8@@6B@
       1352  547 005A502C ??_7SchemaValidator@xercesc_2_8@@6B@
       1353  548 0059F670 ??_7SecurityManager@xercesc_2_8@@6B@
       1354  549 005A1E20 ??_7SelectorMatcher@xercesc_2_8@@6B@
       1355  54A 005A1810 ??_7StringDatatypeValidator@xercesc_2_8@@6B@
       1356  54B 0059F504 ??_7StringOp@xercesc_2_8@@6B@
       1357  54C 005A1B80 ??_7StringToken@xercesc_2_8@@6B@
       1358  54D 005A47A8 ??_7TimeDatatypeValidator@xercesc_2_8@@6B@
       1359  54E 005A0A80 ??_7Token@xercesc_2_8@@6B@
       1360  54F 0059F81C ??_7TranscodingException@xercesc_2_8@@6B@
       1361  550 005A1930 ??_7URLInputSource@xercesc_2_8@@6B@
       1362  551 005A13F4 ??_7UTFDataFormatException@xercesc_2_8@@6B@
       1363  552 005A026C ??_7UnexpectedEOFException@xercesc_2_8@@6B@
       1364  553 005A4CAC ??_7UnicodeRangeFactory@xercesc_2_8@@6B@
       1365  554 005A00FC ??_7UnionDatatypeValidator@xercesc_2_8@@6B@
       1366  555 0059F444 ??_7UnionOp@xercesc_2_8@@6B@
       1367  556 005A1CA0 ??_7UnionToken@xercesc_2_8@@6B@
       1368  557 0059F590 ??_7ValidationContext@xercesc_2_8@@6B@
       1369  558 005A18A8 ??_7ValidationContextImpl@xercesc_2_8@@6B@
       1370  559 005A0A20 ??_7VecAttrListImpl@xercesc_2_8@@6B@
       1371  55A 005A60E8 ??_7VecAttributesImpl@xercesc_2_8@@6B@
       1372  55B 005A2398 ??_7WFXMLScanner@xercesc_2_8@@6B@
       1373  55C 005A124C ??_7Win32LCPTranscoder@xercesc_2_8@@6B@
       1374  55D 005A1210 ??_7Win32TransService@xercesc_2_8@@6B@
       1375  55E 005A123C ??_7Win32Transcoder@xercesc_2_8@@6B@
       1376  55F 005A12BC ??_7WinSockNetAccessor@xercesc_2_8@@6B@
       1377  560 005A60C0 ??_7Wrapper4DOMInputSource@xercesc_2_8@@6B@
       1378  561 005A3768 ??_7XML256TableTranscoder@xercesc_2_8@@6B@
       1379  562 005A37B0 ??_7XML88591Transcoder@xercesc_2_8@@6B@
       1380  563 005A3898 ??_7XMLASCIITranscoder@xercesc_2_8@@6B@
       1381  564 005A438C ??_7XMLAbstractDoubleFloat@xercesc_2_8@@6B@
       1382  565 005A0794 ??_7XMLAttDef@xercesc_2_8@@6B@
       1383  566 0059F600 ??_7XMLAttDefList@xercesc_2_8@@6B@
       1384  567 005A5258 ??_7XMLBigDecimal@xercesc_2_8@@6B@
       1385  568 0059F06C ??_7XMLBufferFullHandler@xercesc_2_8@@6B@
       1386  569 005A3808 ??_7XMLChTranscoder@xercesc_2_8@@6B@
       1387  56A 0059F63C ??_7XMLContentModel@xercesc_2_8@@6B@
       1388  56B 005A24B8 ??_7XMLDTDDescription@xercesc_2_8@@6B@
       1389  56C 005A2620 ??_7XMLDTDDescriptionImpl@xercesc_2_8@@6B@
       1390  56D 005A49DC ??_7XMLDateTime@xercesc_2_8@@6B@
       1391  56E 0059F080 ??_7XMLDeleter@xercesc_2_8@@6B@
       1392  56F 0059F5C8 ??_7XMLDocumentHandler@xercesc_2_8@@6B@
       1393  570 005A400C ??_7XMLDouble@xercesc_2_8@@6B@
       1394  571 005A3768 ??_7XMLEBCDICTranscoder@xercesc_2_8@@6B@
       1395  572 0059FF78 ??_7XMLElementDecl@xercesc_2_8@@6B@
       1396  573 005A0644 ??_7XMLEntityDecl@xercesc_2_8@@6B@
       1397  574 0059F654 ??_7XMLEntityHandler@xercesc_2_8@@6B@
       1398  575 005A2828 ??_7XMLEntityResolver@xercesc_2_8@@6B@
       1399  576 0059F02C ??_7XMLErrorReporter@xercesc_2_8@@6B@
       1400  577 0059FD38 ??_7XMLException@xercesc_2_8@@6B@
       1401  578 005A3BCC ??_7XMLFloat@xercesc_2_8@@6B@
       1402  579 005A2EA4 ??_7XMLFormatTarget@xercesc_2_8@@6B@
       1403  57A 005A0A64 ??_7XMLGrammarDescription@xercesc_2_8@@6B@
       1404  57B 0059F3A0 ??_7XMLGrammarPool@xercesc_2_8@@6B@
       1405  57C 005A2688 ??_7XMLGrammarPoolImpl@xercesc_2_8@@6B@
       1406  57D 005A3768 ??_7XMLIBM1047Transcoder@xercesc_2_8@@6B@
       1407  57E 005A3768 ??_7XMLIBM1140Transcoder@xercesc_2_8@@6B@
       1408  57F 005A13B8 ??_7XMLLCPTranscoder@xercesc_2_8@@6B@
       1409  580 0059FD40 ??_7XMLMsgLoader@xercesc_2_8@@6B@
       1410  581 0059F074 ??_7XMLNetAccessor@xercesc_2_8@@6B@
       1411  582 005A0A10 ??_7XMLNotationDecl@xercesc_2_8@@6B@
       1412  583 005A4ADC ??_7XMLNumber@xercesc_2_8@@6B@
       1413  584 0059F084 ??_7XMLPlatformUtilsException@xercesc_2_8@@6B@
       1414  585 005A4CA0 ??_7XMLRangeFactory@xercesc_2_8@@6B@
       1415  586 0059F564 ??_7XMLRefInfo@xercesc_2_8@@6B@
       1416  587 005A0210 ??_7XMLScanner@xercesc_2_8@@6B@
       1417  588 005A0900 ??_7XMLSchemaDescription@xercesc_2_8@@6B@
       1418  589 005A25C0 ??_7XMLSchemaDescriptionImpl@xercesc_2_8@@6B@
       1419  58A 005A05F8 ??_7XMLStringPool@xercesc_2_8@@6B@
       1420  58B 005A51A0 ??_7XMLSynchronizedStringPool@xercesc_2_8@@6B@
       1421  58C 005A138C ??_7XMLTransService@xercesc_2_8@@6B@
       1422  58D 005A13DC ??_7XMLTranscoder@xercesc_2_8@@6B@
       1423  58E 005A37F8 ??_7XMLUCS4Transcoder@xercesc_2_8@@6B@
       1424  58F 0059F0D8 ??_7XMLURL@xercesc_2_8@@6B@
       1425  590 005A38A8 ??_7XMLUTF16Transcoder@xercesc_2_8@@6B@
       1426  591 005A3850 ??_7XMLUTF8Transcoder@xercesc_2_8@@6B@
       1427  592 0059FC18 ??_7XMLUri@xercesc_2_8@@6B@
       1428  593 0059F67C ??_7XMLValidator@xercesc_2_8@@6B@
       1429  594 005A3768 ??_7XMLWin1252Transcoder@xercesc_2_8@@6B@
       1430  595 005A14E8 ??_7XPathException@xercesc_2_8@@6B@
       1431  596 005A070C ??_7XPathMatcher@xercesc_2_8@@6B@
       1432  597 005A01A4 ??_7XPathScanner@xercesc_2_8@@6B@
       1433  598 005A01AC ??_7XPathScannerForSchema@xercesc_2_8@@6B@
       1434  599 005A5ED8 ??_7XSAXMLScanner@xercesc_2_8@@6B@
       1435  59A 005A4B1C ??_7XSAnnotation@xercesc_2_8@@6BXSObject@1@@
       1436  59B 005A4B0C ??_7XSAnnotation@xercesc_2_8@@6BXSerializable@1@@
       1437  59C 005A5FD0 ??_7XSAttributeDeclaration@xercesc_2_8@@6B@
       1438  59D 005A5FF8 ??_7XSAttributeGroupDefinition@xercesc_2_8@@6B@
       1439  59E 005A5F9C ??_7XSAttributeUse@xercesc_2_8@@6B@
       1440  59F 005A2700 ??_7XSComplexTypeDefinition@xercesc_2_8@@6B@
       1441  5A0 005A5108 ??_7XSDDOMParser@xercesc_2_8@@6BDocTypeHandler@1@@
       1442  5A1 005A514C ??_7XSDDOMParser@xercesc_2_8@@6BPSVIHandler@1@@
       1443  5A2 005A50A0 ??_7XSDDOMParser@xercesc_2_8@@6BXMLDocumentHandler@1@@
       1444  5A3 005A50EC ??_7XSDDOMParser@xercesc_2_8@@6BXMLEntityHandler@1@@
       1445  5A4 005A50E0 ??_7XSDDOMParser@xercesc_2_8@@6BXMLErrorReporter@1@@
       1446  5A5 005A5658 ??_7XSDElementNSImpl@xercesc_2_8@@6B@
       1447  5A6 005A2334 ??_7XSDErrorReporter@xercesc_2_8@@6B@
       1448  5A7 005A09EC ??_7XSDLocator@xercesc_2_8@@6B@
       1449  5A8 005A2C94 ??_7XSElementDeclaration@xercesc_2_8@@6B@
       1450  5A9 005A5F9C ??_7XSFacet@xercesc_2_8@@6B@
       1451  5AA 005A5F88 ??_7XSIDCDefinition@xercesc_2_8@@6B@
       1452  5AB 005A5F4C ??_7XSModelGroup@xercesc_2_8@@6B@
       1453  5AC 005A5F74 ??_7XSModelGroupDefinition@xercesc_2_8@@6B@
       1454  5AD 005A5F24 ??_7XSMultiValueFacet@xercesc_2_8@@6B@
       1455  5AE 005A5F60 ??_7XSNotationDeclaration@xercesc_2_8@@6B@
       1456  5AF 005A51CC ??_7XSObject@xercesc_2_8@@6B@
       1457  5B0 005A5FE4 ??_7XSParticle@xercesc_2_8@@6B@
       1458  5B1 005A5FB0 ??_7XSSimpleTypeDefinition@xercesc_2_8@@6B@
       1459  5B2 005A5278 ??_7XSTypeDefinition@xercesc_2_8@@6B@
       1460  5B3 005A5F38 ??_7XSWildcard@xercesc_2_8@@6B@
       1461  5B4 0059F344 ??_7XSerializable@xercesc_2_8@@6B@
       1462  5B5 0059F0F4 ??_7XSerializationException@xercesc_2_8@@6B@
       1463  5B6 005A1794 ??_7XercesAttGroupInfo@xercesc_2_8@@6B@
       1464  5B7 0059FB90 ??_7XercesDOMParser@xercesc_2_8@@6BDocTypeHandler@1@@
       1465  5B8 0059FBD4 ??_7XercesDOMParser@xercesc_2_8@@6BPSVIHandler@1@@
       1466  5B9 0059FB28 ??_7XercesDOMParser@xercesc_2_8@@6BXMLDocumentHandler@1@@
       1467  5BA 0059FB74 ??_7XercesDOMParser@xercesc_2_8@@6BXMLEntityHandler@1@@
       1468  5BB 0059FB68 ??_7XercesDOMParser@xercesc_2_8@@6BXMLErrorReporter@1@@
       1469  5BC 005A1650 ??_7XercesGroupInfo@xercesc_2_8@@6B@
       1470  5BD 005A0154 ??_7XercesLocationPath@xercesc_2_8@@6B@
       1471  5BE 005A0184 ??_7XercesNodeTest@xercesc_2_8@@6B@
       1472  5BF 005A0194 ??_7XercesStep@xercesc_2_8@@6B@
       1473  5C0 005A14D8 ??_7XercesXPath@xercesc_2_8@@6B@
       1474  5C1 005A40D0 ??_7YearDatatypeValidator@xercesc_2_8@@6B@
       1475  5C2 005A3ED8 ??_7YearMonthDatatypeValidator@xercesc_2_8@@6B@
       1476  5C3 000F75B0 ??_FAbstractDOMParser@xercesc_2_8@@QAEXXZ
       1477  5C4 0012B300 ??_FAnySimpleTypeDatatypeValidator@xercesc_2_8@@QAEXXZ
       1478  5C5 0012AA30 ??_FAnyURIDatatypeValidator@xercesc_2_8@@QAEXXZ
       1479  5C6 0012AD50 ??_FBase64BinaryDatatypeValidator@xercesc_2_8@@QAEXXZ
       1480  5C7 0012AA70 ??_FBooleanDatatypeValidator@xercesc_2_8@@QAEXXZ
       1481  5C8 000F37A0 ??_FComplexTypeInfo@xercesc_2_8@@QAEXXZ
       1482  5C9 00115980 ??_FContentLeafNameTypeVector@xercesc_2_8@@QAEXXZ
       1483  5CA 00103560 ??_FContentSpecNode@xercesc_2_8@@QAEXXZ
       1484  5CB 000F0BF0 ??_FContext@RegularExpression@xercesc_2_8@@QAEXXZ
       1485  5CC 00164CC0 ??_FDOMBuilderImpl@xercesc_2_8@@QAEXXZ
       1486  5CD 00166A00 ??_FDOMConfigurationImpl@xercesc_2_8@@QAEXXZ
       1487  5CE 00120780 ??_FDOMDocumentImpl@xercesc_2_8@@QAEXXZ
       1488  5CF 001208A0 ??_FDOMTypeInfoImpl@xercesc_2_8@@QAEXXZ
       1489  5D0 00164C50 ??_FDOMWriterImpl@xercesc_2_8@@QAEXXZ
       1490  5D1 000F1A90 ??_FDTDAttDef@xercesc_2_8@@QAEXXZ
       1491  5D2 00115C20 ??_FDTDAttDefList@xercesc_2_8@@QAEXXZ
       1492  5D3 000F1B90 ??_FDTDElementDecl@xercesc_2_8@@QAEXXZ
       1493  5D4 000F1DB0 ??_FDTDEntityDecl@xercesc_2_8@@QAEXXZ
       1494  5D5 0011B490 ??_FDTDGrammar@xercesc_2_8@@QAEXXZ
       1495  5D6 00142510 ??_FDTDValidator@xercesc_2_8@@QAEXXZ
       1496  5D7 00103F60 ??_FDatatypeValidatorFactory@xercesc_2_8@@QAEXXZ
       1497  5D8 0012B240 ??_FDateDatatypeValidator@xercesc_2_8@@QAEXXZ
       1498  5D9 0012B230 ??_FDateTimeDatatypeValidator@xercesc_2_8@@QAEXXZ
       1499  5DA 0012B2A0 ??_FDayDatatypeValidator@xercesc_2_8@@QAEXXZ
       1500  5DB 0012AD20 ??_FDecimalDatatypeValidator@xercesc_2_8@@QAEXXZ
       1501  5DC 0012AD10 ??_FDoubleDatatypeValidator@xercesc_2_8@@QAEXXZ
       1502  5DD 0012B220 ??_FDurationDatatypeValidator@xercesc_2_8@@QAEXXZ
       1503  5DE 0012B2C0 ??_FENTITYDatatypeValidator@xercesc_2_8@@QAEXXZ
       1504  5DF 000F2F50 ??_FElemStack@xercesc_2_8@@QAEXXZ
       1505  5E0 00110C40 ??_FFieldValueMap@xercesc_2_8@@QAEXXZ
       1506  5E1 0012ACC0 ??_FFloatDatatypeValidator@xercesc_2_8@@QAEXXZ
       1507  5E2 0014FAD0 ??_FGeneralAttributeCheck@xercesc_2_8@@QAEXXZ
       1508  5E3 0012AD40 ??_FHexBinaryDatatypeValidator@xercesc_2_8@@QAEXXZ
       1509  5E4 000F3D10 ??_FIC_Field@xercesc_2_8@@QAEXXZ
       1510  5E5 0013D0F0 ??_FIC_Key@xercesc_2_8@@QAEXXZ
       1511  5E6 0013D110 ??_FIC_KeyRef@xercesc_2_8@@QAEXXZ
       1512  5E7 0013D050 ??_FIC_Selector@xercesc_2_8@@QAEXXZ
       1513  5E8 0013D0D0 ??_FIC_Unique@xercesc_2_8@@QAEXXZ
       1514  5E9 00103F50 ??_FIDDatatypeValidator@xercesc_2_8@@QAEXXZ
       1515  5EA 0012B2B0 ??_FIDREFDatatypeValidator@xercesc_2_8@@QAEXXZ
       1516  5EB 00105E00 ??_FInputSource@xercesc_2_8@@QAEXXZ
       1517  5EC 000F0310 ??_FKVStringPair@xercesc_2_8@@QAEXXZ
       1518  5ED 0012B2E0 ??_FListDatatypeValidator@xercesc_2_8@@QAEXXZ
       1519  5EE 0010A250 ??_FMatch@xercesc_2_8@@QAEXXZ
       1520  5EF 001B3100 ??_FMemBufFormatTarget@xercesc_2_8@@QAEXXZ
       1521  5F0 0012B290 ??_FMonthDatatypeValidator@xercesc_2_8@@QAEXXZ
       1522  5F1 0012B260 ??_FMonthDayDatatypeValidator@xercesc_2_8@@QAEXXZ
       1523  5F2 0012AA60 ??_FNCNameDatatypeValidator@xercesc_2_8@@QAEXXZ
       1524  5F3 0012B2D0 ??_FNOTATIONDatatypeValidator@xercesc_2_8@@QAEXXZ
       1525  5F4 0012AA50 ??_FNameDatatypeValidator@xercesc_2_8@@QAEXXZ
       1526  5F5 00128030 ??_FNamespaceScope@xercesc_2_8@@QAEXXZ
       1527  5F6 000F0AD0 ??_FOpFactory@xercesc_2_8@@QAEXXZ
       1528  5F7 000F7290 ??_FPSVIAttribute@xercesc_2_8@@QAEXXZ
       1529  5F8 000F73A0 ??_FPSVIAttributeList@xercesc_2_8@@QAEXXZ
       1530  5F9 000F7250 ??_FPSVIElement@xercesc_2_8@@QAEXXZ
       1531  5FA 000F71A0 ??_FPSVIItem@xercesc_2_8@@QAEXXZ
       1532  5FB 0010A590 ??_FParserForXMLSchema@xercesc_2_8@@QAEXXZ
       1533  5FC 000F0220 ??_FQName@xercesc_2_8@@QAEXXZ
       1534  5FD 0012AA40 ??_FQNameDatatypeValidator@xercesc_2_8@@QAEXXZ
       1535  5FE 000F2B70 ??_FReaderMgr@xercesc_2_8@@QAEXXZ
       1536  5FF 0010A4C0 ??_FRegxParser@xercesc_2_8@@QAEXXZ
       1537  600 001BBAD0 ??_FSAX2XMLReaderImpl@xercesc_2_8@@QAEXXZ
       1538  601 000F5130 ??_FSAXException@xercesc_2_8@@QAEXXZ
       1539  602 000F51D0 ??_FSAXNotRecognizedException@xercesc_2_8@@QAEXXZ
       1540  603 000F51D0 ??_FSAXNotSupportedException@xercesc_2_8@@QAEXXZ
       1541  604 000F2030 ??_FSAXParser@xercesc_2_8@@QAEXXZ
       1542  605 000F34C0 ??_FSchemaAttDef@xercesc_2_8@@QAEXXZ
       1543  606 00113FC0 ??_FSchemaAttDefList@xercesc_2_8@@QAEXXZ
       1544  607 000F3ED0 ??_FSchemaElementDecl@xercesc_2_8@@QAEXXZ
       1545  608 00104020 ??_FSchemaGrammar@xercesc_2_8@@QAEXXZ
       1546  609 00146F20 ??_FSchemaValidator@xercesc_2_8@@QAEXXZ
       1547  60A 00103F40 ??_FStringDatatypeValidator@xercesc_2_8@@QAEXXZ
       1548  60B 0012B250 ??_FTimeDatatypeValidator@xercesc_2_8@@QAEXXZ
       1549  60C 000F0A20 ??_FTokenFactory@xercesc_2_8@@QAEXXZ
       1550  60D 000F31D0 ??_FUnionDatatypeValidator@xercesc_2_8@@QAEXXZ
       1551  60E 000F13F0 ??_FValidationContext@xercesc_2_8@@QAEXXZ
       1552  60F 00105BB0 ??_FValidationContextImpl@xercesc_2_8@@QAEXXZ
       1553  610 0013D5B0 ??_FValueStoreCache@xercesc_2_8@@QAEXXZ
       1554  611 000F2F60 ??_FWFElemStack@xercesc_2_8@@QAEXXZ
       1555  612 0012AC00 ??_FXMLAbstractDoubleFloat@xercesc_2_8@@QAEXXZ
       1556  613 000F0250 ??_FXMLAttDef@xercesc_2_8@@QAEXXZ
       1557  614 000F17B0 ??_FXMLAttDefList@xercesc_2_8@@QAEXXZ
       1558  615 000F15B0 ??_FXMLAttr@xercesc_2_8@@QAEXXZ
       1559  616 0015C680 ??_FXMLBigDecimal@xercesc_2_8@@QAEXXZ
       1560  617 000ECDB0 ??_FXMLBuffer@xercesc_2_8@@QAEXXZ
       1561  618 000F20C0 ??_FXMLBufferMgr@xercesc_2_8@@QAEXXZ
       1562  619 0011B480 ??_FXMLDTDDescription@xercesc_2_8@@QAEXXZ
       1563  61A 0011E350 ??_FXMLDTDDescriptionImpl@xercesc_2_8@@QAEXXZ
       1564  61B 0012AF90 ??_FXMLDateTime@xercesc_2_8@@QAEXXZ
       1565  61C 0012ACD0 ??_FXMLDouble@xercesc_2_8@@QAEXXZ
       1566  61D 000F1840 ??_FXMLElementDecl@xercesc_2_8@@QAEXXZ
       1567  61E 000F1C30 ??_FXMLEntityDecl@xercesc_2_8@@QAEXXZ
       1568  61F 0012AC60 ??_FXMLFloat@xercesc_2_8@@QAEXXZ
       1569  620 000F5220 ??_FXMLGrammarDescription@xercesc_2_8@@QAEXXZ
       1570  621 000F4580 ??_FXMLGrammarPool@xercesc_2_8@@QAEXXZ
       1571  622 000F0A00 ??_FXMLMutex@xercesc_2_8@@QAEXXZ
       1572  623 000F19C0 ??_FXMLNotationDecl@xercesc_2_8@@QAEXXZ
       1573  624 000F2100 ??_FXMLRefInfo@xercesc_2_8@@QAEXXZ
       1574  625 000F5230 ??_FXMLSchemaDescription@xercesc_2_8@@QAEXXZ
       1575  626 0011E320 ??_FXMLSchemaDescriptionImpl@xercesc_2_8@@QAEXXZ
       1576  627 000F2E30 ??_FXMLStringPool@xercesc_2_8@@QAEXXZ
       1577  628 000ED3D0 ??_FXMLURL@xercesc_2_8@@QAEXXZ
       1578  629 000EDE40 ??_FXMLUri@xercesc_2_8@@QAEXXZ
       1579  62A 000F4CC0 ??_FXMLValidator@xercesc_2_8@@QAEXXZ
       1580  62B 00147090 ??_FXPathMatcherStack@xercesc_2_8@@QAEXXZ
       1581  62C 0014FF50 ??_FXSDDOMParser@xercesc_2_8@@QAEXXZ
       1582  62D 00146EA0 ??_FXSDErrorReporter@xercesc_2_8@@QAEXXZ
       1583  62E 0015A070 ??_FXSObjectFactory@xercesc_2_8@@QAEXXZ
       1584  62F 00103B80 ??_FXercesAttGroupInfo@xercesc_2_8@@QAEXXZ
       1585  630 000F7640 ??_FXercesDOMParser@xercesc_2_8@@QAEXXZ
       1586  631 00103AD0 ??_FXercesGroupInfo@xercesc_2_8@@QAEXXZ
       1587  632 001045E0 ??_FXercesLocationPath@xercesc_2_8@@QAEXXZ
       1588  633 00104420 ??_FXercesNodeTest@xercesc_2_8@@QAEXXZ
       1589  634 00104500 ??_FXercesStep@xercesc_2_8@@QAEXXZ
       1590  635 00104650 ??_FXercesXPath@xercesc_2_8@@QAEXXZ
       1591  636 0012B280 ??_FYearDatatypeValidator@xercesc_2_8@@QAEXXZ
       1592  637 0012B270 ??_FYearMonthDatatypeValidator@xercesc_2_8@@QAEXXZ
       1593  638 001207B0 ??_ODOMAttrImpl@xercesc_2_8@@QAEXAAV01@@Z
       1594  639 00166A30 ??_ODOMAttrNSImpl@xercesc_2_8@@QAEXAAV01@@Z
       1595  63A 00166A60 ??_ODOMCDATASectionImpl@xercesc_2_8@@QAEXAAV01@@Z
       1596  63B 001209B0 ??_ODOMElementImpl@xercesc_2_8@@QAEXAAV01@@Z
       1597  63C 001209C0 ??_ODOMElementNSImpl@xercesc_2_8@@QAEXAAV01@@Z
       1598  63D 00120A20 ??_ODOMEntityImpl@xercesc_2_8@@QAEXAAV01@@Z
       1599  63E 00120A40 ??_ODOMEntityReferenceImpl@xercesc_2_8@@QAEXAAV01@@Z
       1600  63F 00120AE0 ??_ODOMNotationImpl@xercesc_2_8@@QAEXAAV01@@Z
       1601  640 00120B10 ??_ODOMProcessingInstructionImpl@xercesc_2_8@@QAEXAAV01@@Z
       1602  641 00120910 ??_ODOMTextImpl@xercesc_2_8@@QAEXAAV01@@Z
       1603  642 00166A70 ??_OXSDElementNSImpl@xercesc_2_8@@QAEXAAV01@@Z
       1604  643 000EDD20 ?Assert@XSerializeEngine@xercesc_2_8@@ABEX_NW4Codes@XMLExcepts@2@@Z
       1605  644 003FBC60 ?CHILDNODE@DOMNodeImpl@xercesc_2_8@@2GB
       1606  645 0016CDB0 ?Cleanup@BinHTTPURLInputStream@xercesc_2_8@@SAXXZ
       1607  646 00442E2C ?EXTENDED_COMMENT@RegularExpression@xercesc_2_8@@2IB
       1608  647 00441F8C ?FC_ANY@Token@xercesc_2_8@@2GB
       1609  648 00441F84 ?FC_CONTINUE@Token@xercesc_2_8@@2GB
       1610  649 00441F88 ?FC_TERMINAL@Token@xercesc_2_8@@2GB
       1611  64A 003FBC44 ?FIRSTCHILD@DOMNodeImpl@xercesc_2_8@@2GB
       1612  64B 003FBC54 ?ID_ATTR@DOMNodeImpl@xercesc_2_8@@2GB
       1613  64C 003FBC4C ?IGNORABLEWS@DOMNodeImpl@xercesc_2_8@@2GB
       1614  64D 00442E20 ?IGNORE_CASE@RegularExpression@xercesc_2_8@@2IB
       1615  64E 003E8408 ?INDETERMINATE@AbstractNumericFacetValidator@xercesc_2_8@@1HB
       1616  64F 0040C734 ?INITIALSIZE@RangeToken@xercesc_2_8@@2IB
       1617  650 003FC698 ?INITIALSIZE@UnionToken@xercesc_2_8@@0GB
       1618  651 0016CB80 ?Initialize@BinHTTPURLInputStream@xercesc_2_8@@CAXQAVMemoryManager@2@@Z
       1619  652 00102150 ?Initialize@XMLPlatformUtils@xercesc_2_8@@SAXQBD0QAVPanicHandler@2@QAVMemoryManager@2@_N@Z
       1620  653 00127C30 ?InitializeAllStaticData@XMLInitializer@xercesc_2_8@@KAXXZ
       1621  654 003FBC5C ?LEAFNODETYPE@DOMNodeImpl@xercesc_2_8@@2GB
       1622  655 0040C730 ?MAPSIZE@RangeToken@xercesc_2_8@@2HB
       1623  656 00444F6C ?MARK_CHARACTERS@XMLUri@xercesc_2_8@@0QB_WB
       1624  657 00444F80 ?MARK_OR_RESERVED_CHARACTERS@XMLUri@xercesc_2_8@@0QB_WB
       1625  658 00442E1C ?MARK_PARENS@RegularExpression@xercesc_2_8@@2IB
       1626  659 00442E28 ?MULTIPLE_LINE@RegularExpression@xercesc_2_8@@2IB
       1627  65A 003FBC40 ?OWNED@DOMNodeImpl@xercesc_2_8@@2GB
       1628  65B 00444FD8 ?PATH_CHARACTERS@XMLUri@xercesc_2_8@@0QB_WB
       1629  65C 00442E3C ?PROHIBIT_FIXED_STRING_OPTIMIZATION@RegularExpression@xercesc_2_8@@2IB
       1630  65D 00442E38 ?PROHIBIT_HEAD_CHARACTER_OPTIMIZATION@RegularExpression@xercesc_2_8@@2IB
       1631  65E 003FBC34 ?READONLY@DOMNodeImpl@xercesc_2_8@@2GB
       1632  65F 00444FC4 ?REG_NAME_CHARACTERS@XMLUri@xercesc_2_8@@0QB_WB
       1633  660 00444F50 ?RESERVED_CHARACTERS@XMLUri@xercesc_2_8@@0QB_WB
       1634  661 00142080 ?Reset@DTDAttDefList@xercesc_2_8@@UAEXXZ
       1635  662 00142080 ?Reset@SchemaAttDefList@xercesc_2_8@@UAEXXZ
       1636  663 00444FAC ?SCHEME_CHARACTERS@XMLUri@xercesc_2_8@@0QB_WB
       1637  664 003FBC50 ?SETVALUE@DOMNodeImpl@xercesc_2_8@@2GB
       1638  665 00442E24 ?SINGLE_LINE@RegularExpression@xercesc_2_8@@2IB
       1639  666 00442E44 ?SPECIAL_COMMA@RegularExpression@xercesc_2_8@@2IB
       1640  667 003FBC48 ?SPECIFIED@DOMNodeImpl@xercesc_2_8@@2GB
       1641  668 003FBC3C ?SYNCCHILDREN@DOMNodeImpl@xercesc_2_8@@2GB
       1642  669 003FBC38 ?SYNCDATA@DOMNodeImpl@xercesc_2_8@@2GB
       1643  66A 0040C928 ?S_INBRACKETS@RegxParser@xercesc_2_8@@2GB
       1644  66B 0040C92C ?S_INXBRACKETS@RegxParser@xercesc_2_8@@2GB
       1645  66C 0040C924 ?S_NORMAL@RegxParser@xercesc_2_8@@2GB
       1646  66D 003FBC64 ?TOBERELEASED@DOMNodeImpl@xercesc_2_8@@2GB
       1647  66E 001023B0 ?Terminate@XMLPlatformUtils@xercesc_2_8@@SAXXZ
       1648  66F 00123970 ?TextDecl@AbstractDOMParser@xercesc_2_8@@UAEXQB_W0@Z
       1649  670 000C1D60 ?TextDecl@SAX2XMLReaderImpl@xercesc_2_8@@UAEXQB_W0@Z
       1650  671 000C1D60 ?TextDecl@SAXParser@xercesc_2_8@@UAEXQB_W0@Z
       1651  672 00442E34 ?UNICODE_WORD_BOUNDARY@RegularExpression@xercesc_2_8@@2IB
       1652  673 003FBC58 ?USERDATA@DOMNodeImpl@xercesc_2_8@@2GB
       1653  674 00444FB4 ?USERINFO_CHARACTERS@XMLUri@xercesc_2_8@@0QB_WB
       1654  675 00442E30 ?USE_UNICODE_CATEGORY@RegularExpression@xercesc_2_8@@2IB
       1655  676 00441F80 ?UTF16_MAX@Token@xercesc_2_8@@2HB
       1656  677 00442E48 ?WT_IGNORE@RegularExpression@xercesc_2_8@@2GB
       1657  678 00442E4C ?WT_LETTER@RegularExpression@xercesc_2_8@@2GB
       1658  679 00442E50 ?WT_OTHER@RegularExpression@xercesc_2_8@@2GB
       1659  67A 001228D0 ?XMLDecl@AbstractDOMParser@xercesc_2_8@@UAEXQB_W000@Z
       1660  67B 001BC980 ?XMLDecl@SAX2XMLReaderImpl@xercesc_2_8@@UAEXQB_W000@Z
       1661  67C 000F6180 ?XMLDecl@SAXParser@xercesc_2_8@@UAEXQB_W000@Z
       1662  67D 00442E40 ?XMLSCHEMA_MODE@RegularExpression@xercesc_2_8@@2IB
       1663  67E 001AE260 ?acceptNode@DOMNodeIteratorImpl@xercesc_2_8@@AAE_NPAVDOMNode@2@@Z
       1664  67F 001B7EF0 ?acceptNode@DOMTreeWalkerImpl@xercesc_2_8@@IAEFPAVDOMNode@2@@Z
       1665  680 001BEB00 ?activateField@FieldActivator@xercesc_2_8@@QAEPAVXPathMatcher@2@QAVIC_Field@2@H@Z
       1666  681 001936A0 ?activateIdentityConstraint@IdentityConstraintHandler@xercesc_2_8@@QAEXQAVSchemaElementDecl@2@HIQB_WABV?$RefVectorOf@VXMLAttr@xercesc_2_8@@@2@I@Z
       1667  682 001938B0 ?activateSelectorFor@IdentityConstraintHandler@xercesc_2_8@@AAEXQAVIdentityConstraint@2@H@Z
       1668  683 00134CF0 ?addAnnotation@SchemaGrammar@xercesc_2_8@@QAEXQAVXSAnnotation@2@@Z
       1669  684 00103D60 ?addAnyAttDef@XercesAttGroupInfo@xercesc_2_8@@QAEXQAVSchemaAttDef@2@_N@Z
       1670  685 0011C820 ?addAttDef@ComplexTypeInfo@xercesc_2_8@@QAEXQAVSchemaAttDef@2@@Z
       1671  686 00115C40 ?addAttDef@DTDAttDefList@xercesc_2_8@@AAEXPAVDTDAttDef@2@@Z
       1672  687 00116280 ?addAttDef@DTDElementDecl@xercesc_2_8@@QAEXQAVDTDAttDef@2@@Z
       1673  688 00115C40 ?addAttDef@SchemaAttDefList@xercesc_2_8@@AAEXPAVSchemaAttDef@2@@Z
       1674  689 00103C10 ?addAttDef@XercesAttGroupInfo@xercesc_2_8@@QAEXQAVSchemaAttDef@2@_N@Z
       1675  68A 001207F0 ?addAttrToIDNodeMap@DOMAttrImpl@xercesc_2_8@@UAEXXZ
       1676  68B 0013C550 ?addCategory@RangeTokenMap@xercesc_2_8@@QAEXQB_W@Z
       1677  68C 0010E480 ?addChild@ElemStack@xercesc_2_8@@QAEIQAVQName@2@_N@Z
       1678  68D 000F08B0 ?addChild@Token@xercesc_2_8@@UAEXQAV12@QAVTokenFactory@2@@Z
       1679  68E 0013BD70 ?addChild@UnionToken@xercesc_2_8@@UAEXQAVToken@2@QAVTokenFactory@2@@Z
       1680  68F 0015B480 ?addComponentToIdVector@XSModel@xercesc_2_8@@AAEXQAVXSObject@2@H@Z
       1681  690 0015B4C0 ?addComponentToNamespace@XSModel@xercesc_2_8@@AAEXQAVXSNamespaceItem@2@QAVXSObject@2@H_N@Z
       1682  691 0017AB40 ?addDuration@XMLDateTime@xercesc_2_8@@CAXPAV12@QBV12@H@Z
       1683  692 000F39C0 ?addElement@ComplexTypeInfo@xercesc_2_8@@QAEXQAVSchemaElementDecl@2@@Z
       1684  693 00102A00 ?addElement@UnionOp@xercesc_2_8@@QAEXQAVOp@2@@Z
       1685  694 00103B40 ?addElement@XercesGroupInfo@xercesc_2_8@@QAEXQAVSchemaElementDecl@2@@Z
       1686  695 00125C70 ?addEncoding@XMLTransService@xercesc_2_8@@SAXQB_WQAVENameMap@2@@Z
       1687  696 0014F870 ?addFailedRedefine@SchemaInfo@xercesc_2_8@@QAEXQBVDOMElement@2@@Z
       1688  697 000F3DA0 ?addField@IdentityConstraint@xercesc_2_8@@QAEXQAVIC_Field@2@@Z
       1689  698 0015B740 ?addGrammarToXSModel@XSModel@xercesc_2_8@@AAEXPAVXSNamespaceItem@2@@Z
       1690  699 00135960 ?addId@ValidationContextImpl@xercesc_2_8@@UAEXQB_W@Z
       1691  69A 00135A60 ?addIdRef@ValidationContextImpl@xercesc_2_8@@UAEXQB_W@Z
       1692  69B 000F43D0 ?addIdentityConstraint@SchemaElementDecl@xercesc_2_8@@QAEXQAVIdentityConstraint@2@@Z
       1693  69C 0014F400 ?addImportedNS@SchemaInfo@xercesc_2_8@@QAEXH@Z
       1694  69D 0013C580 ?addKeywordMap@RangeTokenMap@xercesc_2_8@@QAEXQB_W0@Z
       1695  69E 0010E2C0 ?addLevel@ElemStack@xercesc_2_8@@QAEIQAVXMLElementDecl@2@I@Z
       1696  69F 0010E1A0 ?addLevel@ElemStack@xercesc_2_8@@QAEIXZ
       1697  6A0 0010EC20 ?addLevel@WFElemStack@xercesc_2_8@@QAEIQB_WII@Z
       1698  6A1 0010EB70 ?addLevel@WFElemStack@xercesc_2_8@@QAEIXZ
       1699  6A2 001013B0 ?addLoadPool@XSerializeEngine@xercesc_2_8@@AAEXQAX@Z
       1700  6A3 00147140 ?addMatcher@XPathMatcherStack@xercesc_2_8@@QAEXQAVXPathMatcher@2@@Z
       1701  6A4 00116B60 ?addNewEntry@XMLStringPool@xercesc_2_8@@AAEIQB_W@Z
       1702  6A5 000F2E40 ?addOrFind@XMLStringPool@xercesc_2_8@@UAEIQB_W@Z
       1703  6A6 001A89E0 ?addOrFind@XMLSynchronizedStringPool@xercesc_2_8@@UAEIQB_W@Z
       1704  6A7 001A9820 ?addOrFind@XSObjectFactory@xercesc_2_8@@AAEPAVXSAttributeDeclaration@2@QAVSchemaAttDef@2@QAVXSModel@2@QAVXSComplexTypeDefinition@2@@Z
       1705  6A8 001A9F70 ?addOrFind@XSObjectFactory@xercesc_2_8@@AAEPAVXSComplexTypeDefinition@2@QAVComplexTypeInfo@2@QAVXSModel@2@@Z
       1706  6A9 001A9CA0 ?addOrFind@XSObjectFactory@xercesc_2_8@@AAEPAVXSElementDeclaration@2@QAVSchemaElementDecl@2@QAVXSModel@2@QAVXSComplexTypeDefinition@2@@Z
       1707  6AA 001AA310 ?addOrFind@XSObjectFactory@xercesc_2_8@@AAEPAVXSIDCDefinition@2@QAVIdentityConstraint@2@QAVXSModel@2@@Z
       1708  6AB 001AA4F0 ?addOrFind@XSObjectFactory@xercesc_2_8@@AAEPAVXSNotationDeclaration@2@QAVXMLNotationDecl@2@QAVXSModel@2@@Z
       1709  6AC 001A9990 ?addOrFind@XSObjectFactory@xercesc_2_8@@AAEPAVXSSimpleTypeDefinition@2@QAVDatatypeValidator@2@QAVXSModel@2@_N@Z
       1710  6AD 0010E610 ?addPrefix@ElemStack@xercesc_2_8@@QAEXQB_WI@Z
       1711  6AE 001726C0 ?addPrefix@NamespaceScope@xercesc_2_8@@QAEXQB_WI@Z
       1712  6AF 0010EE80 ?addPrefix@WFElemStack@xercesc_2_8@@QAEXQB_WI@Z
       1713  6B0 00139A20 ?addRange@RangeToken@xercesc_2_8@@UAEXHH@Z
       1714  6B1 000F08E0 ?addRange@Token@xercesc_2_8@@UAEXHH@Z
       1715  6B2 0013C560 ?addRangeMap@RangeTokenMap@xercesc_2_8@@QAEXQB_WQAVRangeFactory@2@@Z
       1716  6B3 0014F960 ?addRecursingType@SchemaInfo@xercesc_2_8@@QAEXQBVDOMElement@2@QB_W@Z
       1717  6B4 0015B5B0 ?addS4SToXSModel@XSModel@xercesc_2_8@@AAEXQAVXSNamespaceItem@2@QAV?$RefHashTableOf@VDatatypeValidator@xercesc_2_8@@@2@@Z
       1718  6B5 0014F4D0 ?addSchemaInfo@SchemaInfo@xercesc_2_8@@QAEXQAV12@W4ListType@12@@Z
       1719  6B6 0016C930 ?addSource@DOMImplementationRegistry@xercesc_2_8@@SAXPAVDOMImplementationSource@2@@Z
       1720  6B7 001046F0 ?addStep@XercesLocationPath@xercesc_2_8@@QAEXQAVXercesStep@2@@Z
       1721  6B8 00101240 ?addStorePool@XSerializeEngine@xercesc_2_8@@AAEXQAX@Z
       1722  6B9 00104770 ?addToken@XPathScanner@xercesc_2_8@@MAEXQAV?$ValueVectorOf@H@2@H@Z
       1723  6BA 0012A900 ?addToken@XPathScannerForSchema@xercesc_2_8@@MAEXQAV?$ValueVectorOf@H@2@H@Z
       1724  6BB 0013D700 ?addValue@ValueStore@xercesc_2_8@@QAEXQAVFieldActivator@2@QAVIC_Field@2@QAVDatatypeValidator@2@QB_W@Z
       1725  6BC 00023AA0 ?addValue@ValueStore@xercesc_2_8@@QAEXQAVIC_Field@2@QAVDatatypeValidator@2@QB_W@Z
       1726  6BD 00120FF0 ?adoptDocument@AbstractDOMParser@xercesc_2_8@@QAEPAVDOMDocument@2@XZ
       1727  6BE 00168A00 ?adoptNode@DOMDocumentImpl@xercesc_2_8@@UAEPAVDOMNode@2@PAV32@@Z
       1728  6BF 00101E10 ?alignAdjust@XSerializeEngine@xercesc_2_8@@ABEKK@Z
       1729  6C0 00101E30 ?alignBufCur@XSerializeEngine@xercesc_2_8@@AAEXK@Z
       1730  6C1 000EC240 ?alignPointerForNewBlockAllocation@XMLPlatformUtils@xercesc_2_8@@SAII@Z
       1731  6C2 00168640 ?allocate@DOMDocumentImpl@xercesc_2_8@@QAEPAXI@Z
       1732  6C3 00169C90 ?allocate@DOMDocumentImpl@xercesc_2_8@@QAEPAXIW4NodeObjectType@12@@Z
       1733  6C4 00125700 ?allocate@MemoryManagerArrayImpl@xercesc_2_8@@UAEPAXI@Z
       1734  6C5 00125700 ?allocate@MemoryManagerImpl@xercesc_2_8@@UAEPAXI@Z
       1735  6C6 0011F730 ?analyzeFirstCharacter@Token@xercesc_2_8@@QAEHQAVRangeToken@2@HQAVTokenFactory@2@@Z
       1736  6C7 00103BC0 ?anyAttributeAt@XercesAttGroupInfo@xercesc_2_8@@QAEPAVSchemaAttDef@2@I@Z
       1737  6C8 00103BC0 ?anyAttributeAt@XercesAttGroupInfo@xercesc_2_8@@QBEPBVSchemaAttDef@2@I@Z
       1738  6C9 00103BB0 ?anyAttributeCount@XercesAttGroupInfo@xercesc_2_8@@QBEIXZ
       1739  6CA 00156D00 ?anyAttributeValidation@IGXMLScanner@xercesc_2_8@@AAE_NPAVSchemaAttDef@2@IAA_N1@Z
       1740  6CB 00156D00 ?anyAttributeValidation@SGXMLScanner@xercesc_2_8@@AAE_NPAVSchemaAttDef@2@IAA_N1@Z
       1741  6CC 0013D890 ?append@ValueStore@xercesc_2_8@@QAEXQBV12@@Z
       1742  6CD 000ECCF0 ?append@XMLBuffer@xercesc_2_8@@QAEXQB_W@Z
       1743  6CE 000ECCA0 ?append@XMLBuffer@xercesc_2_8@@QAEXQB_WI@Z
       1744  6CF 000ECC70 ?append@XMLBuffer@xercesc_2_8@@QAEX_W@Z
       1745  6D0 00164600 ?appendChild@DOMAttrImpl@xercesc_2_8@@UAEPAVDOMNode@2@PAV32@@Z
       1746  6D1 00164600 ?appendChild@DOMCDATASectionImpl@xercesc_2_8@@UAEPAVDOMNode@2@PAV32@@Z
       1747  6D2 00162750 ?appendChild@DOMCommentImpl@xercesc_2_8@@UAEPAVDOMNode@2@PAV32@@Z
       1748  6D3 00164600 ?appendChild@DOMDocumentFragmentImpl@xercesc_2_8@@UAEPAVDOMNode@2@PAV32@@Z
       1749  6D4 00168590 ?appendChild@DOMDocumentImpl@xercesc_2_8@@UAEPAVDOMNode@2@PAV32@@Z
       1750  6D5 00164600 ?appendChild@DOMDocumentTypeImpl@xercesc_2_8@@UAEPAVDOMNode@2@PAV32@@Z
       1751  6D6 00164600 ?appendChild@DOMElementImpl@xercesc_2_8@@UAEPAVDOMNode@2@PAV32@@Z
       1752  6D7 00161140 ?appendChild@DOMEntityImpl@xercesc_2_8@@UAEPAVDOMNode@2@PAV32@@Z
       1753  6D8 00164600 ?appendChild@DOMEntityReferenceImpl@xercesc_2_8@@UAEPAVDOMNode@2@PAV32@@Z
       1754  6D9 00162A60 ?appendChild@DOMNodeImpl@xercesc_2_8@@QAEPAVDOMNode@2@PAV32@@Z
       1755  6DA 00162750 ?appendChild@DOMNotationImpl@xercesc_2_8@@UAEPAVDOMNode@2@PAV32@@Z
       1756  6DB 0015FD50 ?appendChild@DOMParentNode@xercesc_2_8@@QAEPAVDOMNode@2@PAV32@@Z
       1757  6DC 00162750 ?appendChild@DOMProcessingInstructionImpl@xercesc_2_8@@UAEPAVDOMNode@2@PAV32@@Z
       1758  6DD 00162750 ?appendChild@DOMTextImpl@xercesc_2_8@@UAEPAVDOMNode@2@PAV32@@Z
       1759  6DE 00160480 ?appendChildFast@DOMParentNode@xercesc_2_8@@QAEPAVDOMNode@2@PAV32@@Z
       1760  6DF 001B9030 ?appendData@DOMCDATASectionImpl@xercesc_2_8@@UAEXPB_W@Z
       1761  6E0 001B1B60 ?appendData@DOMCharacterDataImpl@xercesc_2_8@@QAEXPBVDOMNode@2@PB_W@Z
       1762  6E1 001B9FE0 ?appendData@DOMCommentImpl@xercesc_2_8@@UAEXPB_W@Z
       1763  6E2 001B9FE0 ?appendData@DOMTextImpl@xercesc_2_8@@UAEXPB_W@Z
       1764  6E3 0012B150 ?assertBuffer@XMLDateTime@xercesc_2_8@@ABEXXZ
       1765  6E4 0017E9B0 ?assignAdditionalFacet@AbstractNumericFacetValidator@xercesc_2_8@@MAEXQB_W0QAVMemoryManager@2@@Z
       1766  6E5 00180670 ?assignAdditionalFacet@AbstractStringValidator@xercesc_2_8@@MAEXQB_W0QAVMemoryManager@2@@Z
       1767  6E6 00176DD0 ?assignAdditionalFacet@DecimalDatatypeValidator@xercesc_2_8@@MAEXQB_W0QAVMemoryManager@2@@Z
       1768  6E7 00135480 ?assignAdditionalFacet@StringDatatypeValidator@xercesc_2_8@@MAEXQB_W0QAVMemoryManager@2@@Z
       1769  6E8 0017D780 ?assignFacet@AbstractNumericFacetValidator@xercesc_2_8@@AAEXQAVMemoryManager@2@@Z
       1770  6E9 0017F6C0 ?assignFacet@AbstractStringValidator@xercesc_2_8@@AAEXQAVMemoryManager@2@@Z
       1771  6EA 001190D0 ?atEOF@ReaderMgr@xercesc_2_8@@QBE_NXZ
       1772  6EB 000FFB80 ?atomicDecrement@XMLPlatformUtils@xercesc_2_8@@SAHAAH@Z
       1773  6EC 000FFB70 ?atomicIncrement@XMLPlatformUtils@xercesc_2_8@@SAHAAH@Z
       1774  6ED 00122970 ?attDef@AbstractDOMParser@xercesc_2_8@@UAEXABVDTDElementDecl@2@ABVDTDAttDef@2@_N@Z
       1775  6EE 001BD290 ?attDef@SAX2XMLReaderImpl@xercesc_2_8@@UAEXABVDTDElementDecl@2@ABVDTDAttDef@2@_N@Z
       1776  6EF 00023AA0 ?attDef@SAXParser@xercesc_2_8@@UAEXABVDTDElementDecl@2@ABVDTDAttDef@2@_N@Z
       1777  6F0 001A3450 ?attWildCardIntersection@TraverseSchema@xercesc_2_8@@AAEXQAVSchemaAttDef@2@QBV32@@Z
       1778  6F1 001A3760 ?attWildCardUnion@TraverseSchema@xercesc_2_8@@AAEXQAVSchemaAttDef@2@QBV32@@Z
       1779  6F2 000F3E80 ?attributeAt@XercesAttGroupInfo@xercesc_2_8@@QAEPAVSchemaAttDef@2@I@Z
       1780  6F3 000F3E80 ?attributeAt@XercesAttGroupInfo@xercesc_2_8@@QBEPBVSchemaAttDef@2@I@Z
       1781  6F4 000F3D90 ?attributeCount@XercesAttGroupInfo@xercesc_2_8@@QBEIXZ
       1782  6F5 003E53E8 ?base64Alphabet@Base64@xercesc_2_8@@0QBEB
       1783  6F6 0075B9C8 ?base64Inverse@Base64@xercesc_2_8@@0PAEA
       1784  6F7 003D561F ?base64Padding@Base64@xercesc_2_8@@0EB
       1785  6F8 00191A30 ?basicAttrValueScan@IGXMLScanner@xercesc_2_8@@AAE_NQB_WAAVXMLBuffer@2@@Z
       1786  6F9 00155EC0 ?basicAttrValueScan@SGXMLScanner@xercesc_2_8@@AAE_NQB_WAAVXMLBuffer@2@@Z
       1787  6FA 0013E300 ?basicEncodingProbe@XMLRecognizer@xercesc_2_8@@SA?AW4Encodings@12@QBEI@Z
       1788  6FB 0011BF50 ?bidOnBuffer@XMLBufferMgr@xercesc_2_8@@QAEAAVXMLBuffer@2@XZ
       1789  6FC 000FBC40 ?binToText@XMLString@xercesc_2_8@@SAXHQADIIQAVMemoryManager@2@@Z
       1790  6FD 000FC8D0 ?binToText@XMLString@xercesc_2_8@@SAXHQA_WIIQAVMemoryManager@2@@Z
       1791  6FE 000FBC30 ?binToText@XMLString@xercesc_2_8@@SAXIQADIIQAVMemoryManager@2@@Z
       1792  6FF 000FC880 ?binToText@XMLString@xercesc_2_8@@SAXIQA_WIIQAVMemoryManager@2@@Z
       1793  700 000FBC40 ?binToText@XMLString@xercesc_2_8@@SAXJQADIIQAVMemoryManager@2@@Z
       1794  701 000FC890 ?binToText@XMLString@xercesc_2_8@@SAXJQA_WIIQAVMemoryManager@2@@Z
       1795  702 000FBAD0 ?binToText@XMLString@xercesc_2_8@@SAXKQADIIQAVMemoryManager@2@@Z
       1796  703 000FC710 ?binToText@XMLString@xercesc_2_8@@SAXKQA_WIIQAVMemoryManager@2@@Z
       1797  704 001BB780 ?boundsCheck@AbstractNumericValidator@xercesc_2_8@@IAEXQBVXMLNumber@2@QAVMemoryManager@2@@Z
       1798  705 000F4610 ?bufferFull@XMLScanner@xercesc_2_8@@UAE_NAAVXMLBuffer@2@@Z
       1799  706 001A95B0 ?buildAllParticles@XSObjectFactory@xercesc_2_8@@AAEXQBVContentSpecNode@2@QAV?$RefVectorOf@VXSParticle@xercesc_2_8@@@2@QAVXSModel@2@@Z
       1800  707 00144DA0 ?buildAttList@DGXMLScanner@xercesc_2_8@@AAEIIPAVXMLElementDecl@2@AAV?$RefVectorOf@VXMLAttr@xercesc_2_8@@@2@@Z
       1801  708 0018E680 ?buildAttList@IGXMLScanner@xercesc_2_8@@AAEIABV?$RefVectorOf@VKVStringPair@xercesc_2_8@@@2@IPAVXMLElementDecl@2@AAV?$RefVectorOf@VXMLAttr@xercesc_2_8@@@2@@Z
       1802  709 001529C0 ?buildAttList@SGXMLScanner@xercesc_2_8@@IAEIABV?$RefVectorOf@VKVStringPair@xercesc_2_8@@@2@IPAVXMLElementDecl@2@AAV?$RefVectorOf@VXMLAttr@xercesc_2_8@@@2@@Z
       1803  70A 001A9620 ?buildChoiceSequenceParticles@XSObjectFactory@xercesc_2_8@@AAEXQBVContentSpecNode@2@QAV?$RefVectorOf@VXSParticle@xercesc_2_8@@@2@QAVXSModel@2@@Z
       1804  70B 0011CD70 ?buildContentModel@ComplexTypeInfo@xercesc_2_8@@AAEPAVXMLContentModel@2@QAVContentSpecNode@2@@Z
       1805  70C 000EF2B0 ?buildFullText@XMLURL@xercesc_2_8@@AAEXXZ
       1806  70D 000FA930 ?buildFullText@XMLUri@xercesc_2_8@@AAEXXZ
       1807  70E 001C09B0 ?buildNamespaceList@XSWildcard@xercesc_2_8@@AAEXQBVContentSpecNode@2@@Z
       1808  70F 00182370 ?buildRanges@ASCIIRangeFactory@xercesc_2_8@@MAEXPAVRangeTokenMap@2@@Z
       1809  710 001820D0 ?buildRanges@BlockRangeFactory@xercesc_2_8@@MAEXPAVRangeTokenMap@2@@Z
       1810  711 00180FF0 ?buildRanges@UnicodeRangeFactory@xercesc_2_8@@MAEXPAVRangeTokenMap@2@@Z
       1811  712 00180880 ?buildRanges@XMLRangeFactory@xercesc_2_8@@MAEXPAVRangeTokenMap@2@@Z
       1812  713 0013C870 ?buildTokenRanges@RangeTokenMap@xercesc_2_8@@AAEXXZ
       1813  714 001A2180 ?buildValidSubstitutionListB@TraverseSchema@xercesc_2_8@@AAEXQBVDOMElement@2@QAVSchemaElementDecl@2@1@Z
       1814  715 001A2420 ?buildValidSubstitutionListF@TraverseSchema@xercesc_2_8@@AAEXQBVDOMElement@2@QAVSchemaElementDecl@2@1@Z
       1815  716 00159880 ?cacheGrammar@XMLGrammarPoolImpl@xercesc_2_8@@UAE_NQAVGrammar@2@@Z
       1816  717 0011ECF0 ?cacheGrammarFromParse@GrammarResolver@xercesc_2_8@@QAEX_N@Z
       1817  718 000F5B00 ?cacheGrammarFromParse@SAXParser@xercesc_2_8@@QAEX_N@Z
       1818  719 000F4A90 ?cacheGrammarFromParse@XMLScanner@xercesc_2_8@@QAEX_N@Z
       1819  71A 000F7910 ?cacheGrammarFromParse@XercesDOMParser@xercesc_2_8@@QAEX_N@Z
       1820  71B 0011EAD0 ?cacheGrammars@GrammarResolver@xercesc_2_8@@QAEXXZ
       1821  71C 001B9360 ?cacheItem@DOMDeepNodeListImpl@xercesc_2_8@@QAEPAVDOMNode@2@K@Z
       1822  71D 00101E60 ?calBytesNeeded@XSerializeEngine@xercesc_2_8@@ABEKK@Z
       1823  71E 001249F0 ?calcRequiredSize@Win32LCPTranscoder@xercesc_2_8@@UAEIQBDQAVMemoryManager@2@@Z
       1824  71F 00124A20 ?calcRequiredSize@Win32LCPTranscoder@xercesc_2_8@@UAEIQB_WQAVMemoryManager@2@@Z
       1825  720 00169550 ?callUserDataHandlers@DOMDocumentImpl@xercesc_2_8@@QBEXPBVDOMNodeImpl@2@W4DOMOperationType@DOMUserDataHandler@2@PBVDOMNode@2@2@Z
       1826  721 00162ED0 ?callUserDataHandlers@DOMNodeImpl@xercesc_2_8@@QBEXW4DOMOperationType@DOMUserDataHandler@2@PBVDOMNode@2@1@Z
       1827  722 001B64B0 ?canSetFeature@DOMBuilderImpl@xercesc_2_8@@UBE_NQB_W_N@Z
       1828  723 001B5310 ?canSetFeature@DOMWriterImpl@xercesc_2_8@@IBE_NH_N@Z
       1829  724 001B3280 ?canSetFeature@DOMWriterImpl@xercesc_2_8@@UBE_NQB_W_N@Z
       1830  725 001B84F0 ?canSetParameter@DOMConfigurationImpl@xercesc_2_8@@UBE_NPB_WPBX@Z
       1831  726 00124930 ?canTranscodeTo@Win32Transcoder@xercesc_2_8@@UBE_NI@Z
       1832  727 00184490 ?canTranscodeTo@XML256TableTranscoder@xercesc_2_8@@UBE_NI@Z
       1833  728 0016DDB0 ?canTranscodeTo@XML88591Transcoder@xercesc_2_8@@UBE_NI@Z
       1834  729 0016EEA0 ?canTranscodeTo@XMLASCIITranscoder@xercesc_2_8@@UBE_NI@Z
       1835  72A 000D24C0 ?canTranscodeTo@XMLChTranscoder@xercesc_2_8@@UBE_NI@Z
       1836  72B 000D24C0 ?canTranscodeTo@XMLUCS4Transcoder@xercesc_2_8@@UBE_NI@Z
       1837  72C 000D24C0 ?canTranscodeTo@XMLUTF16Transcoder@xercesc_2_8@@UBE_NI@Z
       1838  72D 0016ECA0 ?canTranscodeTo@XMLUTF8Transcoder@xercesc_2_8@@UBE_NI@Z
       1839  72E 001002B0 ?castTo@?$XMLHolder@U_RTL_CRITICAL_SECTION@@@xercesc_2_8@@SAPAV12@PAX@Z
       1840  72F 000FBC80 ?catString@XMLString@xercesc_2_8@@SAXQADQBD@Z
       1841  730 000FC910 ?catString@XMLString@xercesc_2_8@@SAXQA_WQB_W@Z
       1842  731 001A4EF0 ?changeRedefineGroup@TraverseSchema@xercesc_2_8@@AAEHQBVDOMElement@2@QB_W1H@Z
       1843  732 00168570 ?changed@DOMDocumentImpl@xercesc_2_8@@UAEXXZ
       1844  733 0015FD30 ?changed@DOMParentNode@xercesc_2_8@@QAEXXZ
       1845  734 00168580 ?changes@DOMDocumentImpl@xercesc_2_8@@UBEHXZ
       1846  735 0015FD40 ?changes@DOMParentNode@xercesc_2_8@@QBEHXZ
       1847  736 000F2600 ?charsLeftInBuffer@XMLReader@xercesc_2_8@@QBEKXZ
       1848  737 000C1D60 ?checkAdditionalFacet@AbstractStringValidator@xercesc_2_8@@MBEXQB_WQAVMemoryManager@2@@Z
       1849  738 001356C0 ?checkAdditionalFacet@StringDatatypeValidator@xercesc_2_8@@MBEXQB_WQAVMemoryManager@2@@Z
       1850  739 000F7710 ?checkAdditionalFacetConstraints@AbstractNumericFacetValidator@xercesc_2_8@@MBEXQAVMemoryManager@2@@Z
       1851  73A 000F7710 ?checkAdditionalFacetConstraints@AbstractStringValidator@xercesc_2_8@@MBEXQAVMemoryManager@2@@Z
       1852  73B 00176FF0 ?checkAdditionalFacetConstraints@DecimalDatatypeValidator@xercesc_2_8@@MBEXQAVMemoryManager@2@@Z
       1853  73C 001355C0 ?checkAdditionalFacetConstraints@StringDatatypeValidator@xercesc_2_8@@MBEXQAVMemoryManager@2@@Z
       1854  73D 000F7710 ?checkAdditionalFacetConstraintsBase@AbstractNumericFacetValidator@xercesc_2_8@@MBEXQAVMemoryManager@2@@Z
       1855  73E 001770B0 ?checkAdditionalFacetConstraintsBase@DecimalDatatypeValidator@xercesc_2_8@@MBEXQAVMemoryManager@2@@Z
       1856  73F 001018B0 ?checkAndFillBuffer@XSerializeEngine@xercesc_2_8@@AAEXH@Z
       1857  740 001017E0 ?checkAndFlushBuffer@XSerializeEngine@xercesc_2_8@@AAEXH@Z
       1858  741 001A3B50 ?checkAttDerivationOK@TraverseSchema@xercesc_2_8@@AAEXQBVDOMElement@2@QBVComplexTypeInfo@2@1@Z
       1859  742 001A3E90 ?checkAttDerivationOK@TraverseSchema@xercesc_2_8@@AAEXQBVDOMElement@2@QBVXercesAttGroupInfo@2@1@Z
       1860  743 00170000 ?checkAttributes@GeneralAttributeCheck@xercesc_2_8@@QAEXQBVDOMElement@2@GQAVTraverseSchema@2@_NQAV?$ValueVectorOf@PAVDOMNode@xercesc_2_8@@@2@@Z
       1861  744 000F7710 ?checkBlockSize@XMLTranscoder@xercesc_2_8@@IAEXI@Z
       1862  745 00175010 ?checkBoundary@XMLDouble@xercesc_2_8@@MAEXQAD@Z
       1863  746 001737A0 ?checkBoundary@XMLFloat@xercesc_2_8@@MAEXQAD@Z
       1864  747 001802A0 ?checkContent@AbstractStringValidator@xercesc_2_8@@MAEXQB_WQAVValidationContext@2@_NQAVMemoryManager@2@@Z
       1865  748 00178310 ?checkContent@BooleanDatatypeValidator@xercesc_2_8@@EAEXQB_WQAVValidationContext@2@_NQAVMemoryManager@2@@Z
       1866  749 00184FA0 ?checkContent@DTDValidator@xercesc_2_8@@UAEHQAVXMLElementDecl@2@QAPAVQName@2@I@Z
       1867  74A 001BB250 ?checkContent@DateTimeValidator@xercesc_2_8@@MAEXQB_WQAVValidationContext@2@_NQAVMemoryManager@2@@Z
       1868  74B 00177790 ?checkContent@DecimalDatatypeValidator@xercesc_2_8@@MAEXQB_WQAVValidationContext@2@_NQAVMemoryManager@2@@Z
       1869  74C 001746E0 ?checkContent@DoubleDatatypeValidator@xercesc_2_8@@MAEXQB_WQAVValidationContext@2@_NQAVMemoryManager@2@@Z
       1870  74D 0017A2D0 ?checkContent@FloatDatatypeValidator@xercesc_2_8@@MAEXQB_WQAVValidationContext@2@_NQAVMemoryManager@2@@Z
       1871  74E 00178F60 ?checkContent@ListDatatypeValidator@xercesc_2_8@@AAEXPAV?$BaseRefVectorOf@_W@2@QB_WQAVValidationContext@2@_NQAVMemoryManager@2@@Z
       1872  74F 00178ED0 ?checkContent@ListDatatypeValidator@xercesc_2_8@@MAEXQB_WQAVValidationContext@2@_NQAVMemoryManager@2@@Z
       1873  750 00178800 ?checkContent@NOTATIONDatatypeValidator@xercesc_2_8@@MAEXQB_WQAVValidationContext@2@_NQAVMemoryManager@2@@Z
       1874  751 00172B70 ?checkContent@QNameDatatypeValidator@xercesc_2_8@@MAEXQB_WQAVValidationContext@2@_NQAVMemoryManager@2@@Z
       1875  752 0018B420 ?checkContent@SchemaValidator@xercesc_2_8@@UAEHQAVXMLElementDecl@2@QAPAVQName@2@I@Z
       1876  753 0019EAD0 ?checkContent@TraverseSchema@xercesc_2_8@@AAEPAVDOMElement@2@QBV32@QAV32@_N_N@Z
       1877  754 00104D50 ?checkContent@UnionDatatypeValidator@xercesc_2_8@@EAEXQB_WQAVValidationContext@2@_NQAVMemoryManager@2@@Z
       1878  755 001A63C0 ?checkElemDeclValueConstraint@TraverseSchema@xercesc_2_8@@AAE_NQBVDOMElement@2@QAVSchemaElementDecl@2@QB_WQAVComplexTypeInfo@2@QAVDatatypeValidator@2@@Z
       1879  756 00135B40 ?checkEntity@ValidationContextImpl@xercesc_2_8@@UBEXQB_W@Z
       1880  757 001A2630 ?checkEnumerationRequiredNotation@TraverseSchema@xercesc_2_8@@AAEXQBVDOMElement@2@QB_W1@Z
       1881  758 001B49D0 ?checkFeature@DOMWriterImpl@xercesc_2_8@@IBE_NQB_W_NAAH@Z
       1882  759 001B4980 ?checkFilter@DOMWriterImpl@xercesc_2_8@@IBE?AW4FilterAction@DOMNodeFilter@2@QBVDOMNode@2@@Z
       1883  75A 001A1FF0 ?checkFixedFacet@TraverseSchema@xercesc_2_8@@AAEXQBVDOMElement@2@QB_WQBVDatatypeValidator@2@AAI@Z
       1884  75B 0019EDB0 ?checkForComplexTypeInfo@TraverseSchema@xercesc_2_8@@AAEPAVComplexTypeInfo@2@QBVDOMElement@2@@Z
       1885  75C 0014FD10 ?checkForEmptyTargetNamespace@TraverseSchema@xercesc_2_8@@AAEXQBVDOMElement@2@@Z
       1886  75D 00185B60 ?checkForPERef@DTDScanner@xercesc_2_8@@AAE_N_N0@Z
       1887  75E 0018D2A0 ?checkForPointlessOccurrences@SchemaValidator@xercesc_2_8@@AAEPAVContentSpecNode@2@QAV32@W4NodeTypes@32@QAV?$ValueVectorOf@PAVContentSpecNode@xercesc_2_8@@@2@@Z
       1888  75F 00128AA0 ?checkForSelectedAttributes@XercesXPath@xercesc_2_8@@AAEXXZ
       1889  760 0019ED40 ?checkForSimpleTypeValidator@TraverseSchema@xercesc_2_8@@AAEPAVDatatypeValidator@2@QBVDOMElement@2@H@Z
       1890  761 00112A60 ?checkForSwapped@XMLReader@xercesc_2_8@@AAEXXZ
       1891  762 0018D860 ?checkICRestriction@SchemaValidator@xercesc_2_8@@AAEXQBVSchemaElementDecl@2@0QB_W1@Z
       1892  763 001093F0 ?checkIDRefs@XMLScanner@xercesc_2_8@@IAEXXZ
       1893  764 0019F620 ?checkIdentityConstraintContent@TraverseSchema@xercesc_2_8@@AAEPBVDOMElement@2@QBV32@@Z
       1894  765 001B02B0 ?checkIndex@DOMRangeImpl@xercesc_2_8@@ABEXPBVDOMNode@2@K@Z
       1895  766 001092D0 ?checkInternalDTD@XMLScanner@xercesc_2_8@@IAEX_NQB_W1@Z
       1896  767 0018E3C0 ?checkMapAndSum@SchemaValidator@xercesc_2_8@@AAEXQAVSchemaGrammar@2@QBVContentSpecNode@2@QAV?$ValueVectorOf@PAVContentSpecNode@xercesc_2_8@@@2@HQAV42@2HQBVComplexTypeInfo@2@@Z
       1897  768 001A06B0 ?checkMinMax@TraverseSchema@xercesc_2_8@@AAEXQAVContentSpecNode@2@QBVDOMElement@2@H@Z
       1898  769 0018D410 ?checkNSCompat@SchemaValidator@xercesc_2_8@@AAEXQBVContentSpecNode@2@0_N@Z
       1899  76A 0018E050 ?checkNSRecurseCheckCardinality@SchemaValidator@xercesc_2_8@@AAEXQAVSchemaGrammar@2@QBVContentSpecNode@2@QAV?$ValueVectorOf@PAVContentSpecNode@xercesc_2_8@@@2@HQAV42@_N@Z
       1900  76B 0018DF50 ?checkNSSubset@SchemaValidator@xercesc_2_8@@AAEXQBVContentSpecNode@2@0@Z
       1901  76C 0018D530 ?checkNameAndTypeOK@SchemaValidator@xercesc_2_8@@AAEXQAVSchemaGrammar@2@QBVContentSpecNode@2@H1HQBVComplexTypeInfo@2@@Z
       1902  76D 0018CBB0 ?checkParticleDerivation@SchemaValidator@xercesc_2_8@@AAEXQAVSchemaGrammar@2@QBVComplexTypeInfo@2@@Z
       1903  76E 0018CCA0 ?checkParticleDerivationOk@SchemaValidator@xercesc_2_8@@AAEXQAVSchemaGrammar@2@QAVContentSpecNode@2@H1HQBVComplexTypeInfo@2@_N@Z
       1904  76F 0013B740 ?checkQuestion@ParserForXMLSchema@xercesc_2_8@@MAE_NH@Z
       1905  770 00139410 ?checkQuestion@RegxParser@xercesc_2_8@@MAE_NH@Z
       1906  771 001B1340 ?checkReadOnly@DOMRangeImpl@xercesc_2_8@@AAEXPAVDOMNode@2@0KK@Z
       1907  772 0018DD20 ?checkRecurse@SchemaValidator@xercesc_2_8@@AAEXQAVSchemaGrammar@2@QBVContentSpecNode@2@HQAV?$ValueVectorOf@PAVContentSpecNode@xercesc_2_8@@@2@1H2QBVComplexTypeInfo@2@_N@Z
       1908  773 0018DB30 ?checkRecurseAsIfGroup@SchemaValidator@xercesc_2_8@@AAEXQAVSchemaGrammar@2@QAVContentSpecNode@2@HQBV42@HQAV?$ValueVectorOf@PAVContentSpecNode@xercesc_2_8@@@2@QBVComplexTypeInfo@2@@Z
       1909  774 0018E130 ?checkRecurseUnordered@SchemaValidator@xercesc_2_8@@AAEXQAVSchemaGrammar@2@QBVContentSpecNode@2@QAV?$ValueVectorOf@PAVContentSpecNode@xercesc_2_8@@@2@HQAV42@2HQBVComplexTypeInfo@2@@Z
       1910  775 0018C940 ?checkRefElementConsistency@SchemaValidator@xercesc_2_8@@AAEXQAVSchemaGrammar@2@QBVComplexTypeInfo@2@QBVXercesGroupInfo@2@@Z
       1911  776 000D24C0 ?checkRootElement@XMLValidator@xercesc_2_8@@QAE_NI@Z
       1912  777 00185780 ?checkTokenList@DTDValidator@xercesc_2_8@@AAEXABVXMLAttDef@2@_N@Z
       1913  778 00125A20 ?checkTrailingBytes@XMLUTF8Transcoder@xercesc_2_8@@ABEXEII@Z
       1914  779 0019F720 ?checkTypeFromAnotherSchema@TraverseSchema@xercesc_2_8@@AAEPB_WQBVDOMElement@2@QB_W@Z
       1915  77A 0018D9E0 ?checkTypesOK@SchemaValidator@xercesc_2_8@@AAEXQBVSchemaElementDecl@2@0QB_W@Z
       1916  77B 0011CAD0 ?checkUniqueParticleAttribution@ComplexTypeInfo@xercesc_2_8@@QAEXQAVSchemaGrammar@2@QAVGrammarResolver@2@QAVXMLStringPool@2@QAVXMLValidator@2@@Z
       1917  77C 00174DF0 ?checkValueSpace@AnyURIDatatypeValidator@xercesc_2_8@@MAEXQB_WQAVMemoryManager@2@@Z
       1918  77D 0017A6C0 ?checkValueSpace@Base64BinaryDatatypeValidator@xercesc_2_8@@MAEXQB_WQAVMemoryManager@2@@Z
       1919  77E 001757D0 ?checkValueSpace@ENTITYDatatypeValidator@xercesc_2_8@@MAEXQB_WQAVMemoryManager@2@@Z
       1920  77F 00173FE0 ?checkValueSpace@HexBinaryDatatypeValidator@xercesc_2_8@@MAEXQB_WQAVMemoryManager@2@@Z
       1921  780 001344F0 ?checkValueSpace@IDDatatypeValidator@xercesc_2_8@@MAEXQB_WQAVMemoryManager@2@@Z
       1922  781 00173620 ?checkValueSpace@IDREFDatatypeValidator@xercesc_2_8@@MAEXQB_WQAVMemoryManager@2@@Z
       1923  782 000C1D60 ?checkValueSpace@ListDatatypeValidator@xercesc_2_8@@MAEXQB_WQAVMemoryManager@2@@Z
       1924  783 00173AE0 ?checkValueSpace@NCNameDatatypeValidator@xercesc_2_8@@MAEXQB_WQAVMemoryManager@2@@Z
       1925  784 001787A0 ?checkValueSpace@NOTATIONDatatypeValidator@xercesc_2_8@@MAEXQB_WQAVMemoryManager@2@@Z
       1926  785 00175CA0 ?checkValueSpace@NameDatatypeValidator@xercesc_2_8@@MAEXQB_WQAVMemoryManager@2@@Z
       1927  786 00172B20 ?checkValueSpace@QNameDatatypeValidator@xercesc_2_8@@MAEXQB_WQAVMemoryManager@2@@Z
       1928  787 000C1D60 ?checkValueSpace@StringDatatypeValidator@xercesc_2_8@@MAEXQB_WQAVMemoryManager@2@@Z
       1929  788 00108CC0 ?checkXMLDecl@XMLScanner@xercesc_2_8@@QAE_N_N@Z
       1930  789 0014F7B0 ?circularImportExist@SchemaInfo@xercesc_2_8@@QAE_NI@Z
       1931  78A 0075BB88 ?classAbstractNumericFacetValidator@AbstractNumericFacetValidator@xercesc_2_8@@2VXProtoType@2@A
       1932  78B 0075B85C ?classAbstractNumericValidator@AbstractNumericValidator@xercesc_2_8@@2VXProtoType@2@A
       1933  78C 0075BB64 ?classAbstractStringValidator@AbstractStringValidator@xercesc_2_8@@2VXProtoType@2@A
       1934  78D 0075BBE8 ?classAnySimpleTypeDatatypeValidator@AnySimpleTypeDatatypeValidator@xercesc_2_8@@2VXProtoType@2@A
       1935  78E 0075BC68 ?classAnyURIDatatypeValidator@AnyURIDatatypeValidator@xercesc_2_8@@2VXProtoType@2@A
       1936  78F 0075BBA0 ?classBase64BinaryDatatypeValidator@Base64BinaryDatatypeValidator@xercesc_2_8@@2VXProtoType@2@A
       1937  790 0075BBDC ?classBooleanDatatypeValidator@BooleanDatatypeValidator@xercesc_2_8@@2VXProtoType@2@A
       1938  791 0075CCBC ?classComplexTypeInfo@ComplexTypeInfo@xercesc_2_8@@2VXProtoType@2@A
       1939  792 0075CC38 ?classContentSpecNode@ContentSpecNode@xercesc_2_8@@2VXProtoType@2@A
       1940  793 0075CCEC ?classDTDAttDef@DTDAttDef@xercesc_2_8@@2VXProtoType@2@A
       1941  794 0075CB84 ?classDTDAttDefList@DTDAttDefList@xercesc_2_8@@2VXProtoType@2@A
       1942  795 0075CD38 ?classDTDElementDecl@DTDElementDecl@xercesc_2_8@@2VXProtoType@2@A
       1943  796 0075CD1C ?classDTDEntityDecl@DTDEntityDecl@xercesc_2_8@@2VXProtoType@2@A
       1944  797 0075CB5C ?classDTDGrammar@DTDGrammar@xercesc_2_8@@2VXProtoType@2@A
       1945  798 0075CC44 ?classDatatypeValidator@DatatypeValidator@xercesc_2_8@@2VXProtoType@2@A
       1946  799 0075CC2C ?classDatatypeValidatorFactory@DatatypeValidatorFactory@xercesc_2_8@@2VXProtoType@2@A
       1947  79A 0075BBF4 ?classDateDatatypeValidator@DateDatatypeValidator@xercesc_2_8@@2VXProtoType@2@A
       1948  79B 0075BCD4 ?classDateTimeDatatypeValidator@DateTimeDatatypeValidator@xercesc_2_8@@2VXProtoType@2@A
       1949  79C 0075B868 ?classDateTimeValidator@DateTimeValidator@xercesc_2_8@@2VXProtoType@2@A
       1950  79D 0075BC2C ?classDayDatatypeValidator@DayDatatypeValidator@xercesc_2_8@@2VXProtoType@2@A
       1951  79E 0075BC00 ?classDecimalDatatypeValidator@DecimalDatatypeValidator@xercesc_2_8@@2VXProtoType@2@A
       1952  79F 0075BC80 ?classDoubleDatatypeValidator@DoubleDatatypeValidator@xercesc_2_8@@2VXProtoType@2@A
       1953  7A0 0075BC50 ?classDurationDatatypeValidator@DurationDatatypeValidator@xercesc_2_8@@2VXProtoType@2@A
       1954  7A1 0075BC38 ?classENTITYDatatypeValidator@ENTITYDatatypeValidator@xercesc_2_8@@2VXProtoType@2@A
       1955  7A2 0075BBAC ?classFloatDatatypeValidator@FloatDatatypeValidator@xercesc_2_8@@2VXProtoType@2@A
       1956  7A3 0075CCD4 ?classGrammar@Grammar@xercesc_2_8@@2VXProtoType@2@A
       1957  7A4 0075BC8C ?classHexBinaryDatatypeValidator@HexBinaryDatatypeValidator@xercesc_2_8@@2VXProtoType@2@A
       1958  7A5 0075CD7C ?classIC_Field@IC_Field@xercesc_2_8@@2VXProtoType@2@A
       1959  7A6 0075BB3C ?classIC_Key@IC_Key@xercesc_2_8@@2VXProtoType@2@A
       1960  7A7 0075BB24 ?classIC_KeyRef@IC_KeyRef@xercesc_2_8@@2VXProtoType@2@A
       1961  7A8 0075BB48 ?classIC_Selector@IC_Selector@xercesc_2_8@@2VXProtoType@2@A
       1962  7A9 0075BB30 ?classIC_Unique@IC_Unique@xercesc_2_8@@2VXProtoType@2@A
       1963  7AA 0075CC10 ?classIDDatatypeValidator@IDDatatypeValidator@xercesc_2_8@@2VXProtoType@2@A
       1964  7AB 0075BCBC ?classIDREFDatatypeValidator@IDREFDatatypeValidator@xercesc_2_8@@2VXProtoType@2@A
       1965  7AC 0075CBD8 ?classIdentityConstraint@IdentityConstraint@xercesc_2_8@@2VXProtoType@2@A
       1966  7AD 0075CCE0 ?classKVStringPair@KVStringPair@xercesc_2_8@@2VXProtoType@2@A
       1967  7AE 0075BBC4 ?classListDatatypeValidator@ListDatatypeValidator@xercesc_2_8@@2VXProtoType@2@A
       1968  7AF 0075BCC8 ?classMonthDatatypeValidator@MonthDatatypeValidator@xercesc_2_8@@2VXProtoType@2@A
       1969  7B0 0075BC98 ?classMonthDayDatatypeValidator@MonthDayDatatypeValidator@xercesc_2_8@@2VXProtoType@2@A
       1970  7B1 0075BCA4 ?classNCNameDatatypeValidator@NCNameDatatypeValidator@xercesc_2_8@@2VXProtoType@2@A
       1971  7B2 0075BBD0 ?classNOTATIONDatatypeValidator@NOTATIONDatatypeValidator@xercesc_2_8@@2VXProtoType@2@A
       1972  7B3 0075BC20 ?classNameDatatypeValidator@NameDatatypeValidator@xercesc_2_8@@2VXProtoType@2@A
       1973  7B4 0075CD6C ?classQName@QName@xercesc_2_8@@2VXProtoType@2@A
       1974  7B5 0075BCE0 ?classQNameDatatypeValidator@QNameDatatypeValidator@xercesc_2_8@@2VXProtoType@2@A
       1975  7B6 0075CD8C ?classSchemaAttDef@SchemaAttDef@xercesc_2_8@@2VXProtoType@2@A
       1976  7B7 0075CBA4 ?classSchemaAttDefList@SchemaAttDefList@xercesc_2_8@@2VXProtoType@2@A
       1977  7B8 0075CD60 ?classSchemaElementDecl@SchemaElementDecl@xercesc_2_8@@2VXProtoType@2@A
       1978  7B9 0075CC04 ?classSchemaGrammar@SchemaGrammar@xercesc_2_8@@2VXProtoType@2@A
       1979  7BA 0075CBEC ?classStringDatatypeValidator@StringDatatypeValidator@xercesc_2_8@@2VXProtoType@2@A
       1980  7BB 0075BBB8 ?classTimeDatatypeValidator@TimeDatatypeValidator@xercesc_2_8@@2VXProtoType@2@A
       1981  7BC 0075CDA0 ?classUnionDatatypeValidator@UnionDatatypeValidator@xercesc_2_8@@2VXProtoType@2@A
       1982  7BD 0075BC14 ?classXMLAbstractDoubleFloat@XMLAbstractDoubleFloat@xercesc_2_8@@2VXProtoType@2@A
       1983  7BE 0075CD00 ?classXMLAttDef@XMLAttDef@xercesc_2_8@@2VXProtoType@2@A
       1984  7BF 0075CD54 ?classXMLAttDefList@XMLAttDefList@xercesc_2_8@@2VXProtoType@2@A
       1985  7C0 0075B8B4 ?classXMLBigDecimal@XMLBigDecimal@xercesc_2_8@@2VXProtoType@2@A
       1986  7C1 0075CB68 ?classXMLDTDDescription@XMLDTDDescription@xercesc_2_8@@2VXProtoType@2@A
       1987  7C2 0075CB40 ?classXMLDTDDescriptionImpl@XMLDTDDescriptionImpl@xercesc_2_8@@2VXProtoType@2@A
       1988  7C3 0075BB94 ?classXMLDateTime@XMLDateTime@xercesc_2_8@@2VXProtoType@2@A
       1989  7C4 0075BC5C ?classXMLDouble@XMLDouble@xercesc_2_8@@2VXProtoType@2@A
       1990  7C5 0075CDAC ?classXMLElementDecl@XMLElementDecl@xercesc_2_8@@2VXProtoType@2@A
       1991  7C6 0075CD10 ?classXMLEntityDecl@XMLEntityDecl@xercesc_2_8@@2VXProtoType@2@A
       1992  7C7 0075BCB0 ?classXMLFloat@XMLFloat@xercesc_2_8@@2VXProtoType@2@A
       1993  7C8 0075CC9C ?classXMLGrammarDescription@XMLGrammarDescription@xercesc_2_8@@2VXProtoType@2@A
       1994  7C9 0075CCB0 ?classXMLNotationDecl@XMLNotationDecl@xercesc_2_8@@2VXProtoType@2@A
       1995  7CA 0075BB7C ?classXMLNumber@XMLNumber@xercesc_2_8@@2VXProtoType@2@A
       1996  7CB 0075CD48 ?classXMLRefInfo@XMLRefInfo@xercesc_2_8@@2VXProtoType@2@A
       1997  7CC 0075CCC8 ?classXMLSchemaDescription@XMLSchemaDescription@xercesc_2_8@@2VXProtoType@2@A
       1998  7CD 0075CB4C ?classXMLSchemaDescriptionImpl@XMLSchemaDescriptionImpl@xercesc_2_8@@2VXProtoType@2@A
       1999  7CE 0075CD2C ?classXMLStringPool@XMLStringPool@xercesc_2_8@@2VXProtoType@2@A
       2000  7CF 0077CDDC ?classXMLUri@XMLUri@xercesc_2_8@@2VXProtoType@2@A
       2001  7D0 0075BB70 ?classXSAnnotation@XSAnnotation@xercesc_2_8@@2VXProtoType@2@A
       2002  7D1 0075CBF8 ?classXercesAttGroupInfo@XercesAttGroupInfo@xercesc_2_8@@2VXProtoType@2@A
       2003  7D2 0075CC1C ?classXercesGroupInfo@XercesGroupInfo@xercesc_2_8@@2VXProtoType@2@A
       2004  7D3 0075CC60 ?classXercesLocationPath@XercesLocationPath@xercesc_2_8@@2VXProtoType@2@A
       2005  7D4 0075CC50 ?classXercesNodeTest@XercesNodeTest@xercesc_2_8@@2VXProtoType@2@A
       2006  7D5 0075CC58 ?classXercesStep@XercesStep@xercesc_2_8@@2VXProtoType@2@A
       2007  7D6 0075CC68 ?classXercesXPath@XercesXPath@xercesc_2_8@@2VXProtoType@2@A
       2008  7D7 0075BC44 ?classYearDatatypeValidator@YearDatatypeValidator@xercesc_2_8@@2VXProtoType@2@A
       2009  7D8 0075BC74 ?classYearMonthDatatypeValidator@YearMonthDatatypeValidator@xercesc_2_8@@2VXProtoType@2@A
       2010  7D9 001190F0 ?cleanStackBackTo@ReaderMgr@xercesc_2_8@@QAEXI@Z
       2011  7DA 00120DE0 ?cleanUp@AbstractDOMParser@xercesc_2_8@@AAEXXZ
       2012  7DB 00113F30 ?cleanUp@BMPattern@xercesc_2_8@@AAEXXZ
       2013  7DC 001159A0 ?cleanUp@ContentLeafNameTypeVector@xercesc_2_8@@AAEXXZ
       2014  7DD 00144CC0 ?cleanUp@DGXMLScanner@xercesc_2_8@@AAEXXZ
       2015  7DE 0012B5C0 ?cleanUp@DatatypeValidator@xercesc_2_8@@AAEXXZ
       2016  7DF 00104000 ?cleanUp@DatatypeValidatorFactory@xercesc_2_8@@AAEXXZ
       2017  7E0 0013CEC0 ?cleanUp@FieldValueMap@xercesc_2_8@@AAEXXZ
       2018  7E1 00147E70 ?cleanUp@IGXMLScanner@xercesc_2_8@@AAEXXZ
       2019  7E2 0013D3F0 ?cleanUp@IdentityConstraint@xercesc_2_8@@AAEXXZ
       2020  7E3 001938F0 ?cleanUp@IdentityConstraintHandler@xercesc_2_8@@AAEXXZ
       2021  7E4 0013A760 ?cleanUp@Match@xercesc_2_8@@AAEXXZ
       2022  7E5 001139F0 ?cleanUp@QName@xercesc_2_8@@QAEXXZ
       2023  7E6 0013C9E0 ?cleanUp@RangeTokenMap@xercesc_2_8@@AAEXXZ
       2024  7E7 000F0C20 ?cleanUp@RegularExpression@xercesc_2_8@@AAEXXZ
       2025  7E8 001BC0F0 ?cleanUp@SAX2XMLReaderImpl@xercesc_2_8@@AAEXXZ
       2026  7E9 000F5530 ?cleanUp@SAXParser@xercesc_2_8@@AAEXXZ
       2027  7EA 00152770 ?cleanUp@SGXMLScanner@xercesc_2_8@@AAEXXZ
       2028  7EB 00134B70 ?cleanUp@SchemaGrammar@xercesc_2_8@@AAEXXZ
       2029  7EC 001A5B20 ?cleanUp@TraverseSchema@xercesc_2_8@@AAEXXZ
       2030  7ED 000F3280 ?cleanUp@UnionDatatypeValidator@xercesc_2_8@@AAEXXZ
       2031  7EE 001833E0 ?cleanUp@ValueStoreCache@xercesc_2_8@@AAEXXZ
       2032  7EF 0014C980 ?cleanUp@WFXMLScanner@xercesc_2_8@@AAEXXZ
       2033  7F0 00118930 ?cleanUp@XMLAttDef@xercesc_2_8@@AAEXXZ
       2034  7F1 000F15C0 ?cleanUp@XMLAttr@xercesc_2_8@@AAEXXZ
       2035  7F2 001AD200 ?cleanUp@XMLBigDecimal@xercesc_2_8@@AAEXXZ
       2036  7F3 00117740 ?cleanUp@XMLEntityDecl@xercesc_2_8@@AAEXXZ
       2037  7F4 0015A060 ?cleanUp@XMLGrammarPoolImpl@xercesc_2_8@@AAEXXZ
       2038  7F5 0011DCF0 ?cleanUp@XMLNotationDecl@xercesc_2_8@@AAEXXZ
       2039  7F6 00107740 ?cleanUp@XMLScanner@xercesc_2_8@@AAEXXZ
       2040  7F7 00194480 ?cleanUp@XMLStringTokenizer@xercesc_2_8@@AAEXXZ
       2041  7F8 000EF680 ?cleanUp@XMLURL@xercesc_2_8@@AAEXXZ
       2042  7F9 000F8120 ?cleanUp@XMLUri@xercesc_2_8@@AAEXXZ
       2043  7FA 000F3CD0 ?cleanUp@XPathMatcher@xercesc_2_8@@AAEXXZ
       2044  7FB 0018B140 ?cleanUp@XPathMatcherStack@xercesc_2_8@@AAEXXZ
       2045  7FC 00128A70 ?cleanUp@XercesXPath@xercesc_2_8@@AAEXXZ
       2046  7FD 001599C0 ?clear@XMLGrammarPoolImpl@xercesc_2_8@@UAE_NXZ
       2047  7FE 0018B180 ?clear@XPathMatcherStack@xercesc_2_8@@QAEXXZ
       2048  7FF 00146FE0 ?clearDatatypeBuffer@SchemaValidator@xercesc_2_8@@QAEXXZ
       2049  800 00135950 ?clearIdRefList@ValidationContextImpl@xercesc_2_8@@UAEXXZ
       2050  801 0014FA70 ?clearTopLevelComponents@SchemaInfo@xercesc_2_8@@AAEXXZ
       2051  802 001B2370 ?cloneAttrMap@DOMAttrMapImpl@xercesc_2_8@@UAEPAV12@PAVDOMNode@2@@Z
       2052  803 0015FD60 ?cloneChildren@DOMParentNode@xercesc_2_8@@QAEXPBVDOMNode@2@@Z
       2053  804 001B2250 ?cloneContent@DOMAttrMapImpl@xercesc_2_8@@MAEXPBV12@@Z
       2054  805 001AF660 ?cloneContents@DOMRangeImpl@xercesc_2_8@@UBEPAVDOMDocumentFragment@2@XZ
       2055  806 00160EB0 ?cloneEntityRefTree@DOMEntityImpl@xercesc_2_8@@ABEXXZ
       2056  807 001BA100 ?cloneMap@DOMNamedNodeMapImpl@xercesc_2_8@@UAEPAV12@PAVDOMNode@2@@Z
       2057  808 00163F90 ?cloneNode@DOMAttrImpl@xercesc_2_8@@UBEPAVDOMNode@2@_N@Z
       2058  809 001B71F0 ?cloneNode@DOMAttrNSImpl@xercesc_2_8@@UBEPAVDOMNode@2@_N@Z
       2059  80A 001B8C60 ?cloneNode@DOMCDATASectionImpl@xercesc_2_8@@UBEPAVDOMNode@2@_N@Z
       2060  80B 001B9C50 ?cloneNode@DOMCommentImpl@xercesc_2_8@@UBEPAVDOMNode@2@_N@Z
       2061  80C 001B9920 ?cloneNode@DOMDocumentFragmentImpl@xercesc_2_8@@UBEPAVDOMNode@2@_N@Z
       2062  80D 00166FA0 ?cloneNode@DOMDocumentImpl@xercesc_2_8@@UBEPAVDOMNode@2@_N@Z
       2063  80E 0016B360 ?cloneNode@DOMDocumentTypeImpl@xercesc_2_8@@UBEPAVDOMNode@2@_N@Z
       2064  80F 00165890 ?cloneNode@DOMElementImpl@xercesc_2_8@@UBEPAVDOMNode@2@_N@Z
       2065  810 00161A70 ?cloneNode@DOMElementNSImpl@xercesc_2_8@@UBEPAVDOMNode@2@_N@Z
       2066  811 00160D60 ?cloneNode@DOMEntityImpl@xercesc_2_8@@UBEPAVDOMNode@2@_N@Z
       2067  812 0015FA10 ?cloneNode@DOMEntityReferenceImpl@xercesc_2_8@@UBEPAVDOMNode@2@_N@Z
       2068  813 0016C2A0 ?cloneNode@DOMNotationImpl@xercesc_2_8@@UBEPAVDOMNode@2@_N@Z
       2069  814 00162430 ?cloneNode@DOMProcessingInstructionImpl@xercesc_2_8@@UBEPAVDOMNode@2@_N@Z
       2070  815 001607C0 ?cloneNode@DOMTextImpl@xercesc_2_8@@UBEPAVDOMNode@2@_N@Z
       2071  816 001B80A0 ?cloneNode@XSDElementNSImpl@xercesc_2_8@@UBEPAVDOMNode@2@_N@Z
       2072  817 001AF880 ?cloneRange@DOMRangeImpl@xercesc_2_8@@UBEPAVDOMRange@2@XZ
       2073  818 001685C0 ?cloneString@DOMDocumentImpl@xercesc_2_8@@QAEPA_WPB_W@Z
       2074  819 000FF1E0 ?closeFile@XMLPlatformUtils@xercesc_2_8@@SAXPAXQAVMemoryManager@2@@Z
       2075  81A 000FFAC0 ?closeMutex@XMLPlatformUtils@xercesc_2_8@@SAXQAX@Z
       2076  81B 0016CF30 ?closesocket@BinHTTPURLInputStream@xercesc_2_8@@CAHI@Z
       2077  81C 001AEFE0 ?collapse@DOMRangeImpl@xercesc_2_8@@UAEX_N@Z
       2078  81D 000FD8B0 ?collapseWS@XMLString@xercesc_2_8@@SAXQA_WQAVMemoryManager@2@@Z
       2079  81E 001B0000 ?commonAncestorOf@DOMRangeImpl@xercesc_2_8@@ABEPBVDOMNode@2@PBV32@0@Z
       2080  81F 00144A10 ?commonInit@DGXMLScanner@xercesc_2_8@@AAEXXZ
       2081  820 001479E0 ?commonInit@IGXMLScanner@xercesc_2_8@@AAEXXZ
       2082  821 00152370 ?commonInit@SGXMLScanner@xercesc_2_8@@AAEXXZ
       2083  822 0014C750 ?commonInit@WFXMLScanner@xercesc_2_8@@AAEXXZ
       2084  823 00107550 ?commonInit@XMLScanner@xercesc_2_8@@AAEXXZ
       2085  824 00139C10 ?compactRanges@RangeToken@xercesc_2_8@@UAEXXZ
       2086  825 000F0970 ?compactRanges@Token@xercesc_2_8@@UAEXXZ
       2087  826 00180280 ?compare@AbstractStringValidator@xercesc_2_8@@UAEHQB_W0QAVMemoryManager@2@@Z
       2088  827 001C56F0 ?compare@AnySimpleTypeDatatypeValidator@xercesc_2_8@@UAEHQB_W0QAVMemoryManager@2@@Z
       2089  828 001783F0 ?compare@BooleanDatatypeValidator@xercesc_2_8@@UAEHQB_W0QAVMemoryManager@2@@Z
       2090  829 00180280 ?compare@DatatypeValidator@xercesc_2_8@@UAEHQB_W0QAVMemoryManager@2@@Z
       2091  82A 001BB170 ?compare@DateTimeValidator@xercesc_2_8@@UAEHQB_W0QAVMemoryManager@2@@Z
       2092  82B 00176C60 ?compare@DecimalDatatypeValidator@xercesc_2_8@@UAEHQB_W0QAVMemoryManager@2@@Z
       2093  82C 00174190 ?compare@DoubleDatatypeValidator@xercesc_2_8@@UAEHQB_W0QAVMemoryManager@2@@Z
       2094  82D 00175780 ?compare@ENTITYDatatypeValidator@xercesc_2_8@@UAEHQB_W0QAVMemoryManager@2@@Z
       2095  82E 00179D60 ?compare@FloatDatatypeValidator@xercesc_2_8@@UAEHQB_W0QAVMemoryManager@2@@Z
       2096  82F 00178C20 ?compare@ListDatatypeValidator@xercesc_2_8@@UAEHQB_W0QAVMemoryManager@2@@Z
       2097  830 00175780 ?compare@NCNameDatatypeValidator@xercesc_2_8@@UAEHQB_W0QAVMemoryManager@2@@Z
       2098  831 00175780 ?compare@NameDatatypeValidator@xercesc_2_8@@UAEHQB_W0QAVMemoryManager@2@@Z
       2099  832 00105060 ?compare@UnionDatatypeValidator@xercesc_2_8@@UAEHQB_W0QAVMemoryManager@2@@Z
       2100  833 0017ADC0 ?compare@XMLDateTime@xercesc_2_8@@SAHQBV12@0@Z
       2101  834 0017A920 ?compare@XMLDateTime@xercesc_2_8@@SAHQBV12@0_N@Z
       2102  835 000FFB50 ?compareAndSwap@XMLPlatformUtils@xercesc_2_8@@SAPAXPAPAXQBX1@Z
       2103  836 001AF390 ?compareBoundaryPoints@DOMRangeImpl@xercesc_2_8@@UBEFW4CompareHow@DOMRange@2@PBV42@@Z
       2104  837 001BB580 ?compareDates@DateTimeValidator@xercesc_2_8@@MAEHQBVXMLDateTime@2@0_N@Z
       2105  838 00175300 ?compareDates@DurationDatatypeValidator@xercesc_2_8@@MAEHQBVXMLDateTime@2@0_N@Z
       2106  839 00124460 ?compareIString@Win32TransService@xercesc_2_8@@UAEHQB_W0@Z
       2107  83A 000FBC90 ?compareIString@XMLString@xercesc_2_8@@SAHQBD0@Z
       2108  83B 000FC970 ?compareIString@XMLString@xercesc_2_8@@SAHQB_W0@Z
       2109  83C 000FC990 ?compareIStringASCII@XMLString@xercesc_2_8@@SAHQB_W0@Z
       2110  83D 00124480 ?compareNIString@Win32TransService@xercesc_2_8@@UAEHQB_W0I@Z
       2111  83E 000FBCC0 ?compareNIString@XMLString@xercesc_2_8@@SAHQBD0I@Z
       2112  83F 000FCA50 ?compareNIString@XMLString@xercesc_2_8@@SAHQB_W0I@Z
       2113  840 000FBCA0 ?compareNString@XMLString@xercesc_2_8@@SAHQBD0I@Z
       2114  841 000FCA10 ?compareNString@XMLString@xercesc_2_8@@SAHQB_W0I@Z
       2115  842 0017B040 ?compareOrder@XMLDateTime@xercesc_2_8@@SAHQBV12@0@Z
       2116  843 0017AD90 ?compareResult@XMLDateTime@xercesc_2_8@@CAHHH_N@Z
       2117  844 0017AF90 ?compareResult@XMLDateTime@xercesc_2_8@@CAHQBV12@0_NH@Z
       2118  845 00176310 ?compareSpecial@XMLAbstractDoubleFloat@xercesc_2_8@@CAHQBV12@QAVMemoryManager@2@@Z
       2119  846 000FBCE0 ?compareString@XMLString@xercesc_2_8@@SAHQBD0@Z
       2120  847 000FCA70 ?compareString@XMLString@xercesc_2_8@@SAHQB_W0@Z
       2121  848 00160B70 ?compareTreePosition@DOMAttrImpl@xercesc_2_8@@UBEFPBVDOMNode@2@@Z
       2122  849 00160B70 ?compareTreePosition@DOMCDATASectionImpl@xercesc_2_8@@UBEFPBVDOMNode@2@@Z
       2123  84A 00160B70 ?compareTreePosition@DOMCommentImpl@xercesc_2_8@@UBEFPBVDOMNode@2@@Z
       2124  84B 00160B70 ?compareTreePosition@DOMDocumentFragmentImpl@xercesc_2_8@@UBEFPBVDOMNode@2@@Z
       2125  84C 00160B70 ?compareTreePosition@DOMDocumentImpl@xercesc_2_8@@UBEFPBVDOMNode@2@@Z
       2126  84D 00160B70 ?compareTreePosition@DOMDocumentTypeImpl@xercesc_2_8@@UBEFPBVDOMNode@2@@Z
       2127  84E 00160B70 ?compareTreePosition@DOMElementImpl@xercesc_2_8@@UBEFPBVDOMNode@2@@Z
       2128  84F 00160B70 ?compareTreePosition@DOMEntityImpl@xercesc_2_8@@UBEFPBVDOMNode@2@@Z
       2129  850 00160B70 ?compareTreePosition@DOMEntityReferenceImpl@xercesc_2_8@@UBEFPBVDOMNode@2@@Z
       2130  851 00163580 ?compareTreePosition@DOMNodeImpl@xercesc_2_8@@QBEFPBVDOMNode@2@@Z
       2131  852 00160B70 ?compareTreePosition@DOMNotationImpl@xercesc_2_8@@UBEFPBVDOMNode@2@@Z
       2132  853 00160B70 ?compareTreePosition@DOMProcessingInstructionImpl@xercesc_2_8@@UBEFPBVDOMNode@2@@Z
       2133  854 00160B70 ?compareTreePosition@DOMTextImpl@xercesc_2_8@@UBEFPBVDOMNode@2@@Z
       2134  855 001BB560 ?compareValues@DateTimeValidator@xercesc_2_8@@MAEHQBVXMLNumber@2@0@Z
       2135  856 00177380 ?compareValues@DecimalDatatypeValidator@xercesc_2_8@@MAEHQBVXMLNumber@2@0@Z
       2136  857 00179EC0 ?compareValues@DoubleDatatypeValidator@xercesc_2_8@@MAEHQBVXMLNumber@2@0@Z
       2137  858 00179EC0 ?compareValues@FloatDatatypeValidator@xercesc_2_8@@MAEHQBVXMLNumber@2@0@Z
       2138  859 00176250 ?compareValues@XMLAbstractDoubleFloat@xercesc_2_8@@KAHQBV12@0QAVMemoryManager@2@@Z
       2139  85A 001AD900 ?compareValues@XMLBigDecimal@xercesc_2_8@@SAHQBV12@0QAVMemoryManager@2@@Z
       2140  85B 001AC9E0 ?compareValues@XMLBigInteger@xercesc_2_8@@SAHQBV12@0QAVMemoryManager@2@@Z
       2141  85C 001ACAB0 ?compareValues@XMLBigInteger@xercesc_2_8@@SAHQB_WABH01QAVMemoryManager@2@@Z
       2142  85D 0012ACA0 ?compareValues@XMLDouble@xercesc_2_8@@SAHQBV12@0@Z
       2143  85E 0012ACA0 ?compareValues@XMLFloat@xercesc_2_8@@SAHQBV12@0@Z
       2144  85F 0010D740 ?compile@RegularExpression@xercesc_2_8@@AAEPAVOp@2@QBVToken@2@QAV32@_N@Z
       2145  860 0010D710 ?compile@RegularExpression@xercesc_2_8@@AAEXQBVToken@2@@Z
       2146  861 000F1160 ?compileClosure@RegularExpression@xercesc_2_8@@AAEPAVOp@2@QBVToken@2@QAV32@_NG@Z
       2147  862 000F10D0 ?compileConcat@RegularExpression@xercesc_2_8@@AAEPAVOp@2@QBVToken@2@QAV32@_N@Z
       2148  863 000F0F50 ?compileCondition@RegularExpression@xercesc_2_8@@AAEPAVOp@2@QBVToken@2@QAV32@_N@Z
       2149  864 000F0CE0 ?compileLook@RegularExpression@xercesc_2_8@@AAEPAVOp@2@QBVToken@2@QBV32@_NG@Z
       2150  865 000F1000 ?compileParenthesis@RegularExpression@xercesc_2_8@@AAEPAVOp@2@QBVToken@2@QAV32@_N@Z
       2151  866 000F0DD0 ?compileSingle@RegularExpression@xercesc_2_8@@AAEPAVOp@2@QBVToken@2@QAV32@G@Z
       2152  867 000F0EB0 ?compileUnion@RegularExpression@xercesc_2_8@@AAEPAVOp@2@QBVToken@2@QAV32@_N@Z
       2153  868 0013A160 ?complementRanges@RangeToken@xercesc_2_8@@SAPAVToken@2@QAV12@QAVTokenFactory@2@QAVMemoryManager@2@@Z
       2154  869 000F0B20 ?composeFromSurrogate@RegxUtil@xercesc_2_8@@SAH_W0@Z
       2155  86A 001847F0 ?conflict@XercesElementWildcard@xercesc_2_8@@SA_NQAVSchemaGrammar@2@W4NodeTypes@ContentSpecNode@2@PAVQName@2@12PAVSubstitutionGroupComparator@2@@Z
       2156  86B 000EF710 ?conglomerateWithBase@XMLURL@xercesc_2_8@@AAE_NABV12@_N@Z
       2157  86C 0016CEB0 ?connect@BinHTTPURLInputStream@xercesc_2_8@@CAHIPBUsockaddr@@H@Z
       2158  86D 000F3B70 ?contains@ComplexTypeInfo@xercesc_2_8@@QAE_NQB_W@Z
       2159  86E 0013DB10 ?contains@ValueStore@xercesc_2_8@@QAE_NQBVFieldValueMap@2@@Z
       2160  86F 000F1480 ?containsAttWithTypeId@ComplexTypeInfo@xercesc_2_8@@QBE_NXZ
       2161  870 00135090 ?containsAttribute@XercesAttGroupInfo@xercesc_2_8@@QAE_NQB_WI@Z
       2162  871 0014F750 ?containsInfo@SchemaInfo@xercesc_2_8@@QBE_NQBV12@W4ListType@12@@Z
       2163  872 0011E940 ?containsNameSpace@GrammarResolver@xercesc_2_8@@QAE_NQB_W@Z
       2164  873 000F1470 ?containsTypeWithId@XercesAttGroupInfo@xercesc_2_8@@QBE_NXZ
       2165  874 000FE160 ?containsWhiteSpace@XMLChar1_0@xercesc_2_8@@SA_NQB_WI@Z
       2166  875 000FE340 ?containsWhiteSpace@XMLChar1_1@xercesc_2_8@@SA_NQB_WI@Z
       2167  876 001113E0 ?containsWhiteSpace@XMLReader@xercesc_2_8@@QBE_NQB_WI@Z
       2168  877 001765D0 ?convert@XMLAbstractDoubleFloat@xercesc_2_8@@IAEXQAD@Z
       2169  878 0011D1A0 ?convertContentSpecTree@ComplexTypeInfo@xercesc_2_8@@AAEPAVContentSpecNode@2@QAV32@_N@Z
       2170  879 0012B0A0 ?copy@XMLDateTime@xercesc_2_8@@AAEXABV12@@Z
       2171  87A 001A3160 ?copyAttGroupAttributes@TraverseSchema@xercesc_2_8@@AAEXQBVDOMElement@2@QAVXercesAttGroupInfo@2@1QAVComplexTypeInfo@2@@Z
       2172  87B 001A2FD0 ?copyGroupElements@TraverseSchema@xercesc_2_8@@AAEXQBVDOMElement@2@QAVXercesGroupInfo@2@1QAVComplexTypeInfo@2@@Z
       2173  87C 000FCBF0 ?copyNString@XMLString@xercesc_2_8@@SA_NQA_WQB_WI@Z
       2174  87D 000FBCF0 ?copyString@XMLString@xercesc_2_8@@SAXQADQBD@Z
       2175  87E 000FCBB0 ?copyString@XMLString@xercesc_2_8@@SAXQA_WQB_W@Z
       2176  87F 0014FEA0 ?copyWildCardData@TraverseSchema@xercesc_2_8@@AAEXQBVSchemaAttDef@2@QAV32@@Z
       2177  880 0014FF80 ?countTokens@XMLStringTokenizer@xercesc_2_8@@QAEHXZ
       2178  881 00114C80 ?createAnchorOp@OpFactory@xercesc_2_8@@QAEPAVCharOp@2@H@Z
       2179  882 00167110 ?createAttribute@DOMDocumentImpl@xercesc_2_8@@UAEPAVDOMAttr@2@PB_W@Z
       2180  883 00168150 ?createAttributeNS@DOMDocumentImpl@xercesc_2_8@@UAEPAVDOMAttr@2@PB_W0@Z
       2181  884 0010FDB0 ?createBackReference@TokenFactory@xercesc_2_8@@QAEPAVStringToken@2@H@Z
       2182  885 00115020 ?createBackReferenceOp@OpFactory@xercesc_2_8@@QAEPAVCharOp@2@H@Z
       2183  886 001671E0 ?createCDATASection@DOMDocumentImpl@xercesc_2_8@@UAEPAVDOMCDATASection@2@PB_W@Z
       2184  887 00114CF0 ?createCaptureOp@OpFactory@xercesc_2_8@@QAEPAVCharOp@2@HQBVOp@2@@Z
       2185  888 0010FD30 ?createChar@TokenFactory@xercesc_2_8@@QAEPAVCharToken@2@I_N@Z
       2186  889 00114C10 ?createCharOp@OpFactory@xercesc_2_8@@QAEPAVCharOp@2@H@Z
       2187  88A 0011CE80 ?createChildModel@ComplexTypeInfo@xercesc_2_8@@AAEPAVXMLContentModel@2@PAVContentSpecNode@2@_N@Z
       2188  88B 00116510 ?createChildModel@DTDElementDecl@xercesc_2_8@@AAEPAVXMLContentModel@2@XZ
       2189  88C 0010FB10 ?createClosure@TokenFactory@xercesc_2_8@@QAEPAVClosureToken@2@QAVToken@2@_N@Z
       2190  88D 00114E00 ?createClosureOp@OpFactory@xercesc_2_8@@QAEPAVChildOp@2@H@Z
       2191  88E 00167250 ?createComment@DOMDocumentImpl@xercesc_2_8@@UAEPAVDOMComment@2@PB_W@Z
       2192  88F 0010FBA0 ?createConcat@TokenFactory@xercesc_2_8@@QAEPAVConcatToken@2@QAVToken@2@0@Z
       2193  890 0010FF60 ?createCondition@TokenFactory@xercesc_2_8@@QAEPAVConditionToken@2@HQAVToken@2@00@Z
       2194  891 00115210 ?createConditionOp@OpFactory@xercesc_2_8@@QAEPAVConditionOp@2@QBVOp@2@H000@Z
       2195  892 00159BF0 ?createDTDDescription@XMLGrammarPoolImpl@xercesc_2_8@@UAEPAVXMLDTDDescription@2@QB_W@Z
       2196  893 00159B10 ?createDTDGrammar@XMLGrammarPoolImpl@xercesc_2_8@@UAEPAVDTDGrammar@2@XZ
       2197  894 0012E6A0 ?createDatatypeValidator@DatatypeValidatorFactory@xercesc_2_8@@QAEPAVDatatypeValidator@2@QB_WQAV32@QAV?$RefHashTableOf@VKVStringPair@xercesc_2_8@@@2@QAV?$RefArrayVectorOf@_W@2@_NH4QAVMemoryManager@2@@Z
       2198  895 0012EA80 ?createDatatypeValidator@DatatypeValidatorFactory@xercesc_2_8@@QAEPAVDatatypeValidator@2@QB_WQAV?$RefVectorOf@VDatatypeValidator@xercesc_2_8@@@2@H_NQAVMemoryManager@2@@Z
       2199  896 001672C0 ?createDocumentFragment@DOMDocumentImpl@xercesc_2_8@@UAEPAVDOMDocumentFragment@2@XZ
       2200  897 000F7100 ?createDocumentType@DOMDocument@xercesc_2_8@@UAEPAVDOMDocumentType@2@PB_W00@Z
       2201  898 001673E0 ?createDocumentType@DOMDocumentImpl@xercesc_2_8@@UAEPAVDOMDocumentType@2@PB_W00@Z
       2202  899 00167310 ?createDocumentType@DOMDocumentImpl@xercesc_2_8@@UAEPAVDOMDocumentType@2@PB_W@Z
       2203  89A 00114BB0 ?createDotOp@OpFactory@xercesc_2_8@@QAEPAVOp@2@XZ
       2204  89B 001674C0 ?createElement@DOMDocumentImpl@xercesc_2_8@@UAEPAVDOMElement@2@PB_W@Z
       2205  89C 00167FA0 ?createElementNS@DOMDocumentImpl@xercesc_2_8@@UAEPAVDOMElement@2@PB_W0@Z
       2206  89D 00168070 ?createElementNS@DOMDocumentImpl@xercesc_2_8@@UAEPAVDOMElement@2@PB_W0JJ@Z
       2207  89E 00122930 ?createElementNSNode@AbstractDOMParser@xercesc_2_8@@MAEPAVDOMElement@2@PB_W0@Z
       2208  89F 001948B0 ?createElementNSNode@XSDDOMParser@xercesc_2_8@@MAEPAVDOMElement@2@PB_W0@Z
       2209  8A0 00167590 ?createElementNoCheck@DOMDocumentImpl@xercesc_2_8@@UAEPAVDOMElement@2@PB_W@Z
       2210  8A1 001A96C0 ?createElementParticle@XSObjectFactory@xercesc_2_8@@AAEPAVXSParticle@2@QBVContentSpecNode@2@QAVXSModel@2@@Z
       2211  8A2 00167600 ?createEntity@DOMDocumentImpl@xercesc_2_8@@UAEPAVDOMEntity@2@PB_W@Z
       2212  8A3 001676D0 ?createEntityReference@DOMDocumentImpl@xercesc_2_8@@UAEPAVDOMEntityReference@2@PB_W@Z
       2213  8A4 001677A0 ?createEntityReferenceByParser@DOMDocumentImpl@xercesc_2_8@@QAEPAVDOMEntityReference@2@PB_W@Z
       2214  8A5 00167C40 ?createExpression@DOMDocumentImpl@xercesc_2_8@@UAEPBVDOMXPathExpression@2@PB_WPBVDOMXPathNSResolver@2@@Z
       2215  8A6 00115130 ?createIndependentOp@OpFactory@xercesc_2_8@@QAEPAVChildOp@2@QBVOp@2@0@Z
       2216  8A7 00119D50 ?createIntEntReader@ReaderMgr@xercesc_2_8@@QAEPAVXMLReader@2@QB_WW4RefFrom@32@W4Types@32@0I_N3@Z
       2217  8A8 0010FA30 ?createLook@TokenFactory@xercesc_2_8@@QAEPAVParenToken@2@GQAVToken@2@@Z
       2218  8A9 00114FB0 ?createLookOp@OpFactory@xercesc_2_8@@QAEPAVChildOp@2@FQBVOp@2@0@Z
       2219  8AA 0010A4B0 ?createMap@RangeToken@xercesc_2_8@@QAEXXZ
       2220  8AB 00111190 ?createMatcher@IC_Field@xercesc_2_8@@QAEPAVXPathMatcher@2@QAVFieldActivator@2@QAVValueStore@2@QAVMemoryManager@2@@Z
       2221  8AC 000E0D50 ?createMatcher@IC_Field@xercesc_2_8@@QAEPAVXPathMatcher@2@QAVValueStore@2@QAVMemoryManager@2@@Z
       2222  8AD 00182BB0 ?createMatcher@IC_Selector@xercesc_2_8@@QAEPAVXPathMatcher@2@QAVFieldActivator@2@HQAVMemoryManager@2@@Z
       2223  8AE 001A93B0 ?createModelGroupParticle@XSObjectFactory@xercesc_2_8@@AAEPAVXSParticle@2@QBVContentSpecNode@2@QAVXSModel@2@@Z
       2224  8AF 0010FEF0 ?createModifierGroup@TokenFactory@xercesc_2_8@@QAEPAVModifierToken@2@QAVToken@2@HH@Z
       2225  8B0 001151A0 ?createModifierOp@OpFactory@xercesc_2_8@@QAEPAVModifierOp@2@QBVOp@2@0HH@Z
       2226  8B1 00167C40 ?createNSResolver@DOMDocumentImpl@xercesc_2_8@@UAEPBVDOMXPathNSResolver@2@PAVDOMNode@2@@Z
       2227  8B2 00167A80 ?createNodeIterator@DOMDocumentImpl@xercesc_2_8@@UAEPAVDOMNodeIterator@2@PAVDOMNode@2@KPAVDOMNodeFilter@2@_N@Z
       2228  8B3 00114E70 ?createNonGreedyClosureOp@OpFactory@xercesc_2_8@@QAEPAVChildOp@2@XZ
       2229  8B4 00167870 ?createNotation@DOMDocumentImpl@xercesc_2_8@@UAEPAVDOMNotation@2@PB_W@Z
       2230  8B5 001149A0 ?createObject@AbstractNumericFacetValidator@xercesc_2_8@@SAPAVXSerializable@2@PAVMemoryManager@2@@Z
       2231  8B6 001149A0 ?createObject@AbstractNumericValidator@xercesc_2_8@@SAPAVXSerializable@2@PAVMemoryManager@2@@Z
       2232  8B7 001149A0 ?createObject@AbstractStringValidator@xercesc_2_8@@SAPAVXSerializable@2@PAVMemoryManager@2@@Z
       2233  8B8 00178100 ?createObject@AnySimpleTypeDatatypeValidator@xercesc_2_8@@SAPAVXSerializable@2@PAVMemoryManager@2@@Z
       2234  8B9 00174EE0 ?createObject@AnyURIDatatypeValidator@xercesc_2_8@@SAPAVXSerializable@2@PAVMemoryManager@2@@Z
       2235  8BA 0017A7F0 ?createObject@Base64BinaryDatatypeValidator@xercesc_2_8@@SAPAVXSerializable@2@PAVMemoryManager@2@@Z
       2236  8BB 00178570 ?createObject@BooleanDatatypeValidator@xercesc_2_8@@SAPAVXSerializable@2@PAVMemoryManager@2@@Z
       2237  8BC 0011D680 ?createObject@ComplexTypeInfo@xercesc_2_8@@SAPAVXSerializable@2@PAVMemoryManager@2@@Z
       2238  8BD 0012C4B0 ?createObject@ContentSpecNode@xercesc_2_8@@SAPAVXSerializable@2@PAVMemoryManager@2@@Z
       2239  8BE 0011B020 ?createObject@DTDAttDef@xercesc_2_8@@SAPAVXSerializable@2@PAVMemoryManager@2@@Z
       2240  8BF 00142110 ?createObject@DTDAttDefList@xercesc_2_8@@SAPAVXSerializable@2@PAVMemoryManager@2@@Z
       2241  8C0 00116810 ?createObject@DTDElementDecl@xercesc_2_8@@SAPAVXSerializable@2@PAVMemoryManager@2@@Z
       2242  8C1 001172F0 ?createObject@DTDEntityDecl@xercesc_2_8@@SAPAVXSerializable@2@PAVMemoryManager@2@@Z
       2243  8C2 00158410 ?createObject@DTDGrammar@xercesc_2_8@@SAPAVXSerializable@2@PAVMemoryManager@2@@Z
       2244  8C3 001149A0 ?createObject@DatatypeValidator@xercesc_2_8@@SAPAVXSerializable@2@PAVMemoryManager@2@@Z
       2245  8C4 0012ED40 ?createObject@DatatypeValidatorFactory@xercesc_2_8@@SAPAVXSerializable@2@PAVMemoryManager@2@@Z
       2246  8C5 00177FA0 ?createObject@DateDatatypeValidator@xercesc_2_8@@SAPAVXSerializable@2@PAVMemoryManager@2@@Z
       2247  8C6 00173170 ?createObject@DateTimeDatatypeValidator@xercesc_2_8@@SAPAVXSerializable@2@PAVMemoryManager@2@@Z
       2248  8C7 001149A0 ?createObject@DateTimeValidator@xercesc_2_8@@SAPAVXSerializable@2@PAVMemoryManager@2@@Z
       2249  8C8 00175A90 ?createObject@DayDatatypeValidator@xercesc_2_8@@SAPAVXSerializable@2@PAVMemoryManager@2@@Z
       2250  8C9 00177BD0 ?createObject@DecimalDatatypeValidator@xercesc_2_8@@SAPAVXSerializable@2@PAVMemoryManager@2@@Z
       2251  8CA 00174870 ?createObject@DoubleDatatypeValidator@xercesc_2_8@@SAPAVXSerializable@2@PAVMemoryManager@2@@Z
       2252  8CB 00175320 ?createObject@DurationDatatypeValidator@xercesc_2_8@@SAPAVXSerializable@2@PAVMemoryManager@2@@Z
       2253  8CC 00175820 ?createObject@ENTITYDatatypeValidator@xercesc_2_8@@SAPAVXSerializable@2@PAVMemoryManager@2@@Z
       2254  8CD 0017A460 ?createObject@FloatDatatypeValidator@xercesc_2_8@@SAPAVXSerializable@2@PAVMemoryManager@2@@Z
       2255  8CE 001149A0 ?createObject@Grammar@xercesc_2_8@@SAPAVXSerializable@2@PAVMemoryManager@2@@Z
       2256  8CF 00174040 ?createObject@HexBinaryDatatypeValidator@xercesc_2_8@@SAPAVXSerializable@2@PAVMemoryManager@2@@Z
       2257  8D0 00111220 ?createObject@IC_Field@xercesc_2_8@@SAPAVXSerializable@2@PAVMemoryManager@2@@Z
       2258  8D1 00182D30 ?createObject@IC_Key@xercesc_2_8@@SAPAVXSerializable@2@PAVMemoryManager@2@@Z
       2259  8D2 00182FC0 ?createObject@IC_KeyRef@xercesc_2_8@@SAPAVXSerializable@2@PAVMemoryManager@2@@Z
       2260  8D3 00182C20 ?createObject@IC_Selector@xercesc_2_8@@SAPAVXSerializable@2@PAVMemoryManager@2@@Z
       2261  8D4 00182E70 ?createObject@IC_Unique@xercesc_2_8@@SAPAVXSerializable@2@PAVMemoryManager@2@@Z
       2262  8D5 00134540 ?createObject@IDDatatypeValidator@xercesc_2_8@@SAPAVXSerializable@2@PAVMemoryManager@2@@Z
       2263  8D6 00173670 ?createObject@IDREFDatatypeValidator@xercesc_2_8@@SAPAVXSerializable@2@PAVMemoryManager@2@@Z
       2264  8D7 001149A0 ?createObject@IdentityConstraint@xercesc_2_8@@SAPAVXSerializable@2@PAVMemoryManager@2@@Z
       2265  8D8 0011B3C0 ?createObject@KVStringPair@xercesc_2_8@@SAPAVXSerializable@2@PAVMemoryManager@2@@Z
       2266  8D9 00179840 ?createObject@ListDatatypeValidator@xercesc_2_8@@SAPAVXSerializable@2@PAVMemoryManager@2@@Z
       2267  8DA 001733E0 ?createObject@MonthDatatypeValidator@xercesc_2_8@@SAPAVXSerializable@2@PAVMemoryManager@2@@Z
       2268  8DB 00173DB0 ?createObject@MonthDayDatatypeValidator@xercesc_2_8@@SAPAVXSerializable@2@PAVMemoryManager@2@@Z
       2269  8DC 00173B30 ?createObject@NCNameDatatypeValidator@xercesc_2_8@@SAPAVXSerializable@2@PAVMemoryManager@2@@Z
       2270  8DD 001789C0 ?createObject@NOTATIONDatatypeValidator@xercesc_2_8@@SAPAVXSerializable@2@PAVMemoryManager@2@@Z
       2271  8DE 00175CF0 ?createObject@NameDatatypeValidator@xercesc_2_8@@SAPAVXSerializable@2@PAVMemoryManager@2@@Z
       2272  8DF 00113A30 ?createObject@QName@xercesc_2_8@@SAPAVXSerializable@2@PAVMemoryManager@2@@Z
       2273  8E0 00172DD0 ?createObject@QNameDatatypeValidator@xercesc_2_8@@SAPAVXSerializable@2@PAVMemoryManager@2@@Z
       2274  8E1 0010F640 ?createObject@SchemaAttDef@xercesc_2_8@@SAPAVXSerializable@2@PAVMemoryManager@2@@Z
       2275  8E2 0013E950 ?createObject@SchemaAttDefList@xercesc_2_8@@SAPAVXSerializable@2@PAVMemoryManager@2@@Z
       2276  8E3 00114550 ?createObject@SchemaElementDecl@xercesc_2_8@@SAPAVXSerializable@2@PAVMemoryManager@2@@Z
       2277  8E4 00134D40 ?createObject@SchemaGrammar@xercesc_2_8@@SAPAVXSerializable@2@PAVMemoryManager@2@@Z
       2278  8E5 00135780 ?createObject@StringDatatypeValidator@xercesc_2_8@@SAPAVXSerializable@2@PAVMemoryManager@2@@Z
       2279  8E6 00179BC0 ?createObject@TimeDatatypeValidator@xercesc_2_8@@SAPAVXSerializable@2@PAVMemoryManager@2@@Z
       2280  8E7 00105230 ?createObject@UnionDatatypeValidator@xercesc_2_8@@SAPAVXSerializable@2@PAVMemoryManager@2@@Z
       2281  8E8 001149A0 ?createObject@XMLAbstractDoubleFloat@xercesc_2_8@@SAPAVXSerializable@2@PAVMemoryManager@2@@Z
       2282  8E9 001149A0 ?createObject@XMLAttDef@xercesc_2_8@@SAPAVXSerializable@2@PAVMemoryManager@2@@Z
       2283  8EA 001149A0 ?createObject@XMLAttDefList@xercesc_2_8@@SAPAVXSerializable@2@PAVMemoryManager@2@@Z
       2284  8EB 001AD9E0 ?createObject@XMLBigDecimal@xercesc_2_8@@SAPAVXSerializable@2@PAVMemoryManager@2@@Z
       2285  8EC 001149A0 ?createObject@XMLDTDDescription@xercesc_2_8@@SAPAVXSerializable@2@PAVMemoryManager@2@@Z
       2286  8ED 00159520 ?createObject@XMLDTDDescriptionImpl@xercesc_2_8@@SAPAVXSerializable@2@PAVMemoryManager@2@@Z
       2287  8EE 0017D150 ?createObject@XMLDateTime@xercesc_2_8@@SAPAVXSerializable@2@PAVMemoryManager@2@@Z
       2288  8EF 00175020 ?createObject@XMLDouble@xercesc_2_8@@SAPAVXSerializable@2@PAVMemoryManager@2@@Z
       2289  8F0 001149A0 ?createObject@XMLElementDecl@xercesc_2_8@@SAPAVXSerializable@2@PAVMemoryManager@2@@Z
       2290  8F1 001149A0 ?createObject@XMLEntityDecl@xercesc_2_8@@SAPAVXSerializable@2@PAVMemoryManager@2@@Z
       2291  8F2 00173850 ?createObject@XMLFloat@xercesc_2_8@@SAPAVXSerializable@2@PAVMemoryManager@2@@Z
       2292  8F3 001149A0 ?createObject@XMLGrammarDescription@xercesc_2_8@@SAPAVXSerializable@2@PAVMemoryManager@2@@Z
       2293  8F4 0011DD30 ?createObject@XMLNotationDecl@xercesc_2_8@@SAPAVXSerializable@2@PAVMemoryManager@2@@Z
       2294  8F5 001149A0 ?createObject@XMLNumber@xercesc_2_8@@SAPAVXSerializable@2@PAVMemoryManager@2@@Z
       2295  8F6 001149C0 ?createObject@XMLRefInfo@xercesc_2_8@@SAPAVXSerializable@2@PAVMemoryManager@2@@Z
       2296  8F7 001149A0 ?createObject@XMLSchemaDescription@xercesc_2_8@@SAPAVXSerializable@2@PAVMemoryManager@2@@Z
       2297  8F8 001591F0 ?createObject@XMLSchemaDescriptionImpl@xercesc_2_8@@SAPAVXSerializable@2@PAVMemoryManager@2@@Z
       2298  8F9 00116C40 ?createObject@XMLStringPool@xercesc_2_8@@SAPAVXSerializable@2@PAVMemoryManager@2@@Z
       2299  8FA 000FB610 ?createObject@XMLUri@xercesc_2_8@@SAPAVXSerializable@2@PAVMemoryManager@2@@Z
       2300  8FB 0017F3F0 ?createObject@XSAnnotation@xercesc_2_8@@SAPAVXSerializable@2@PAVMemoryManager@2@@Z
       2301  8FC 001351B0 ?createObject@XercesAttGroupInfo@xercesc_2_8@@SAPAVXSerializable@2@PAVMemoryManager@2@@Z
       2302  8FD 00134130 ?createObject@XercesGroupInfo@xercesc_2_8@@SAPAVXSerializable@2@PAVMemoryManager@2@@Z
       2303  8FE 001287D0 ?createObject@XercesLocationPath@xercesc_2_8@@SAPAVXSerializable@2@PAVMemoryManager@2@@Z
       2304  8FF 001282F0 ?createObject@XercesNodeTest@xercesc_2_8@@SAPAVXSerializable@2@PAVMemoryManager@2@@Z
       2305  900 001285D0 ?createObject@XercesStep@xercesc_2_8@@SAPAVXSerializable@2@PAVMemoryManager@2@@Z
       2306  901 00129960 ?createObject@XercesXPath@xercesc_2_8@@SAPAVXSerializable@2@PAVMemoryManager@2@@Z
       2307  902 00175590 ?createObject@YearDatatypeValidator@xercesc_2_8@@SAPAVXSerializable@2@PAVMemoryManager@2@@Z
       2308  903 00174BC0 ?createObject@YearMonthDatatypeValidator@xercesc_2_8@@SAPAVXSerializable@2@PAVMemoryManager@2@@Z
       2309  904 0010FAA0 ?createParenthesis@TokenFactory@xercesc_2_8@@QAEPAVParenToken@2@QAVToken@2@H@Z
       2310  905 00167940 ?createProcessingInstruction@DOMDocumentImpl@xercesc_2_8@@UAEPAVDOMProcessingInstruction@2@PB_W0@Z
       2311  906 00114ED0 ?createQuestionOp@OpFactory@xercesc_2_8@@QAEPAVChildOp@2@_N@Z
       2312  907 00168300 ?createRange@DOMDocumentImpl@xercesc_2_8@@UAEPAVDOMRange@2@XZ
       2313  908 0010FCA0 ?createRange@TokenFactory@xercesc_2_8@@QAEPAVRangeToken@2@_N@Z
       2314  909 00114F40 ?createRangeOp@OpFactory@xercesc_2_8@@QAEPAVRangeOp@2@QBVToken@2@@Z
       2315  90A 00119260 ?createReader@ReaderMgr@xercesc_2_8@@QAEPAVXMLReader@2@ABVInputSource@2@_NW4RefFrom@32@W4Types@32@W4Sources@32@1@Z
       2316  90B 001198B0 ?createReader@ReaderMgr@xercesc_2_8@@QAEPAVXMLReader@2@QB_W00_NW4RefFrom@32@W4Types@32@W4Sources@32@AAPAVInputSource@2@11@Z
       2317  90C 00119420 ?createReader@ReaderMgr@xercesc_2_8@@QAEPAVXMLReader@2@QB_W0_NW4RefFrom@32@W4Types@32@W4Sources@32@AAPAVInputSource@2@11@Z
       2318  90D 00159C60 ?createSchemaDescription@XMLGrammarPoolImpl@xercesc_2_8@@UAEPAVXMLSchemaDescription@2@QB_W@Z
       2319  90E 0019FFF0 ?createSchemaElementDecl@TraverseSchema@xercesc_2_8@@AAEPAVSchemaElementDecl@2@QBVDOMElement@2@QB_WAA_NAAPB_W_N@Z
       2320  90F 00159B80 ?createSchemaGrammar@XMLGrammarPoolImpl@xercesc_2_8@@UAEPAVSchemaGrammar@2@XZ
       2321  910 0010FE50 ?createString@TokenFactory@xercesc_2_8@@QAEPAVStringToken@2@QB_W@Z
       2322  911 00115090 ?createStringOp@OpFactory@xercesc_2_8@@QAEPAVStringOp@2@QB_W@Z
       2323  912 00167A10 ?createTextNode@DOMDocumentImpl@xercesc_2_8@@UAEPAVDOMText@2@PB_W@Z
       2324  913 0010F9B0 ?createToken@TokenFactory@xercesc_2_8@@QAEPAVToken@2@G@Z
       2325  914 00167C70 ?createTreeWalker@DOMDocumentImpl@xercesc_2_8@@UAEPAVDOMTreeWalker@2@PAVDOMNode@2@KPAVDOMNodeFilter@2@_N@Z
       2326  915 0010FC10 ?createUnion@TokenFactory@xercesc_2_8@@QAEPAVUnionToken@2@_N@Z
       2327  916 00114D60 ?createUnionOp@OpFactory@xercesc_2_8@@QAEPAVUnionOp@2@H@Z
       2328  917 001A9760 ?createWildcardParticle@XSObjectFactory@xercesc_2_8@@AAEPAVXSParticle@2@QBVContentSpecNode@2@QAVXSModel@2@@Z
       2329  918 0017EEB0 ?createXMLReader@XMLReaderFactory@xercesc_2_8@@SAPAVSAX2XMLReader@2@PB_W@Z
       2330  919 001BBC10 ?createXMLReader@XMLReaderFactory@xercesc_2_8@@SAPAVSAX2XMLReader@2@QAVMemoryManager@2@QAVXMLGrammarPool@2@@Z
       2331  91A 001AA990 ?createXSAttGroupDefinition@XSObjectFactory@xercesc_2_8@@AAEPAVXSAttributeGroupDefinition@2@QAVXercesAttGroupInfo@2@QAVXSModel@2@@Z
       2332  91B 001AA610 ?createXSAttributeUse@XSObjectFactory@xercesc_2_8@@AAEPAVXSAttributeUse@2@QAVXSAttributeDeclaration@2@QAVXSModel@2@@Z
       2333  91C 00159670 ?createXSModel@XMLGrammarPoolImpl@xercesc_2_8@@EAEXXZ
       2334  91D 001AA840 ?createXSModelGroupDefinition@XSObjectFactory@xercesc_2_8@@AAEPAVXSModelGroupDefinition@2@QAVXercesGroupInfo@2@QAVXSModel@2@@Z
       2335  91E 001AA6D0 ?createXSWildcard@XSObjectFactory@xercesc_2_8@@AAEPAVXSWildcard@2@QAVSchemaAttDef@2@QAVXSModel@2@@Z
       2336  91F 001AA790 ?createXSWildcard@XSObjectFactory@xercesc_2_8@@AAEPAVXSWildcard@2@QBVContentSpecNode@2@QAVXSModel@2@@Z
       2337  920 000FF190 ?curFilePos@XMLPlatformUtils@xercesc_2_8@@SAIPAXQAVMemoryManager@2@@Z
       2338  921 000FE900 ?curPos@BinFileInputStream@xercesc_2_8@@UBEIXZ
       2339  922 000ED3C0 ?curPos@BinHTTPURLInputStream@xercesc_2_8@@UBEIXZ
       2340  923 00102B80 ?curPos@BinMemInputStream@xercesc_2_8@@UBEIXZ
       2341  924 000D6A10 ?customNodeSerialize@DOMWriterImpl@xercesc_2_8@@MAE_NQBVDOMNode@2@H@Z
       2342  925 000FBD00 ?cut@XMLString@xercesc_2_8@@SAXQA_WI@Z
       2343  926 00193450 ?deactivateContext@IdentityConstraintHandler@xercesc_2_8@@QAEXQAVSchemaElementDecl@2@QB_W@Z
       2344  927 00125780 ?deallocate@MemoryManagerArrayImpl@xercesc_2_8@@UAEXPAX@Z
       2345  928 00125780 ?deallocate@MemoryManagerImpl@xercesc_2_8@@UAEXPAX@Z
       2346  929 001AC160 ?decode@Base64@xercesc_2_8@@CAPAEQBEPAIAAPAEQAVMemoryManager@2@W4Conformance@12@@Z
       2347  92A 001ABBD0 ?decode@Base64@xercesc_2_8@@SAPAEQBEPAIQAVMemoryManager@2@W4Conformance@12@@Z
       2348  92B 001ABC30 ?decode@Base64@xercesc_2_8@@SAPA_WQB_WPAIQAVMemoryManager@2@W4Conformance@12@@Z
       2349  92C 001ACDE0 ?decode@HexBin@xercesc_2_8@@SAPA_WQB_WQAVMemoryManager@2@@Z
       2350  92D 0013B750 ?decodeEscaped@ParserForXMLSchema@xercesc_2_8@@MAEHXZ
       2351  92E 00139030 ?decodeEscaped@RegxParser@xercesc_2_8@@MAEHXZ
       2352  92F 001ABE20 ?decodeToXMLByte@Base64@xercesc_2_8@@SAPAEQB_WPAIQAVMemoryManager@2@W4Conformance@12@@Z
       2353  930 001ACEF0 ?decodeToXMLByte@HexBin@xercesc_2_8@@SAPAEQB_WQAVMemoryManager@2@@Z
       2354  931 0013B8A0 ?decomposeToSurrogates@RegxUtil@xercesc_2_8@@SAPA_WHQAVMemoryManager@2@@Z
       2355  932 000F0B80 ?decomposeToSurrogates@RegxUtil@xercesc_2_8@@SAXHAA_W0@Z
       2356  933 00172680 ?decreaseDepth@NamespaceScope@xercesc_2_8@@QAEIXZ
       2357  934 001A1C80 ?defaultComplexTypeInfo@TraverseSchema@xercesc_2_8@@AAEXQAVComplexTypeInfo@2@@Z
       2358  935 001AF620 ?deleteContents@DOMRangeImpl@xercesc_2_8@@UAEXXZ
       2359  936 001B9070 ?deleteData@DOMCDATASectionImpl@xercesc_2_8@@UAEXKK@Z
       2360  937 001B1BC0 ?deleteData@DOMCharacterDataImpl@xercesc_2_8@@QAEXPBVDOMNode@2@KK@Z
       2361  938 001BA000 ?deleteData@DOMCommentImpl@xercesc_2_8@@UAEXKK@Z
       2362  939 001BA000 ?deleteData@DOMProcessingInstructionImpl@xercesc_2_8@@QAEXKK@Z
       2363  93A 001BA000 ?deleteData@DOMTextImpl@xercesc_2_8@@UAEXKK@Z
       2364  93B 001686F0 ?deleteHeap@DOMDocumentImpl@xercesc_2_8@@QAEXXZ
       2365  93C 001ADD80 ?derivedFrom@XSTypeDefinition@xercesc_2_8@@QAE_NPB_W0@Z
       2366  93D 0015F630 ?derivedFromType@XSComplexTypeDefinition@xercesc_2_8@@UAE_NQBVXSTypeDefinition@2@@Z
       2367  93E 001C13A0 ?derivedFromType@XSSimpleTypeDefinition@xercesc_2_8@@UAE_NQBVXSTypeDefinition@2@@Z
       2368  93F 00159E50 ?deserializeGrammars@XMLGrammarPoolImpl@xercesc_2_8@@UAEXQAVBinInputStream@2@@Z
       2369  940 001AE110 ?detach@DOMNodeIteratorImpl@xercesc_2_8@@UAEXXZ
       2370  941 001AEF80 ?detach@DOMRangeImpl@xercesc_2_8@@UAEXXZ
       2371  942 001ACC30 ?divide@XMLBigInteger@xercesc_2_8@@QAEXI@Z
       2372  943 00123B60 ?doCleanup@XMLRegisterCleanup@xercesc_2_8@@QAEXXZ
       2373  944 0013A450 ?doCreateMap@RangeToken@xercesc_2_8@@AAEXXZ
       2374  945 00112A80 ?doInitDecode@XMLReader@xercesc_2_8@@AAEXXZ
       2375  946 00195EE0 ?doTraverseSchema@TraverseSchema@xercesc_2_8@@AAEXQBVDOMElement@2@@Z
       2376  947 00121E70 ?docCharacters@AbstractDOMParser@xercesc_2_8@@UAEXQB_WI_N@Z
       2377  948 001BC880 ?docCharacters@SAX2XMLReaderImpl@xercesc_2_8@@UAEXQB_WI_N@Z
       2378  949 000F60F0 ?docCharacters@SAXParser@xercesc_2_8@@UAEXQB_WI_N@Z
       2379  94A 001958F0 ?docCharacters@XSDDOMParser@xercesc_2_8@@UAEXQB_WI_N@Z
       2380  94B 00121F10 ?docComment@AbstractDOMParser@xercesc_2_8@@UAEXQB_W@Z
       2381  94C 001BC910 ?docComment@SAX2XMLReaderImpl@xercesc_2_8@@UAEXQB_W@Z
       2382  94D 000F6150 ?docComment@SAXParser@xercesc_2_8@@UAEXQB_W@Z
       2383  94E 00195AB0 ?docComment@XSDDOMParser@xercesc_2_8@@UAEXQB_W@Z
       2384  94F 00121F40 ?docPI@AbstractDOMParser@xercesc_2_8@@UAEXQB_W0@Z
       2385  950 001BC9C0 ?docPI@SAX2XMLReaderImpl@xercesc_2_8@@UAEXQB_W0@Z
       2386  951 000F61C0 ?docPI@SAXParser@xercesc_2_8@@UAEXQB_W0@Z
       2387  952 00122C00 ?doctypeComment@AbstractDOMParser@xercesc_2_8@@UAEXQB_W@Z
       2388  953 001BD4D0 ?doctypeComment@SAX2XMLReaderImpl@xercesc_2_8@@UAEXQB_W@Z
       2389  954 000F7710 ?doctypeComment@SAXParser@xercesc_2_8@@UAEXQB_W@Z
       2390  955 00122CF0 ?doctypeDecl@AbstractDOMParser@xercesc_2_8@@UAEXABVDTDElementDecl@2@QB_W1_N2@Z
       2391  956 001BD530 ?doctypeDecl@SAX2XMLReaderImpl@xercesc_2_8@@UAEXABVDTDElementDecl@2@QB_W1_N2@Z
       2392  957 000AD110 ?doctypeDecl@SAXParser@xercesc_2_8@@UAEXABVDTDElementDecl@2@QB_W1_N2@Z
       2393  958 00122D30 ?doctypePI@AbstractDOMParser@xercesc_2_8@@UAEXQB_W0@Z
       2394  959 000C1D60 ?doctypePI@SAX2XMLReaderImpl@xercesc_2_8@@UAEXQB_W0@Z
       2395  95A 000C1D60 ?doctypePI@SAXParser@xercesc_2_8@@UAEXQB_W0@Z
       2396  95B 00122E10 ?doctypeWhitespace@AbstractDOMParser@xercesc_2_8@@UAEXQB_WI@Z
       2397  95C 000C1D60 ?doctypeWhitespace@SAX2XMLReaderImpl@xercesc_2_8@@UAEXQB_WI@Z
       2398  95D 000C1D60 ?doctypeWhitespace@SAXParser@xercesc_2_8@@UAEXQB_WI@Z
       2399  95E 000ECB50 ?duplicate@ArrayIndexOutOfBoundsException@xercesc_2_8@@UBEPAVXMLException@2@XZ
       2400  95F 000F2A80 ?duplicate@EmptyStackException@xercesc_2_8@@UBEPAVXMLException@2@XZ
       2401  960 000F4F10 ?duplicate@IOException@xercesc_2_8@@UBEPAVXMLException@2@XZ
       2402  961 000EC6F0 ?duplicate@IllegalArgumentException@xercesc_2_8@@UBEPAVXMLException@2@XZ
       2403  962 00103230 ?duplicate@InvalidDatatypeFacetException@xercesc_2_8@@UBEPAVXMLException@2@XZ
       2404  963 001034E0 ?duplicate@InvalidDatatypeValueException@xercesc_2_8@@UBEPAVXMLException@2@XZ
       2405  964 000ED690 ?duplicate@MalformedURLException@xercesc_2_8@@UBEPAVXMLException@2@XZ
       2406  965 000ED9B0 ?duplicate@NetAccessorException@xercesc_2_8@@UBEPAVXMLException@2@XZ
       2407  966 000EC920 ?duplicate@NoSuchElementException@xercesc_2_8@@UBEPAVXMLException@2@XZ
       2408  967 000ED340 ?duplicate@NullPointerException@xercesc_2_8@@UBEPAVXMLException@2@XZ
       2409  968 000FB9D0 ?duplicate@NumberFormatException@xercesc_2_8@@UBEPAVXMLException@2@XZ
       2410  969 0010A780 ?duplicate@ParseException@xercesc_2_8@@UBEPAVXMLException@2@XZ
       2411  96A 000EC4B0 ?duplicate@RuntimeException@xercesc_2_8@@UBEPAVXMLException@2@XZ
       2412  96B 0012AF10 ?duplicate@SchemaDateTimeException@xercesc_2_8@@UBEPAVXMLException@2@XZ
       2413  96C 000F2420 ?duplicate@TranscodingException@xercesc_2_8@@UBEPAVXMLException@2@XZ
       2414  96D 001259A0 ?duplicate@UTFDataFormatException@xercesc_2_8@@UBEPAVXMLException@2@XZ
       2415  96E 00105D80 ?duplicate@UnexpectedEOFException@xercesc_2_8@@UBEPAVXMLException@2@XZ
       2416  96F 000EC1C0 ?duplicate@XMLPlatformUtilsException@xercesc_2_8@@UBEPAVXMLException@2@XZ
       2417  970 00127FB0 ?duplicate@XPathException@xercesc_2_8@@UBEPAVXMLException@2@XZ
       2418  971 000EDBE0 ?duplicate@XSerializationException@xercesc_2_8@@UBEPAVXMLException@2@XZ
       2419  972 0013DF20 ?duplicateValue@ValueStore@xercesc_2_8@@QAEXXZ
       2420  973 000F3820 ?elementAt@ComplexTypeInfo@xercesc_2_8@@QAEPAVSchemaElementDecl@2@I@Z
       2421  974 000F3820 ?elementAt@ComplexTypeInfo@xercesc_2_8@@QBEPBVSchemaElementDecl@2@I@Z
       2422  975 00102780 ?elementAt@Op@xercesc_2_8@@UBEPBV12@H@Z
       2423  976 001029B0 ?elementAt@UnionOp@xercesc_2_8@@UBEPBVOp@2@H@Z
       2424  977 00103AF0 ?elementAt@XercesGroupInfo@xercesc_2_8@@QAEPAVSchemaElementDecl@2@I@Z
       2425  978 00103AF0 ?elementAt@XercesGroupInfo@xercesc_2_8@@QBEPBVSchemaElementDecl@2@I@Z
       2426  979 000F37E0 ?elementCount@ComplexTypeInfo@xercesc_2_8@@QBEIXZ
       2427  97A 00103AE0 ?elementCount@XercesGroupInfo@xercesc_2_8@@QBEIXZ
       2428  97B 00122E30 ?elementDecl@AbstractDOMParser@xercesc_2_8@@UAEXABVDTDElementDecl@2@_N@Z
       2429  97C 001BD580 ?elementDecl@SAX2XMLReaderImpl@xercesc_2_8@@UAEXABVDTDElementDecl@2@_N@Z
       2430  97D 000C1D60 ?elementDecl@SAXParser@xercesc_2_8@@UAEXABVDTDElementDecl@2@_N@Z
       2431  97E 000C1D60 ?elementTypeInfo@AbstractDOMParser@xercesc_2_8@@UAEXQB_W0@Z
       2432  97F 000C1D60 ?elementTypeInfo@XMLDocumentHandler@xercesc_2_8@@UAEXQB_W0@Z
       2433  980 00107870 ?emitError@XMLScanner@xercesc_2_8@@QAEXW4Codes@XMLErrs@2@@Z
       2434  981 00107AB0 ?emitError@XMLScanner@xercesc_2_8@@QAEXW4Codes@XMLErrs@2@QBD111@Z
       2435  982 00107970 ?emitError@XMLScanner@xercesc_2_8@@QAEXW4Codes@XMLErrs@2@QB_W111@Z
       2436  983 00107BF0 ?emitError@XMLScanner@xercesc_2_8@@QAEXW4Codes@XMLErrs@2@W43XMLExcepts@2@QB_W222@Z
       2437  984 00115420 ?emitError@XMLValidator@xercesc_2_8@@QAEXW4Codes@XMLValid@2@@Z
       2438  985 00115670 ?emitError@XMLValidator@xercesc_2_8@@QAEXW4Codes@XMLValid@2@QBD111@Z
       2439  986 00115530 ?emitError@XMLValidator@xercesc_2_8@@QAEXW4Codes@XMLValid@2@QB_W111@Z
       2440  987 001157B0 ?emitError@XMLValidator@xercesc_2_8@@QAEXW4Codes@XMLValid@2@W43XMLExcepts@2@QB_W222@Z
       2441  988 0016F610 ?emitError@XSDErrorReporter@xercesc_2_8@@QAEXABVXMLException@2@QBVLocator@2@@Z
       2442  989 0016F460 ?emitError@XSDErrorReporter@xercesc_2_8@@QAEXIQB_WQBVLocator@2@0000QAVMemoryManager@2@@Z
       2443  98A 0016F300 ?emitError@XSDErrorReporter@xercesc_2_8@@QAEXIQB_WQBVLocator@2@@Z
       2444  98B 00107840 ?emitErrorWillThrowException@XMLScanner@xercesc_2_8@@QAE_NW4Codes@XMLErrs@2@@Z
       2445  98C 001A1FD0 ?emptiableParticle@TraverseSchema@xercesc_2_8@@AAE_NQBVContentSpecNode@2@@Z
       2446  98D 0078CA52 ?enableNEL@XMLChar1_0@xercesc_2_8@@0_NA
       2447  98E 000FE2F0 ?enableNELWS@XMLChar1_0@xercesc_2_8@@SAXXZ
       2448  98F 001AB980 ?encode@Base64@xercesc_2_8@@SAPAEQBEIPAIQAVMemoryManager@2@@Z
       2449  990 0013E440 ?encodingForName@XMLRecognizer@xercesc_2_8@@SA?AW4Encodings@12@QB_W@Z
       2450  991 00195140 ?endAnnotationElement@XSDDOMParser@xercesc_2_8@@AAEXABVXMLElementDecl@2@_N@Z
       2451  992 00122F40 ?endAttList@AbstractDOMParser@xercesc_2_8@@UAEXABVDTDElementDecl@2@@Z
       2452  993 000F7710 ?endAttList@SAX2XMLReaderImpl@xercesc_2_8@@UAEXABVDTDElementDecl@2@@Z
       2453  994 000F7710 ?endAttList@SAXParser@xercesc_2_8@@UAEXABVDTDElementDecl@2@@Z
       2454  995 0013DDE0 ?endDcocumentFragment@ValueStore@xercesc_2_8@@QAEXQAVValueStoreCache@2@@Z
       2455  996 00122140 ?endDocument@AbstractDOMParser@xercesc_2_8@@UAEXXZ
       2456  997 001BD790 ?endDocument@IdentityConstraintHandler@xercesc_2_8@@QAEXXZ
       2457  998 001BCA10 ?endDocument@SAX2XMLReaderImpl@xercesc_2_8@@UAEXXZ
       2458  999 000F6210 ?endDocument@SAXParser@xercesc_2_8@@UAEXXZ
       2459  99A 001BD790 ?endDocument@ValueStoreCache@xercesc_2_8@@QAEXXZ
       2460  99B 00121FC0 ?endElement@AbstractDOMParser@xercesc_2_8@@UAEXABVXMLElementDecl@2@I_NQB_W@Z
       2461  99C 001BD050 ?endElement@SAX2XMLReaderImpl@xercesc_2_8@@UAEXABVXMLElementDecl@2@I_NQB_W@Z
       2462  99D 000F6250 ?endElement@SAXParser@xercesc_2_8@@UAEXABVXMLElementDecl@2@I_NQB_W@Z
       2463  99E 00182AA0 ?endElement@SelectorMatcher@xercesc_2_8@@UAEXABVXMLElementDecl@2@QB_W@Z
       2464  99F 00183280 ?endElement@ValueStoreCache@xercesc_2_8@@QAEXXZ
       2465  9A0 00118160 ?endElement@XPathMatcher@xercesc_2_8@@UAEXABVXMLElementDecl@2@QB_W@Z
       2466  9A1 00195870 ?endElement@XSDDOMParser@xercesc_2_8@@UAEXABVXMLElementDecl@2@I_NQB_W@Z
       2467  9A2 0014BB10 ?endElementPSVI@IGXMLScanner@xercesc_2_8@@AAEXQAVSchemaElementDecl@2@QAVDatatypeValidator@2@@Z
       2468  9A3 00156DF0 ?endElementPSVI@SGXMLScanner@xercesc_2_8@@AAEXQAVSchemaElementDecl@2@QAVDatatypeValidator@2@@Z
       2469  9A4 00121F70 ?endEntityReference@AbstractDOMParser@xercesc_2_8@@UAEXABVXMLEntityDecl@2@@Z
       2470  9A5 001BCA50 ?endEntityReference@SAX2XMLReaderImpl@xercesc_2_8@@UAEXABVXMLEntityDecl@2@@Z
       2471  9A6 000F6320 ?endEntityReference@SAXParser@xercesc_2_8@@UAEXABVXMLEntityDecl@2@@Z
       2472  9A7 000F7710 ?endEntityReference@XSDDOMParser@xercesc_2_8@@UAEXABVXMLEntityDecl@2@@Z
       2473  9A8 001BD790 ?endExtSubset@AbstractDOMParser@xercesc_2_8@@UAEXXZ
       2474  9A9 001BD5E0 ?endExtSubset@SAX2XMLReaderImpl@xercesc_2_8@@UAEXXZ
       2475  9AA 001BD790 ?endExtSubset@SAXParser@xercesc_2_8@@UAEXXZ
       2476  9AB 000F7710 ?endInputSource@DOMBuilderImpl@xercesc_2_8@@UAEXABVInputSource@2@@Z
       2477  9AC 000F7710 ?endInputSource@SAX2XMLReaderImpl@xercesc_2_8@@UAEXABVInputSource@2@@Z
       2478  9AD 000F7710 ?endInputSource@SAXParser@xercesc_2_8@@UAEXABVInputSource@2@@Z
       2479  9AE 000F7710 ?endInputSource@XercesDOMParser@xercesc_2_8@@UAEXABVInputSource@2@@Z
       2480  9AF 00123230 ?endIntSubset@AbstractDOMParser@xercesc_2_8@@UAEXXZ
       2481  9B0 001BD5C0 ?endIntSubset@SAX2XMLReaderImpl@xercesc_2_8@@UAEXXZ
       2482  9B1 001BD790 ?endIntSubset@SAXParser@xercesc_2_8@@UAEXXZ
       2483  9B2 0013DA70 ?endValueScope@ValueStore@xercesc_2_8@@QAEXXZ
       2484  9B3 001BEC20 ?endValueScopeFor@FieldActivator@xercesc_2_8@@QAEXQBVIdentityConstraint@2@H@Z
       2485  9B4 000ECF60 ?endsWith@XMLString@xercesc_2_8@@SA_NQB_W0@Z
       2486  9B5 00101C40 ?ensureBufferLen@XSerializeEngine@xercesc_2_8@@ABEXH@Z
       2487  9B6 00101A90 ?ensureLoadBuffer@XSerializeEngine@xercesc_2_8@@ABEXXZ
       2488  9B7 000EDCD0 ?ensureLoading@XSerializeEngine@xercesc_2_8@@ABEXXZ
       2489  9B8 00101BA0 ?ensurePointer@XSerializeEngine@xercesc_2_8@@ABEXQAX@Z
       2490  9B9 00101980 ?ensureStoreBuffer@XSerializeEngine@xercesc_2_8@@ABEXXZ
       2491  9BA 000EDC80 ?ensureStoring@XSerializeEngine@xercesc_2_8@@ABEXXZ
       2492  9BB 00123260 ?entityDecl@AbstractDOMParser@xercesc_2_8@@UAEXABVDTDEntityDecl@2@_N1@Z
       2493  9BC 001BD610 ?entityDecl@SAX2XMLReaderImpl@xercesc_2_8@@UAEXABVDTDEntityDecl@2@_N1@Z
       2494  9BD 000F65F0 ?entityDecl@SAXParser@xercesc_2_8@@UAEXABVDTDEntityDecl@2@_N1@Z
       2495  9BE 001403E0 ?equals@HashCMStateSet@xercesc_2_8@@UAE_NQBX0@Z
       2496  9BF 001256C0 ?equals@HashPtr@xercesc_2_8@@UAE_NQBX0@Z
       2497  9C0 0011F380 ?equals@HashXMLCh@xercesc_2_8@@UAE_NQBX0@Z
       2498  9C1 000ED0B0 ?equals@XMLString@xercesc_2_8@@SA_NQBD0@Z
       2499  9C2 000ED060 ?equals@XMLString@xercesc_2_8@@SA_NQB_W0@Z
       2500  9C3 001B6A70 ?error@DOMBuilderImpl@xercesc_2_8@@UAEXIQB_WW4ErrTypes@XMLErrorReporter@2@000JJ@Z
       2501  9C4 001BD850 ?error@SAX2XMLReaderImpl@xercesc_2_8@@UAEXIQB_WW4ErrTypes@XMLErrorReporter@2@000JJ@Z
       2502  9C5 000F66A0 ?error@SAXParser@xercesc_2_8@@UAEXIQB_WW4ErrTypes@XMLErrorReporter@2@000JJ@Z
       2503  9C6 00195B70 ?error@XSDDOMParser@xercesc_2_8@@UAEXIQB_WW4ErrTypes@XMLErrorReporter@2@000JJ@Z
       2504  9C7 000F7970 ?error@XercesDOMParser@xercesc_2_8@@UAEXIQB_WW4ErrTypes@XMLErrorReporter@2@000JJ@Z
       2505  9C8 00167C40 ?evaluate@DOMDocumentImpl@xercesc_2_8@@UAEPAXPB_WPAVDOMNode@2@PBVDOMXPathNSResolver@2@GPAX@Z
       2506  9C9 000F2ED0 ?exists@XMLStringPool@xercesc_2_8@@UBE_NI@Z
       2507  9CA 000F2EB0 ?exists@XMLStringPool@xercesc_2_8@@UBE_NQB_W@Z
       2508  9CB 001A8AD0 ?exists@XMLSynchronizedStringPool@xercesc_2_8@@UBE_NI@Z
       2509  9CC 001A8A90 ?exists@XMLSynchronizedStringPool@xercesc_2_8@@UBE_NQB_W@Z
       2510  9CD 0013A3B0 ?expand@RangeToken@xercesc_2_8@@AAEXI@Z
       2511  9CE 0011D2E0 ?expandContentModel@ComplexTypeInfo@xercesc_2_8@@AAEPAVContentSpecNode@2@QAV32@HH@Z
       2512  9CF 0010E8B0 ?expandMap@ElemStack@xercesc_2_8@@AAEXQAUStackElem@12@@Z
       2513  9D0 001727F0 ?expandMap@NamespaceScope@xercesc_2_8@@AAEXQAUStackElem@12@@Z
       2514  9D1 0010F040 ?expandMap@WFElemStack@xercesc_2_8@@AAEXXZ
       2515  9D2 00185BF0 ?expandPERef@DTDScanner@xercesc_2_8@@AAE_N_N000@Z
       2516  9D3 0012C810 ?expandRegistryToFullSchemaSet@DatatypeValidatorFactory@xercesc_2_8@@QAEXXZ
       2517  9D4 0010E960 ?expandStack@ElemStack@xercesc_2_8@@AAEXXZ
       2518  9D5 00172890 ?expandStack@NamespaceScope@xercesc_2_8@@AAEXXZ
       2519  9D6 0010F0E0 ?expandStack@WFElemStack@xercesc_2_8@@AAEXXZ
       2520  9D7 000D6A10 ?expandSystemId@DOMBuilderImpl@xercesc_2_8@@UAE_NQB_WAAVXMLBuffer@2@@Z
       2521  9D8 000D6A10 ?expandSystemId@SAX2XMLReaderImpl@xercesc_2_8@@UAE_NQB_WAAVXMLBuffer@2@@Z
       2522  9D9 000D6A10 ?expandSystemId@SAXParser@xercesc_2_8@@UAE_NQB_WAAVXMLBuffer@2@@Z
       2523  9DA 000D6A10 ?expandSystemId@XercesDOMParser@xercesc_2_8@@UAE_NQB_WAAVXMLBuffer@2@@Z
       2524  9DB 001AF630 ?extractContents@DOMRangeImpl@xercesc_2_8@@UAEPAVDOMDocumentFragment@2@XZ
       2525  9DC 0040C990 ?fASCIICharMap@XPathScanner@xercesc_2_8@@0QBEB
       2526  9DD 0078CB30 ?fAnyType@ComplexTypeInfo@xercesc_2_8@@0PAV12@A
       2527  9DE 0078CBEC ?fAnyURIDV@GeneralAttributeCheck@xercesc_2_8@@0PAVDatatypeValidator@2@A
       2528  9DF 0078CBDC ?fAttMap@GeneralAttributeCheck@xercesc_2_8@@0PAV?$ValueHashTableOf@G@2@A
       2529  9E0 0075CA40 ?fAttNames@GeneralAttributeCheck@xercesc_2_8@@0PAPB_WA
       2530  9E1 0078CBE8 ?fBooleanDV@GeneralAttributeCheck@xercesc_2_8@@0PAVDatatypeValidator@2@A
       2531  9E2 0078CB48 ?fBuiltInRegistry@DatatypeValidatorFactory@xercesc_2_8@@0PAV?$RefHashTableOf@VDatatypeValidator@xercesc_2_8@@@2@A
       2532  9E3 0078CB4C ?fCanRepRegistry@DatatypeValidatorFactory@xercesc_2_8@@0PAV?$RefHashTableOf@VXMLCanRepGroup@xercesc_2_8@@@2@A
       2533  9E4 003E51E4 ?fDEFAULT_VALUES@DOMConfigurationImpl@xercesc_2_8@@2GB
       2534  9E5 0078CB6C ?fDataTypeRegistry@XSValue@xercesc_2_8@@0PAV?$ValueHashTableOf@W4DataType@XSValue@xercesc_2_8@@@2@A
       2535  9E6 0078CB60 ?fDefaultEntities@DTDGrammar@xercesc_2_8@@0PAV?$NameIdPool@VDTDEntityDecl@xercesc_2_8@@@2@A
       2536  9E7 0078CBE0 ?fFacetsMap@GeneralAttributeCheck@xercesc_2_8@@0PAV?$ValueHashTableOf@G@2@A
       2537  9E8 003D4507 ?fFalse@DOMConfigurationImpl@xercesc_2_8@@0_NB
       2538  9E9 0078CBC0 ?fInitMutex@BinHTTPURLInputStream@xercesc_2_8@@0PAVXMLMutex@2@A
       2539  9EA 0078CB59 ?fInitialized@BinHTTPURLInputStream@xercesc_2_8@@0_NA
       2540  9EB 0078CBC8 ?fInstance@EncodingValidator@xercesc_2_8@@0PAV12@A
       2541  9EC 0078CB54 ?fInstance@RangeTokenMap@xercesc_2_8@@0PAV12@A
       2542  9ED 0075CC7C ?fLanguage@XMLMsgLoader@xercesc_2_8@@0PA_WA
       2543  9EE 0078CB34 ?fLocale@XMLMsgLoader@xercesc_2_8@@0PADA
       2544  9EF 0078CBE4 ?fNonNegIntDV@GeneralAttributeCheck@xercesc_2_8@@0PAVDatatypeValidator@2@A
       2545  9F0 0078CB38 ?fPath@XMLMsgLoader@xercesc_2_8@@0PADA
       2546  9F1 003D561E ?fTrue@DOMConfigurationImpl@xercesc_2_8@@0_NB
       2547  9F2 0078CB20 ?fWordRange@RegularExpression@xercesc_2_8@@0PAVRangeToken@2@A
       2548  9F3 0011CB20 ?faultInAttDefList@ComplexTypeInfo@xercesc_2_8@@ABEXXZ
       2549  9F4 00116780 ?faultInAttDefList@DTDElementDecl@xercesc_2_8@@ABEXXZ
       2550  9F5 00185060 ?faultInAttr@DTDValidator@xercesc_2_8@@UBEXAAVXMLAttr@2@ABVXMLAttDef@2@@Z
       2551  9F6 0018B8F0 ?faultInAttr@SchemaValidator@xercesc_2_8@@UBEXAAVXMLAttr@2@ABVXMLAttDef@2@@Z
       2552  9F7 003FC5B0 ?fgASCIIPre@XMLRecognizer@xercesc_2_8@@2QBDB
       2553  9F8 003FC5B8 ?fgASCIIPreLen@XMLRecognizer@xercesc_2_8@@2IB
       2554  9F9 00442A94 ?fgATTVAL_ANYTYPE@SchemaSymbols@xercesc_2_8@@2QB_WB
       2555  9FA 0044285C ?fgATTVAL_BASE64@SchemaSymbols@xercesc_2_8@@2QB_WB
       2556  9FB 0044286C ?fgATTVAL_BOOLEAN@SchemaSymbols@xercesc_2_8@@2QB_WB
       2557  9FC 0044287C ?fgATTVAL_DEFAULT@SchemaSymbols@xercesc_2_8@@2QB_WB
       2558  9FD 0044288C ?fgATTVAL_ELEMENTONLY@SchemaSymbols@xercesc_2_8@@2QB_WB
       2559  9FE 004428A4 ?fgATTVAL_EMPTY@SchemaSymbols@xercesc_2_8@@2QB_WB
       2560  9FF 004428B0 ?fgATTVAL_EXTENSION@SchemaSymbols@xercesc_2_8@@2QB_WB
       2561  A00 004428C4 ?fgATTVAL_FALSE@SchemaSymbols@xercesc_2_8@@2QB_WB
       2562  A01 004428D0 ?fgATTVAL_FIXED@SchemaSymbols@xercesc_2_8@@2QB_WB
       2563  A02 004428DC ?fgATTVAL_HEX@SchemaSymbols@xercesc_2_8@@2QB_WB
       2564  A03 004428E4 ?fgATTVAL_ID@SchemaSymbols@xercesc_2_8@@2QB_WB
       2565  A04 004428EC ?fgATTVAL_LAX@SchemaSymbols@xercesc_2_8@@2QB_WB
       2566  A05 004428F4 ?fgATTVAL_MAXLENGTH@SchemaSymbols@xercesc_2_8@@2QB_WB
       2567  A06 00442908 ?fgATTVAL_MINLENGTH@SchemaSymbols@xercesc_2_8@@2QB_WB
       2568  A07 0044291C ?fgATTVAL_MIXED@SchemaSymbols@xercesc_2_8@@2QB_WB
       2569  A08 00442928 ?fgATTVAL_NCNAME@SchemaSymbols@xercesc_2_8@@2QB_WB
       2570  A09 00442938 ?fgATTVAL_OPTIONAL@SchemaSymbols@xercesc_2_8@@2QB_WB
       2571  A0A 00442850 ?fgATTVAL_POUNDALL@SchemaSymbols@xercesc_2_8@@2QB_WB
       2572  A0B 0044294C ?fgATTVAL_PROHIBITED@SchemaSymbols@xercesc_2_8@@2QB_WB
       2573  A0C 00442964 ?fgATTVAL_QNAME@SchemaSymbols@xercesc_2_8@@2QB_WB
       2574  A0D 00442970 ?fgATTVAL_QUALIFIED@SchemaSymbols@xercesc_2_8@@2QB_WB
       2575  A0E 00442984 ?fgATTVAL_REQUIRED@SchemaSymbols@xercesc_2_8@@2QB_WB
       2576  A0F 00442998 ?fgATTVAL_RESTRICTION@SchemaSymbols@xercesc_2_8@@2QB_WB
       2577  A10 004429B0 ?fgATTVAL_SKIP@SchemaSymbols@xercesc_2_8@@2QB_WB
       2578  A11 004429BC ?fgATTVAL_STRICT@SchemaSymbols@xercesc_2_8@@2QB_WB
       2579  A12 004429CC ?fgATTVAL_STRING@SchemaSymbols@xercesc_2_8@@2QB_WB
       2580  A13 00442A78 ?fgATTVAL_SUBSTITUTION@SchemaSymbols@xercesc_2_8@@2QB_WB
       2581  A14 00442A54 ?fgATTVAL_SUBSTITUTIONGROUP@SchemaSymbols@xercesc_2_8@@2QB_WB
       2582  A15 004429DC ?fgATTVAL_TEXTONLY@SchemaSymbols@xercesc_2_8@@2QB_WB
       2583  A16 004429F0 ?fgATTVAL_TIMEDURATION@SchemaSymbols@xercesc_2_8@@2QB_WB
       2584  A17 00442A0C ?fgATTVAL_TRUE@SchemaSymbols@xercesc_2_8@@2QB_WB
       2585  A18 00442800 ?fgATTVAL_TWOPOUNDANY@SchemaSymbols@xercesc_2_8@@2QB_WB
       2586  A19 0044280C ?fgATTVAL_TWOPOUNDLOCAL@SchemaSymbols@xercesc_2_8@@2QB_WB
       2587  A1A 0044281C ?fgATTVAL_TWOPOUNDOTHER@SchemaSymbols@xercesc_2_8@@2QB_WB
       2588  A1B 0044282C ?fgATTVAL_TWOPOUNDTRAGETNAMESPACE@SchemaSymbols@xercesc_2_8@@2QB_WB
       2589  A1C 00442A18 ?fgATTVAL_UNQUALIFIED@SchemaSymbols@xercesc_2_8@@2QB_WB
       2590  A1D 00442A30 ?fgATTVAL_URI@SchemaSymbols@xercesc_2_8@@2QB_WB
       2591  A1E 00442A38 ?fgATTVAL_URIREFERENCE@SchemaSymbols@xercesc_2_8@@2QB_WB
       2592  A1F 0044256C ?fgATT_ABSTRACT@SchemaSymbols@xercesc_2_8@@2QB_WB
       2593  A20 00442580 ?fgATT_ATTRIBUTEFORMDEFAULT@SchemaSymbols@xercesc_2_8@@2QB_WB
       2594  A21 004425AC ?fgATT_BASE@SchemaSymbols@xercesc_2_8@@2QB_WB
       2595  A22 004425E4 ?fgATT_BLOCK@SchemaSymbols@xercesc_2_8@@2QB_WB
       2596  A23 004425F0 ?fgATT_BLOCKDEFAULT@SchemaSymbols@xercesc_2_8@@2QB_WB
       2597  A24 0044260C ?fgATT_DEFAULT@SchemaSymbols@xercesc_2_8@@2QB_WB
       2598  A25 0044261C ?fgATT_ELEMENTFORMDEFAULT@SchemaSymbols@xercesc_2_8@@2QB_WB
       2599  A26 00442668 ?fgATT_FINAL@SchemaSymbols@xercesc_2_8@@2QB_WB
       2600  A27 00442674 ?fgATT_FINALDEFAULT@SchemaSymbols@xercesc_2_8@@2QB_WB
       2601  A28 00442690 ?fgATT_FIXED@SchemaSymbols@xercesc_2_8@@2QB_WB
       2602  A29 0044269C ?fgATT_FORM@SchemaSymbols@xercesc_2_8@@2QB_WB
       2603  A2A 004426A8 ?fgATT_ID@SchemaSymbols@xercesc_2_8@@2QB_WB
       2604  A2B 004425B8 ?fgATT_ITEMTYPE@SchemaSymbols@xercesc_2_8@@2QB_WB
       2605  A2C 004426B0 ?fgATT_MAXOCCURS@SchemaSymbols@xercesc_2_8@@2QB_WB
       2606  A2D 004425CC ?fgATT_MEMBERTYPES@SchemaSymbols@xercesc_2_8@@2QB_WB
       2607  A2E 004426C4 ?fgATT_MINOCCURS@SchemaSymbols@xercesc_2_8@@2QB_WB
       2608  A2F 004427D8 ?fgATT_MIXED@SchemaSymbols@xercesc_2_8@@2QB_WB
       2609  A30 004426D8 ?fgATT_NAME@SchemaSymbols@xercesc_2_8@@2QB_WB
       2610  A31 004426E4 ?fgATT_NAMESPACE@SchemaSymbols@xercesc_2_8@@2QB_WB
       2611  A32 004426F8 ?fgATT_NILL@SchemaSymbols@xercesc_2_8@@2QB_WB
       2612  A33 00442700 ?fgATT_NILLABLE@SchemaSymbols@xercesc_2_8@@2QB_WB
       2613  A34 00442714 ?fgATT_PROCESSCONTENTS@SchemaSymbols@xercesc_2_8@@2QB_WB
       2614  A35 00442788 ?fgATT_PUBLIC@SchemaSymbols@xercesc_2_8@@2QB_WB
       2615  A36 00442734 ?fgATT_REF@SchemaSymbols@xercesc_2_8@@2QB_WB
       2616  A37 0044273C ?fgATT_REFER@SchemaSymbols@xercesc_2_8@@2QB_WB
       2617  A38 00442748 ?fgATT_SCHEMALOCATION@SchemaSymbols@xercesc_2_8@@2QB_WB
       2618  A39 00442768 ?fgATT_SOURCE@SchemaSymbols@xercesc_2_8@@2QB_WB
       2619  A3A 00442644 ?fgATT_SUBSTITUTIONGROUP@SchemaSymbols@xercesc_2_8@@2QB_WB
       2620  A3B 00442778 ?fgATT_SYSTEM@SchemaSymbols@xercesc_2_8@@2QB_WB
       2621  A3C 00442798 ?fgATT_TARGETNAMESPACE@SchemaSymbols@xercesc_2_8@@2QB_WB
       2622  A3D 004427B8 ?fgATT_TYPE@SchemaSymbols@xercesc_2_8@@2QB_WB
       2623  A3E 004427C4 ?fgATT_USE@SchemaSymbols@xercesc_2_8@@2QB_WB
       2624  A3F 004427CC ?fgATT_VALUE@SchemaSymbols@xercesc_2_8@@2QB_WB
       2625  A40 004427E4 ?fgATT_VERSION@SchemaSymbols@xercesc_2_8@@2QB_WB
       2626  A41 004427F4 ?fgATT_XPATH@SchemaSymbols@xercesc_2_8@@2QB_WB
       2627  A42 00443780 ?fgAmp@XMLUni@xercesc_2_8@@2QB_WB
       2628  A43 00442EB4 ?fgAnyString@XMLUni@xercesc_2_8@@2QB_WB
       2629  A44 004437A4 ?fgApos@XMLUni@xercesc_2_8@@2QB_WB
       2630  A45 00443858 ?fgArrayIndexOutOfBoundsException_Name@XMLUni@xercesc_2_8@@2QB_WB
       2631  A46 0075CDB8 ?fgArrayMemoryManager@XMLPlatformUtils@xercesc_2_8@@2PAVMemoryManager@2@A
       2632  A47 0078CB10 ?fgAtomicMutex@XMLPlatformUtils@xercesc_2_8@@2PAVXMLMutex@2@A
       2633  A48 00442EBC ?fgAttListString@XMLUni@xercesc_2_8@@2QB_WB
       2634  A49 00444EC0 ?fgBooleanValueSpace@XMLUni@xercesc_2_8@@2QAY07$$CB_WA
       2635  A4A 00444E74 ?fgBooleanValueSpaceArraySize@XMLUni@xercesc_2_8@@2IB
       2636  A4B 00444E08 ?fgByteMaxInc@XMLUni@xercesc_2_8@@2QB_WB
       2637  A4C 00444E10 ?fgByteMinInc@XMLUni@xercesc_2_8@@2QB_WB
       2638  A4D 003E4FA0 ?fgCANONICAL_FORM@DOMConfigurationImpl@xercesc_2_8@@2QB_WB
       2639  A4E 00442ED8 ?fgCDATAString@XMLUni@xercesc_2_8@@2QB_WB
       2640  A4F 003E4FC0 ?fgCDATA_SECTIONS@DOMConfigurationImpl@xercesc_2_8@@2QB_WB
       2641  A50 00443850 ?fgCDataEnd@XMLUni@xercesc_2_8@@2QB_WB
       2642  A51 0044383C ?fgCDataStart@XMLUni@xercesc_2_8@@2QB_WB
       2643  A52 003E4FE0 ?fgCOMMENTS@DOMConfigurationImpl@xercesc_2_8@@2QB_WB
       2644  A53 0075CDC8 ?fgCharCharsTable1_0@XMLChar1_0@xercesc_2_8@@0PAEA
       2645  A54 0076CDC8 ?fgCharCharsTable1_1@XMLChar1_1@xercesc_2_8@@0PAEA
       2646  A55 00442ECC ?fgCommentString@XMLUni@xercesc_2_8@@2QB_WB
       2647  A56 003E4FF4 ?fgDATATYPE_NORMALIZATION@DOMConfigurationImpl@xercesc_2_8@@2QB_WB
       2648  A57 00443804 ?fgDGXMLScanner@XMLUni@xercesc_2_8@@2QB_WB
       2649  A58 003E5024 ?fgDISCARD_DEFAULT_CONTENT@DOMConfigurationImpl@xercesc_2_8@@2QB_WB
       2650  A59 004449CC ?fgDOMCDATASections@XMLUni@xercesc_2_8@@2QB_WB
       2651  A5A 004449AC ?fgDOMCanonicalForm@XMLUni@xercesc_2_8@@2QB_WB
       2652  A5B 004449EC ?fgDOMCharsetOverridesXMLEncoding@XMLUni@xercesc_2_8@@2QB_WB
       2653  A5C 00443DEC ?fgDOMComments@XMLUni@xercesc_2_8@@2QB_WB
       2654  A5D 00444A2C ?fgDOMDatatypeNormalization@XMLUni@xercesc_2_8@@2QB_WB
       2655  A5E 0044406C ?fgDOMEntities@XMLUni@xercesc_2_8@@2QB_WB
       2656  A5F 00444A5C ?fgDOMInfoset@XMLUni@xercesc_2_8@@2QB_WB
       2657  A60 00444A84 ?fgDOMNamespaceDeclarations@XMLUni@xercesc_2_8@@2QB_WB
       2658  A61 00444A6C ?fgDOMNamespaces@XMLUni@xercesc_2_8@@2QB_WB
       2659  A62 004442B4 ?fgDOMSupportedMediatypesOnly@XMLUni@xercesc_2_8@@2QB_WB
       2660  A63 00444AB4 ?fgDOMValidateIfSchema@XMLUni@xercesc_2_8@@2QB_WB
       2661  A64 00444ADC ?fgDOMValidation@XMLUni@xercesc_2_8@@2QB_WB
       2662  A65 00444C00 ?fgDOMWRTBOM@XMLUni@xercesc_2_8@@2QB_WB
       2663  A66 00444AF4 ?fgDOMWRTCanonicalForm@XMLUni@xercesc_2_8@@2QB_WB
       2664  A67 004447EC ?fgDOMWRTDiscardDefaultContent@XMLUni@xercesc_2_8@@2QB_WB
       2665  A68 00444B14 ?fgDOMWRTEntities@XMLUni@xercesc_2_8@@2QB_WB
       2666  A69 00444B28 ?fgDOMWRTFormatPrettyPrint@XMLUni@xercesc_2_8@@2QB_WB
       2667  A6A 00444B50 ?fgDOMWRTNormalizeCharacters@XMLUni@xercesc_2_8@@2QB_WB
       2668  A6B 00444B7C ?fgDOMWRTSplitCdataSections@XMLUni@xercesc_2_8@@2QB_WB
       2669  A6C 00444BA8 ?fgDOMWRTValidation@XMLUni@xercesc_2_8@@2QB_WB
       2670  A6D 00444BC0 ?fgDOMWRTWhitespaceInElementContent@XMLUni@xercesc_2_8@@2QB_WB
       2671  A6E 00444434 ?fgDOMWhitespaceInElementContent@XMLUni@xercesc_2_8@@2QB_WB
       2672  A6F 00444C68 ?fgDOMXMLDeclaration@XMLUni@xercesc_2_8@@2QB_WB
       2673  A70 00443774 ?fgDTDEntityString@XMLUni@xercesc_2_8@@2QB_WB
       2674  A71 00442DBC ?fgDT_ANYSIMPLETYPE@SchemaSymbols@xercesc_2_8@@2QB_WB
       2675  A72 00442D7C ?fgDT_ANYURI@SchemaSymbols@xercesc_2_8@@2QB_WB
       2676  A73 00442D14 ?fgDT_BASE64BINARY@SchemaSymbols@xercesc_2_8@@2QB_WB
       2677  A74 00442B48 ?fgDT_BOOLEAN@SchemaSymbols@xercesc_2_8@@2QB_WB
       2678  A75 00442BC0 ?fgDT_BYTE@SchemaSymbols@xercesc_2_8@@2QB_WB
       2679  A76 00442C94 ?fgDT_DATE@SchemaSymbols@xercesc_2_8@@2QB_WB
       2680  A77 00442C80 ?fgDT_DATETIME@SchemaSymbols@xercesc_2_8@@2QB_WB
       2681  A78 00442CC0 ?fgDT_DAY@SchemaSymbols@xercesc_2_8@@2QB_WB
       2682  A79 00442B38 ?fgDT_DECIMAL@SchemaSymbols@xercesc_2_8@@2QB_WB
       2683  A7A 00442D50 ?fgDT_DOUBLE@SchemaSymbols@xercesc_2_8@@2QB_WB
       2684  A7B 00442CAC ?fgDT_DURATION@SchemaSymbols@xercesc_2_8@@2QB_WB
       2685  A7C 00442D44 ?fgDT_FLOAT@SchemaSymbols@xercesc_2_8@@2QB_WB
       2686  A7D 00442D30 ?fgDT_HEXBINARY@SchemaSymbols@xercesc_2_8@@2QB_WB
       2687  A7E 00442BAC ?fgDT_INT@SchemaSymbols@xercesc_2_8@@2QB_WB
       2688  A7F 00442B28 ?fgDT_INTEGER@SchemaSymbols@xercesc_2_8@@2QB_WB
       2689  A80 00442AF8 ?fgDT_LANGUAGE@SchemaSymbols@xercesc_2_8@@2QB_WB
       2690  A81 00442BA0 ?fgDT_LONG@SchemaSymbols@xercesc_2_8@@2QB_WB
       2691  A82 00442CCC ?fgDT_MONTH@SchemaSymbols@xercesc_2_8@@2QB_WB
       2692  A83 00442CDC ?fgDT_MONTHDAY@SchemaSymbols@xercesc_2_8@@2QB_WB
       2693  A84 00442B0C ?fgDT_NAME@SchemaSymbols@xercesc_2_8@@2QB_WB
       2694  A85 00442B18 ?fgDT_NCNAME@SchemaSymbols@xercesc_2_8@@2QB_WB
       2695  A86 00442B80 ?fgDT_NEGATIVEINTEGER@SchemaSymbols@xercesc_2_8@@2QB_WB
       2696  A87 00442BCC ?fgDT_NONNEGATIVEINTEGER@SchemaSymbols@xercesc_2_8@@2QB_WB
       2697  A88 00442B58 ?fgDT_NONPOSITIVEINTEGER@SchemaSymbols@xercesc_2_8@@2QB_WB
       2698  A89 00442D98 ?fgDT_NORMALIZEDSTRING@SchemaSymbols@xercesc_2_8@@2QB_WB
       2699  A8A 00442C60 ?fgDT_POSITIVEINTEGER@SchemaSymbols@xercesc_2_8@@2QB_WB
       2700  A8B 00442D8C ?fgDT_QNAME@SchemaSymbols@xercesc_2_8@@2QB_WB
       2701  A8C 00442BB4 ?fgDT_SHORT@SchemaSymbols@xercesc_2_8@@2QB_WB
       2702  A8D 00442ADC ?fgDT_STRING@SchemaSymbols@xercesc_2_8@@2QB_WB
       2703  A8E 00442CA0 ?fgDT_TIME@SchemaSymbols@xercesc_2_8@@2QB_WB
       2704  A8F 00442AEC ?fgDT_TOKEN@SchemaSymbols@xercesc_2_8@@2QB_WB
       2705  A90 00442C44 ?fgDT_UBYTE@SchemaSymbols@xercesc_2_8@@2QB_WB
       2706  A91 00442C10 ?fgDT_UINT@SchemaSymbols@xercesc_2_8@@2QB_WB
       2707  A92 00442BF4 ?fgDT_ULONG@SchemaSymbols@xercesc_2_8@@2QB_WB
       2708  A93 00442D60 ?fgDT_URIREFERENCE@SchemaSymbols@xercesc_2_8@@2QB_WB
       2709  A94 00442C28 ?fgDT_USHORT@SchemaSymbols@xercesc_2_8@@2QB_WB
       2710  A95 00442CF0 ?fgDT_YEAR@SchemaSymbols@xercesc_2_8@@2QB_WB
       2711  A96 00442CFC ?fgDT_YEARMONTH@SchemaSymbols@xercesc_2_8@@2QB_WB
       2712  A97 00444D2C ?fgDefErrMsg@XMLUni@xercesc_2_8@@2QB_WB
       2713  A98 0078CB08 ?fgDefaultPanicHandler@XMLPlatformUtils@xercesc_2_8@@2PAVPanicHandler@2@A
       2714  A99 00442EE4 ?fgDefaultString@XMLUni@xercesc_2_8@@2QB_WB
       2715  A9A 00442EF8 ?fgDocTypeString@XMLUni@xercesc_2_8@@2QB_WB
       2716  A9B 00442F0C ?fgEBCDICEncodingString@XMLUni@xercesc_2_8@@2QB_WB
       2717  A9C 003FC5BC ?fgEBCDICPre@XMLRecognizer@xercesc_2_8@@2QBEB
       2718  A9D 003FC5C4 ?fgEBCDICPreLen@XMLRecognizer@xercesc_2_8@@2IB
       2719  A9E 004421C8 ?fgELT_ALL@SchemaSymbols@xercesc_2_8@@2QB_WB
       2720  A9F 004421D0 ?fgELT_ANNOTATION@SchemaSymbols@xercesc_2_8@@2QB_WB
       2721  AA0 004421E8 ?fgELT_ANY@SchemaSymbols@xercesc_2_8@@2QB_WB
       2722  AA1 004421F8 ?fgELT_ANYATTRIBUTE@SchemaSymbols@xercesc_2_8@@2QB_WB
       2723  AA2 00442214 ?fgELT_APPINFO@SchemaSymbols@xercesc_2_8@@2QB_WB
       2724  AA3 00442224 ?fgELT_ATTRIBUTE@SchemaSymbols@xercesc_2_8@@2QB_WB
       2725  AA4 00442238 ?fgELT_ATTRIBUTEGROUP@SchemaSymbols@xercesc_2_8@@2QB_WB
       2726  AA5 00442258 ?fgELT_CHOICE@SchemaSymbols@xercesc_2_8@@2QB_WB
       2727  AA6 00442504 ?fgELT_COMPLEXCONTENT@SchemaSymbols@xercesc_2_8@@2QB_WB
       2728  AA7 00442268 ?fgELT_COMPLEXTYPE@SchemaSymbols@xercesc_2_8@@2QB_WB
       2729  AA8 00442280 ?fgELT_CONTENT@SchemaSymbols@xercesc_2_8@@2QB_WB
       2730  AA9 00442290 ?fgELT_DOCUMENTATION@SchemaSymbols@xercesc_2_8@@2QB_WB
       2731  AAA 004422AC ?fgELT_DURATION@SchemaSymbols@xercesc_2_8@@2QB_WB
       2732  AAB 004422C0 ?fgELT_ELEMENT@SchemaSymbols@xercesc_2_8@@2QB_WB
       2733  AAC 004422D0 ?fgELT_ENCODING@SchemaSymbols@xercesc_2_8@@2QB_WB
       2734  AAD 004422E4 ?fgELT_ENUMERATION@SchemaSymbols@xercesc_2_8@@2QB_WB
       2735  AAE 00442558 ?fgELT_EXTENSION@SchemaSymbols@xercesc_2_8@@2QB_WB
       2736  AAF 004422FC ?fgELT_FIELD@SchemaSymbols@xercesc_2_8@@2QB_WB
       2737  AB0 0044246C ?fgELT_FRACTIONDIGITS@SchemaSymbols@xercesc_2_8@@2QB_WB
       2738  AB1 00442320 ?fgELT_GROUP@SchemaSymbols@xercesc_2_8@@2QB_WB
       2739  AB2 0044232C ?fgELT_IMPORT@SchemaSymbols@xercesc_2_8@@2QB_WB
       2740  AB3 0044233C ?fgELT_INCLUDE@SchemaSymbols@xercesc_2_8@@2QB_WB
       2741  AB4 00442360 ?fgELT_KEY@SchemaSymbols@xercesc_2_8@@2QB_WB
       2742  AB5 00442368 ?fgELT_KEYREF@SchemaSymbols@xercesc_2_8@@2QB_WB
       2743  AB6 00442378 ?fgELT_LENGTH@SchemaSymbols@xercesc_2_8@@2QB_WB
       2744  AB7 004424E8 ?fgELT_LIST@SchemaSymbols@xercesc_2_8@@2QB_WB
       2745  AB8 00442388 ?fgELT_MAXEXCLUSIVE@SchemaSymbols@xercesc_2_8@@2QB_WB
       2746  AB9 004423A4 ?fgELT_MAXINCLUSIVE@SchemaSymbols@xercesc_2_8@@2QB_WB
       2747  ABA 004423C0 ?fgELT_MAXLENGTH@SchemaSymbols@xercesc_2_8@@2QB_WB
       2748  ABB 004423D4 ?fgELT_MINEXCLUSIVE@SchemaSymbols@xercesc_2_8@@2QB_WB
       2749  ABC 004423F0 ?fgELT_MININCLUSIVE@SchemaSymbols@xercesc_2_8@@2QB_WB
       2750  ABD 0044240C ?fgELT_MINLENGTH@SchemaSymbols@xercesc_2_8@@2QB_WB
       2751  ABE 00442420 ?fgELT_NOTATION@SchemaSymbols@xercesc_2_8@@2QB_WB
       2752  ABF 00442434 ?fgELT_PATTERN@SchemaSymbols@xercesc_2_8@@2QB_WB
       2753  AC0 00442444 ?fgELT_PERIOD@SchemaSymbols@xercesc_2_8@@2QB_WB
       2754  AC1 0044234C ?fgELT_REDEFINE@SchemaSymbols@xercesc_2_8@@2QB_WB
       2755  AC2 00442540 ?fgELT_RESTRICTION@SchemaSymbols@xercesc_2_8@@2QB_WB
       2756  AC3 0044248C ?fgELT_SCHEMA@SchemaSymbols@xercesc_2_8@@2QB_WB
       2757  AC4 0044249C ?fgELT_SELECTOR@SchemaSymbols@xercesc_2_8@@2QB_WB
       2758  AC5 004424B0 ?fgELT_SEQUENCE@SchemaSymbols@xercesc_2_8@@2QB_WB
       2759  AC6 00442524 ?fgELT_SIMPLECONTENT@SchemaSymbols@xercesc_2_8@@2QB_WB
       2760  AC7 004424C4 ?fgELT_SIMPLETYPE@SchemaSymbols@xercesc_2_8@@2QB_WB
       2761  AC8 00442454 ?fgELT_TOTALDIGITS@SchemaSymbols@xercesc_2_8@@2QB_WB
       2762  AC9 004424DC ?fgELT_UNION@SchemaSymbols@xercesc_2_8@@2QB_WB
       2763  ACA 004424F4 ?fgELT_UNIQUE@SchemaSymbols@xercesc_2_8@@2QB_WB
       2764  ACB 00442308 ?fgELT_WHITESPACE@SchemaSymbols@xercesc_2_8@@2QB_WB
       2765  ACC 004421F0 ?fgELT_WILDCARD@SchemaSymbols@xercesc_2_8@@2QB_WB
       2766  ACD 003E5054 ?fgENTITIES@DOMConfigurationImpl@xercesc_2_8@@2QB_WB
       2767  ACE 003E5190 ?fgERROR_HANDLER@DOMConfigurationImpl@xercesc_2_8@@2QB_WB
       2768  ACF 00443C70 ?fgEString@XMLUni@xercesc_2_8@@2QB_WB
       2769  AD0 0075BCF8 ?fgElemAttTable@GeneralAttributeCheck@xercesc_2_8@@0PAY0CC@GA
       2770  AD1 00442F1C ?fgElemString@XMLUni@xercesc_2_8@@2QB_WB
       2771  AD2 00443898 ?fgEmptyStackException_Name@XMLUni@xercesc_2_8@@2QB_WB
       2772  AD3 00442F2C ?fgEmptyString@XMLUni@xercesc_2_8@@2QB_WB
       2773  AD4 00442F38 ?fgEncodingString@XMLUni@xercesc_2_8@@2QB_WB
       2774  AD5 00442F4C ?fgEntitString@XMLUni@xercesc_2_8@@2QB_WB
       2775  AD6 00442F68 ?fgEntitiesString@XMLUni@xercesc_2_8@@2QB_WB
       2776  AD7 00442F58 ?fgEntityString@XMLUni@xercesc_2_8@@2QB_WB
       2777  AD8 00442F7C ?fgEnumerationString@XMLUni@xercesc_2_8@@2QB_WB
       2778  AD9 00442FB0 ?fgExceptDomain@XMLUni@xercesc_2_8@@2QB_WB
       2779  ADA 00443008 ?fgFixedString@XMLUni@xercesc_2_8@@2QB_WB
       2780  ADB 00443790 ?fgGT@XMLUni@xercesc_2_8@@2QB_WB
       2781  ADC 00443018 ?fgIBM037EncodingString2@XMLUni@xercesc_2_8@@2QB_WB
       2782  ADD 00442F94 ?fgIBM037EncodingString@XMLUni@xercesc_2_8@@2QB_WB
       2783  ADE 00443038 ?fgIBM1047EncodingString2@XMLUni@xercesc_2_8@@2QB_WB
       2784  ADF 00443028 ?fgIBM1047EncodingString@XMLUni@xercesc_2_8@@2QB_WB
       2785  AE0 0044305C ?fgIBM1140EncodingString2@XMLUni@xercesc_2_8@@2QB_WB
       2786  AE1 00443070 ?fgIBM1140EncodingString3@XMLUni@xercesc_2_8@@2QB_WB
       2787  AE2 00443088 ?fgIBM1140EncodingString4@XMLUni@xercesc_2_8@@2QB_WB
       2788  AE3 0044304C ?fgIBM1140EncodingString@XMLUni@xercesc_2_8@@2QB_WB
       2789  AE4 004430A8 ?fgIDRefString@XMLUni@xercesc_2_8@@2QB_WB
       2790  AE5 004430B4 ?fgIDRefsString@XMLUni@xercesc_2_8@@2QB_WB
       2791  AE6 004430A0 ?fgIDString@XMLUni@xercesc_2_8@@2QB_WB
       2792  AE7 00443098 ?fgIESString@XMLUni@xercesc_2_8@@2QB_WB
       2793  AE8 004437CC ?fgIGXMLScanner@XMLUni@xercesc_2_8@@2QB_WB
       2794  AE9 003E5068 ?fgINFOSET@DOMConfigurationImpl@xercesc_2_8@@2QB_WB
       2795  AEA 00442DEC ?fgINT_MAX_VALUE@SchemaSymbols@xercesc_2_8@@2HB
       2796  AEB 00442DE8 ?fgINT_MIN_VALUE@SchemaSymbols@xercesc_2_8@@2HB
       2797  AEC 00443920 ?fgIOException_Name@XMLUni@xercesc_2_8@@2QB_WB
       2798  AED 00443198 ?fgISO88591EncodingString10@XMLUni@xercesc_2_8@@2QB_WB
       2799  AEE 004431B0 ?fgISO88591EncodingString11@XMLUni@xercesc_2_8@@2QB_WB
       2800  AEF 004431C8 ?fgISO88591EncodingString12@XMLUni@xercesc_2_8@@2QB_WB
       2801  AF0 0044310C ?fgISO88591EncodingString2@XMLUni@xercesc_2_8@@2QB_WB
       2802  AF1 00443124 ?fgISO88591EncodingString3@XMLUni@xercesc_2_8@@2QB_WB
       2803  AF2 0044313C ?fgISO88591EncodingString4@XMLUni@xercesc_2_8@@2QB_WB
       2804  AF3 0044314C ?fgISO88591EncodingString5@XMLUni@xercesc_2_8@@2QB_WB
       2805  AF4 0044315C ?fgISO88591EncodingString6@XMLUni@xercesc_2_8@@2QB_WB
       2806  AF5 0044316C ?fgISO88591EncodingString7@XMLUni@xercesc_2_8@@2QB_WB
       2807  AF6 0044317C ?fgISO88591EncodingString8@XMLUni@xercesc_2_8@@2QB_WB
       2808  AF7 0044318C ?fgISO88591EncodingString9@XMLUni@xercesc_2_8@@2QB_WB
       2809  AF8 004430F8 ?fgISO88591EncodingString@XMLUni@xercesc_2_8@@2QB_WB
       2810  AF9 004430D8 ?fgIgnoreString@XMLUni@xercesc_2_8@@2QB_WB
       2811  AFA 004438C0 ?fgIllegalArgumentException_Name@XMLUni@xercesc_2_8@@2QB_WB
       2812  AFB 004430C4 ?fgImpliedString@XMLUni@xercesc_2_8@@2QB_WB
       2813  AFC 004430E8 ?fgIncludeString@XMLUni@xercesc_2_8@@2QB_WB
       2814  AFD 0044372C ?fgInfosetURIName@XMLUni@xercesc_2_8@@2QB_WB
       2815  AFE 00444DBC ?fgIntMaxInc@XMLUni@xercesc_2_8@@2QB_WB
       2816  AFF 00444DD4 ?fgIntMinInc@XMLUni@xercesc_2_8@@2QB_WB
       2817  B00 00442034 ?fgInvalidAttrId@XMLAttDef@xercesc_2_8@@2IB
       2818  B01 004438F4 ?fgInvalidCastException_Name@XMLUni@xercesc_2_8@@2QB_WB
       2819  B02 00443B50 ?fgInvalidDatatypeFacetException_Name@XMLUni@xercesc_2_8@@2QB_WB
       2820  B03 00443B8C ?fgInvalidDatatypeValueException_Name@XMLUni@xercesc_2_8@@2QB_WB
       2821  B04 00442E84 ?fgInvalidElemId@XMLElementDecl@xercesc_2_8@@2IB
       2822  B05 00443788 ?fgLT@XMLUni@xercesc_2_8@@2QB_WB
       2823  B06 00444E78 ?fgLangPattern@XMLUni@xercesc_2_8@@2QB_WB
       2824  B07 004431D0 ?fgLocalHostString@XMLUni@xercesc_2_8@@2QB_WB
       2825  B08 00444D68 ?fgLongMaxInc@XMLUni@xercesc_2_8@@2QB_WB
       2826  B09 00444D90 ?fgLongMinInc@XMLUni@xercesc_2_8@@2QB_WB
       2827  B0A 00443AD8 ?fgMalformedURLException_Name@XMLUni@xercesc_2_8@@2QB_WB
       2828  B0B 0075B8BE ?fgMemMgrAdopted@XMLPlatformUtils@xercesc_2_8@@0_NA
       2829  B0C 0078CB0C ?fgMemoryManager@XMLPlatformUtils@xercesc_2_8@@2PAVMemoryManager@2@A
       2830  B0D 0078CAE0 ?fgMemoryManager@XMLString@xercesc_2_8@@0PAVMemoryManager@2@A
       2831  B0E 00441F40 ?fgMyName@WinSockNetAccessor@xercesc_2_8@@0QB_WB
       2832  B0F 003E5078 ?fgNAMESPACES@DOMConfigurationImpl@xercesc_2_8@@2QB_WB
       2833  B10 003E5090 ?fgNAMESPACE_DECLARATIONS@DOMConfigurationImpl@xercesc_2_8@@2QB_WB
       2834  B11 00443200 ?fgNDATAString@XMLUni@xercesc_2_8@@2QB_WB
       2835  B12 003E50C0 ?fgNORMALIZE_CHARACTERS@DOMConfigurationImpl@xercesc_2_8@@2QB_WB
       2836  B13 00443C68 ?fgNaNString@XMLUni@xercesc_2_8@@2QB_WB
       2837  B14 00443C48 ?fgNegINFString@XMLUni@xercesc_2_8@@2QB_WB
       2838  B15 00444D5C ?fgNegOne@XMLUni@xercesc_2_8@@2QB_WB
       2839  B16 00443C54 ?fgNegZeroString@XMLUni@xercesc_2_8@@2QB_WB
       2840  B17 0078CAFC ?fgNetAccessor@XMLPlatformUtils@xercesc_2_8@@2PAVXMLNetAccessor@2@A
       2841  B18 00443AAC ?fgNetAccessorException_Name@XMLUni@xercesc_2_8@@2QB_WB
       2842  B19 0044320C ?fgNmTokenString@XMLUni@xercesc_2_8@@2QB_WB
       2843  B1A 0044321C ?fgNmTokensString@XMLUni@xercesc_2_8@@2QB_WB
       2844  B1B 004431E4 ?fgNoString@XMLUni@xercesc_2_8@@2QB_WB
       2845  B1C 00443938 ?fgNoSuchElementException_Name@XMLUni@xercesc_2_8@@2QB_WB
       2846  B1D 004431EC ?fgNotationString@XMLUni@xercesc_2_8@@2QB_WB
       2847  B1E 00443968 ?fgNullPointerException_Name@XMLUni@xercesc_2_8@@2QB_WB
       2848  B1F 00443C78 ?fgNullString@XMLUni@xercesc_2_8@@2QB_WB
       2849  B20 00443B04 ?fgNumberFormatException_Name@XMLUni@xercesc_2_8@@2QB_WB
       2850  B21 00443230 ?fgPCDATAString@XMLUni@xercesc_2_8@@2QB_WB
       2851  B22 00442E88 ?fgPCDataElemId@XMLElementDecl@xercesc_2_8@@2IB
       2852  B23 00442E8C ?fgPCDataElemName@XMLElementDecl@xercesc_2_8@@2QB_WB
       2853  B24 00443240 ?fgPIString@XMLUni@xercesc_2_8@@2QB_WB
       2854  B25 00443B30 ?fgParseException_Name@XMLUni@xercesc_2_8@@2QB_WB
       2855  B26 00443C60 ?fgPosINFString@XMLUni@xercesc_2_8@@2QB_WB
       2856  B27 00443C5C ?fgPosZeroString@XMLUni@xercesc_2_8@@2QB_WB
       2857  B28 00443248 ?fgPubIDString@XMLUni@xercesc_2_8@@2QB_WB
       2858  B29 00443798 ?fgQuot@XMLUni@xercesc_2_8@@2QB_WB
       2859  B2A 00442DDC ?fgRedefIdentifier@SchemaSymbols@xercesc_2_8@@2QB_WB
       2860  B2B 00443258 ?fgRefString@XMLUni@xercesc_2_8@@2QB_WB
       2861  B2C 00442DD8 ?fgRegEx_XOption@SchemaSymbols@xercesc_2_8@@2QB_WB
       2862  B2D 00443260 ?fgRequiredString@XMLUni@xercesc_2_8@@2QB_WB
       2863  B2E 004439C0 ?fgRuntimeException_Name@XMLUni@xercesc_2_8@@2QB_WB
       2864  B2F 00443D28 ?fgSAX2CoreNameSpacePrefixes@XMLUni@xercesc_2_8@@2QB_WB
       2865  B30 00443CD8 ?fgSAX2CoreNameSpaces@XMLUni@xercesc_2_8@@2QB_WB
       2866  B31 00443C88 ?fgSAX2CoreValidation@XMLUni@xercesc_2_8@@2QB_WB
       2867  B32 003E51C4 ?fgSCHEMA_LOCATION@DOMConfigurationImpl@xercesc_2_8@@2QB_WB
       2868  B33 003E51AC ?fgSCHEMA_TYPE@DOMConfigurationImpl@xercesc_2_8@@2QB_WB
       2869  B34 004437E8 ?fgSGXMLScanner@XMLUni@xercesc_2_8@@2QB_WB
       2870  B35 003E50EC ?fgSPLIT_CDATA_SECTIONS@DOMConfigurationImpl@xercesc_2_8@@2QB_WB
       2871  B36 003E862C ?fgSYMBOL_ANCESTOR@XPathSymbols@xercesc_2_8@@2QB_WB
       2872  B37 003E8640 ?fgSYMBOL_ANCESTOR_OR_SELF@XPathSymbols@xercesc_2_8@@2QB_WB
       2873  B38 003E85C0 ?fgSYMBOL_AND@XPathSymbols@xercesc_2_8@@2QB_WB
       2874  B39 003E8664 ?fgSYMBOL_ATTRIBUTE@XPathSymbols@xercesc_2_8@@2QB_WB
       2875  B3A 003E8678 ?fgSYMBOL_CHILD@XPathSymbols@xercesc_2_8@@2QB_WB
       2876  B3B 003E85E0 ?fgSYMBOL_COMMENT@XPathSymbols@xercesc_2_8@@2QB_WB
       2877  B3C 003E8684 ?fgSYMBOL_DESCENDANT@XPathSymbols@xercesc_2_8@@2QB_WB
       2878  B3D 003E869C ?fgSYMBOL_DESCENDANT_OR_SELF@XPathSymbols@xercesc_2_8@@2QB_WB
       2879  B3E 003E85D8 ?fgSYMBOL_DIV@XPathSymbols@xercesc_2_8@@2QB_WB
       2880  B3F 003E86C4 ?fgSYMBOL_FOLLOWING@XPathSymbols@xercesc_2_8@@2QB_WB
       2881  B40 003E86D8 ?fgSYMBOL_FOLLOWING_SIBLING@XPathSymbols@xercesc_2_8@@2QB_WB
       2882  B41 003E85D0 ?fgSYMBOL_MOD@XPathSymbols@xercesc_2_8@@2QB_WB
       2883  B42 003E86FC ?fgSYMBOL_NAMESPACE@XPathSymbols@xercesc_2_8@@2QB_WB
       2884  B43 003E8620 ?fgSYMBOL_NODE@XPathSymbols@xercesc_2_8@@2QB_WB
       2885  B44 003E85C8 ?fgSYMBOL_OR@XPathSymbols@xercesc_2_8@@2QB_WB
       2886  B45 003E8710 ?fgSYMBOL_PARENT@XPathSymbols@xercesc_2_8@@2QB_WB
       2887  B46 003E85F0 ?fgSYMBOL_PI@XPathSymbols@xercesc_2_8@@2QB_WB
       2888  B47 003E8720 ?fgSYMBOL_PRECEDING@XPathSymbols@xercesc_2_8@@2QB_WB
       2889  B48 003E8734 ?fgSYMBOL_PRECEDING_SIBLING@XPathSymbols@xercesc_2_8@@2QB_WB
       2890  B49 003E8758 ?fgSYMBOL_SELF@XPathSymbols@xercesc_2_8@@2QB_WB
       2891  B4A 003E8414 ?fgSYMBOL_TEXT@XPathSymbols@xercesc_2_8@@2QB_WB
       2892  B4B 00443BC8 ?fgSchemaDateTimeException_Name@XMLUni@xercesc_2_8@@2QB_WB
       2893  B4C 00444DEC ?fgShortMaxInc@XMLUni@xercesc_2_8@@2QB_WB
       2894  B4D 00444DF8 ?fgShortMinInc@XMLUni@xercesc_2_8@@2QB_WB
       2895  B4E 00443274 ?fgStandaloneString@XMLUni@xercesc_2_8@@2QB_WB
       2896  B4F 0044329C ?fgSysIDString@XMLUni@xercesc_2_8@@2QB_WB
       2897  B50 0078CB00 ?fgTransService@XMLPlatformUtils@xercesc_2_8@@2PAVXMLTransService@2@A
       2898  B51 004439E4 ?fgTranscodingException_Name@XMLUni@xercesc_2_8@@2QB_WB
       2899  B52 00444E6C ?fgUByteMaxInc@XMLUni@xercesc_2_8@@2QB_WB
       2900  B53 00443338 ?fgUCS4BEncodingString2@XMLUni@xercesc_2_8@@2QB_WB
       2901  B54 00443320 ?fgUCS4BEncodingString@XMLUni@xercesc_2_8@@2QB_WB
       2902  B55 003FC5E4 ?fgUCS4BPre@XMLRecognizer@xercesc_2_8@@2QBEB
       2903  B56 004432F8 ?fgUCS4EncodingString2@XMLUni@xercesc_2_8@@2QB_WB
       2904  B57 00443304 ?fgUCS4EncodingString3@XMLUni@xercesc_2_8@@2QB_WB
       2905  B58 00443310 ?fgUCS4EncodingString4@XMLUni@xercesc_2_8@@2QB_WB
       2906  B59 004432EC ?fgUCS4EncodingString@XMLUni@xercesc_2_8@@2QB_WB
       2907  B5A 00443360 ?fgUCS4LEncodingString2@XMLUni@xercesc_2_8@@2QB_WB
       2908  B5B 00443348 ?fgUCS4LEncodingString@XMLUni@xercesc_2_8@@2QB_WB
       2909  B5C 003FC5FC ?fgUCS4LPre@XMLRecognizer@xercesc_2_8@@2QBEB
       2910  B5D 003FC614 ?fgUCS4PreLen@XMLRecognizer@xercesc_2_8@@2IB
       2911  B5E 00444E48 ?fgUIntMaxInc@XMLUni@xercesc_2_8@@2QB_WB
       2912  B5F 00444E1C ?fgULongMaxInc@XMLUni@xercesc_2_8@@2QB_WB
       2913  B60 00442158 ?fgURI_SCHEMAFORSCHEMA@SchemaSymbols@xercesc_2_8@@2QB_WB
       2914  B61 004420D0 ?fgURI_XSI@SchemaSymbols@xercesc_2_8@@2QB_WB
       2915  B62 00443384 ?fgUSASCIIEncodingString2@XMLUni@xercesc_2_8@@2QB_WB
       2916  B63 00443394 ?fgUSASCIIEncodingString3@XMLUni@xercesc_2_8@@2QB_WB
       2917  B64 004433A0 ?fgUSASCIIEncodingString4@XMLUni@xercesc_2_8@@2QB_WB
       2918  B65 00443370 ?fgUSASCIIEncodingString@XMLUni@xercesc_2_8@@2QB_WB
       2919  B66 00444E60 ?fgUShortMaxInc@XMLUni@xercesc_2_8@@2QB_WB
       2920  B67 0044345C ?fgUTF16BEncodingString2@XMLUni@xercesc_2_8@@2QB_WB
       2921  B68 00443444 ?fgUTF16BEncodingString@XMLUni@xercesc_2_8@@2QB_WB
       2922  B69 003FC5C8 ?fgUTF16BPre@XMLRecognizer@xercesc_2_8@@2QBEB
       2923  B6A 004433DC ?fgUTF16EncodingString2@XMLUni@xercesc_2_8@@2QB_WB
       2924  B6B 004433E8 ?fgUTF16EncodingString3@XMLUni@xercesc_2_8@@2QB_WB
       2925  B6C 004433F8 ?fgUTF16EncodingString4@XMLUni@xercesc_2_8@@2QB_WB
       2926  B6D 0044340C ?fgUTF16EncodingString5@XMLUni@xercesc_2_8@@2QB_WB
       2927  B6E 00443418 ?fgUTF16EncodingString6@XMLUni@xercesc_2_8@@2QB_WB
       2928  B6F 00443424 ?fgUTF16EncodingString7@XMLUni@xercesc_2_8@@2QB_WB
       2929  B70 004433CC ?fgUTF16EncodingString@XMLUni@xercesc_2_8@@2QB_WB
       2930  B71 00443488 ?fgUTF16LEncodingString2@XMLUni@xercesc_2_8@@2QB_WB
       2931  B72 00443470 ?fgUTF16LEncodingString@XMLUni@xercesc_2_8@@2QB_WB
       2932  B73 003FC5D4 ?fgUTF16LPre@XMLRecognizer@xercesc_2_8@@2QBEB
       2933  B74 003FC5E0 ?fgUTF16PreLen@XMLRecognizer@xercesc_2_8@@2IB
       2934  B75 003FC618 ?fgUTF8BOM@XMLRecognizer@xercesc_2_8@@2QBDB
       2935  B76 003FC61C ?fgUTF8BOMLen@XMLRecognizer@xercesc_2_8@@2IB
       2936  B77 004433C0 ?fgUTF8EncodingString2@XMLUni@xercesc_2_8@@2QB_WB
       2937  B78 004433B4 ?fgUTF8EncodingString@XMLUni@xercesc_2_8@@2QB_WB
       2938  B79 00443A7C ?fgUTFDataFormatException_Name@XMLUni@xercesc_2_8@@2QB_WB
       2939  B7A 00443A10 ?fgUnexpectedEOFException_Name@XMLUni@xercesc_2_8@@2QB_WB
       2940  B7B 004432AC ?fgUnknownURIName@XMLUni@xercesc_2_8@@2QB_WB
       2941  B7C 00443A40 ?fgUnsupportedEncodingException_Name@XMLUni@xercesc_2_8@@2QB_WB
       2942  B7D 0078CB04 ?fgUserPanicHandler@XMLPlatformUtils@xercesc_2_8@@2PAVPanicHandler@2@A
       2943  B7E 003E5118 ?fgVALIDATE@DOMConfigurationImpl@xercesc_2_8@@2QB_WB
       2944  B7F 003E512C ?fgVALIDATE_IF_SCHEMA@DOMConfigurationImpl@xercesc_2_8@@2QB_WB
       2945  B80 004434C8 ?fgValidityDomain@XMLUni@xercesc_2_8@@2QB_WB
       2946  B81 00444D64 ?fgValueOne@XMLUni@xercesc_2_8@@2QB_WB
       2947  B82 00444BFC ?fgValueZero@XMLUni@xercesc_2_8@@2QB_WB
       2948  B83 0044328C ?fgVersion1_0@XMLUni@xercesc_2_8@@2QB_WB
       2949  B84 00443294 ?fgVersion1_1@XMLUni@xercesc_2_8@@2QB_WB
       2950  B85 0044349C ?fgVersionString@XMLUni@xercesc_2_8@@2QB_WB
       2951  B86 004437B0 ?fgWFXMLScanner@XMLUni@xercesc_2_8@@2QB_WB
       2952  B87 003E5154 ?fgWHITESPACE_IN_ELEMENT_CONTENT@DOMConfigurationImpl@xercesc_2_8@@2QB_WB
       2953  B88 00442AB8 ?fgWS_COLLAPSE@SchemaSymbols@xercesc_2_8@@2QB_WB
       2954  B89 00442AA4 ?fgWS_PRESERVE@SchemaSymbols@xercesc_2_8@@2QB_WB
       2955  B8A 00442ACC ?fgWS_REPLACE@SchemaSymbols@xercesc_2_8@@2QB_WB
       2956  B8B 004434AC ?fgWin1252EncodingString@XMLUni@xercesc_2_8@@2QB_WB
       2957  B8C 00443520 ?fgXMLChEncodingString@XMLUni@xercesc_2_8@@2QB_WB
       2958  B8D 00444CD8 ?fgXMLDOMMsgDomain@XMLUni@xercesc_2_8@@2QB_WB
       2959  B8E 004435A4 ?fgXMLDeclString@XMLUni@xercesc_2_8@@2QB_WB
       2960  B8F 004435E0 ?fgXMLDeclStringCR@XMLUni@xercesc_2_8@@2QB_WB
       2961  B90 00443620 ?fgXMLDeclStringCRU@XMLUni@xercesc_2_8@@2QB_WB
       2962  B91 004435C0 ?fgXMLDeclStringHTab@XMLUni@xercesc_2_8@@2QB_WB
       2963  B92 00443600 ?fgXMLDeclStringHTabU@XMLUni@xercesc_2_8@@2QB_WB
       2964  B93 004435D0 ?fgXMLDeclStringLF@XMLUni@xercesc_2_8@@2QB_WB
       2965  B94 00443610 ?fgXMLDeclStringLFU@XMLUni@xercesc_2_8@@2QB_WB
       2966  B95 004435B0 ?fgXMLDeclStringSpace@XMLUni@xercesc_2_8@@2QB_WB
       2967  B96 004435F0 ?fgXMLDeclStringSpaceU@XMLUni@xercesc_2_8@@2QB_WB
       2968  B97 00443688 ?fgXMLErrDomain@XMLUni@xercesc_2_8@@2QB_WB
       2969  B98 0044363C ?fgXMLNSColonString@XMLUni@xercesc_2_8@@2QB_WB
       2970  B99 00443630 ?fgXMLNSString@XMLUni@xercesc_2_8@@2QB_WB
       2971  B9A 0044364C ?fgXMLNSURIName@XMLUni@xercesc_2_8@@2QB_WB
       2972  B9B 00443994 ?fgXMLPlatformUtilsException_Name@XMLUni@xercesc_2_8@@2QB_WB
       2973  B9C 0044353C ?fgXMLString@XMLUni@xercesc_2_8@@2QB_WB
       2974  B9D 0044355C ?fgXMLStringCR@XMLUni@xercesc_2_8@@2QB_WB
       2975  B9E 0044358C ?fgXMLStringCRU@XMLUni@xercesc_2_8@@2QB_WB
       2976  B9F 00443550 ?fgXMLStringHTab@XMLUni@xercesc_2_8@@2QB_WB
       2977  BA0 00443580 ?fgXMLStringHTabU@XMLUni@xercesc_2_8@@2QB_WB
       2978  BA1 00443568 ?fgXMLStringLF@XMLUni@xercesc_2_8@@2QB_WB
       2979  BA2 00443598 ?fgXMLStringLFU@XMLUni@xercesc_2_8@@2QB_WB
       2980  BA3 00443544 ?fgXMLStringSpace@XMLUni@xercesc_2_8@@2QB_WB
       2981  BA4 00443574 ?fgXMLStringSpaceU@XMLUni@xercesc_2_8@@2QB_WB
       2982  BA5 004436E0 ?fgXMLURIName@XMLUni@xercesc_2_8@@2QB_WB
       2983  BA6 00443BF8 ?fgXPathException_Name@XMLUni@xercesc_2_8@@2QB_WB
       2984  BA7 00443820 ?fgXSAXMLScanner@XMLUni@xercesc_2_8@@2QB_WB
       2985  BA8 00442124 ?fgXSI_NONAMESPACESCHEMALOCACTION@SchemaSymbols@xercesc_2_8@@2QB_WB
       2986  BA9 0044219C ?fgXSI_SCHEMALOCACTION@SchemaSymbols@xercesc_2_8@@2QB_WB
       2987  BAA 004421BC ?fgXSI_TYPE@SchemaSymbols@xercesc_2_8@@2QB_WB
       2988  BAB 00443C18 ?fgXSerializationException_Name@XMLUni@xercesc_2_8@@2QB_WB
       2989  BAC 00444668 ?fgXercesCacheGrammarFromParse@XMLUni@xercesc_2_8@@2QB_WB
       2990  BAD 004440F8 ?fgXercesCalculateSrcOfs@XMLUni@xercesc_2_8@@2QB_WB
       2991  BAE 00443FF8 ?fgXercesContinueAfterFatalError@XMLUni@xercesc_2_8@@2QB_WB
       2992  BAF 004441D0 ?fgXercesDOMHasPSVIInfo@XMLUni@xercesc_2_8@@2QB_WB
       2993  BB0 00444898 ?fgXercesDisableDefaultEntityResolution@XMLUni@xercesc_2_8@@2QB_WB
       2994  BB1 00443D88 ?fgXercesDynamic@XMLUni@xercesc_2_8@@2QB_WB
       2995  BB2 00444238 ?fgXercesGenerateSyntheticAnnotations@XMLUni@xercesc_2_8@@2QB_WB
       2996  BB3 00443EE8 ?fgXercesIdentityConstraintChecking@XMLUni@xercesc_2_8@@2QB_WB
       2997  BB4 00444820 ?fgXercesIgnoreAnnotations@XMLUni@xercesc_2_8@@2QB_WB
       2998  BB5 00444778 ?fgXercesIgnoreCachedDTD@XMLUni@xercesc_2_8@@2QB_WB
       2999  BB6 00443F78 ?fgXercesLoadExternalDTD@XMLUni@xercesc_2_8@@2QB_WB
       3000  BB7 00444568 ?fgXercesParserUseDocumentFromImplementation@XMLUni@xercesc_2_8@@2QB_WB
       3001  BB8 00444508 ?fgXercesScannerName@XMLUni@xercesc_2_8@@2QB_WB
       3002  BB9 00443E00 ?fgXercesSchema@XMLUni@xercesc_2_8@@2QB_WB
       3003  BBA 00444470 ?fgXercesSchemaExternalNoNameSpaceSchemaLocation@XMLUni@xercesc_2_8@@2QB_WB
       3004  BBB 00444350 ?fgXercesSchemaExternalSchemaLocation@XMLUni@xercesc_2_8@@2QB_WB
       3005  BBC 00443E68 ?fgXercesSchemaFullChecking@XMLUni@xercesc_2_8@@2QB_WB
       3006  BBD 004443D0 ?fgXercesSecurityManager@XMLUni@xercesc_2_8@@2QB_WB
       3007  BBE 00444920 ?fgXercesSkipDTDValidation@XMLUni@xercesc_2_8@@2QB_WB
       3008  BBF 00444160 ?fgXercesStandardUriConformant@XMLUni@xercesc_2_8@@2QB_WB
       3009  BC0 004446F0 ?fgXercesUseCachedGrammarInParse@XMLUni@xercesc_2_8@@2QB_WB
       3010  BC1 004445F0 ?fgXercesUserAdoptsDOMDocument@XMLUni@xercesc_2_8@@2QB_WB
       3011  BC2 004442E8 ?fgXercesValidateAnnotations@XMLUni@xercesc_2_8@@2QB_WB
       3012  BC3 00444080 ?fgXercesValidationErrorAsFatal@XMLUni@xercesc_2_8@@2QB_WB
       3013  BC4 00444CD0 ?fgXercescDefaultLocale@XMLUni@xercesc_2_8@@2QBDB
       3014  BC5 00444CA8 ?fgXercescInterfaceDOMDocumentTypeImpl@XMLUni@xercesc_2_8@@2QB_WB
       3015  BC6 00444C88 ?fgXercescInterfacePSVITypeInfo@XMLUni@xercesc_2_8@@2QB_WB
       3016  BC7 00443768 ?fgYesString@XMLUni@xercesc_2_8@@2QB_WB
       3017  BC8 00443770 ?fgZeroLenString@XMLUni@xercesc_2_8@@2QB_WB
       3018  BC9 00443C74 ?fgZeroString@XMLUni@xercesc_2_8@@2QB_WB
       3019  BCA 000FF220 ?fileSize@XMLPlatformUtils@xercesc_2_8@@SAIPAXQAVMemoryManager@2@@Z
       3020  BCB 00101580 ?fillBuffer@XSerializeEngine@xercesc_2_8@@AAEXXZ
       3021  BCC 0017CF00 ?fillString@XMLDateTime@xercesc_2_8@@ABEXAAPA_WHH@Z
       3022  BCD 0017CFD0 ?fillYearString@XMLDateTime@xercesc_2_8@@ABEHAAPA_WH@Z
       3023  BCE 000FCC30 ?findAny@XMLString@xercesc_2_8@@SAPA_WQA_WQB_W@Z
       3024  BCF 000FCC30 ?findAny@XMLString@xercesc_2_8@@SAPB_WQB_W0@Z
       3025  BD0 00142040 ?findAttDef@DTDAttDefList@xercesc_2_8@@UAEPAVXMLAttDef@2@KQB_W@Z
       3026  BD1 00142040 ?findAttDef@DTDAttDefList@xercesc_2_8@@UAEPAVXMLAttDef@2@QB_W0@Z
       3027  BD2 00142040 ?findAttDef@DTDAttDefList@xercesc_2_8@@UBEPBVXMLAttDef@2@KQB_W@Z
       3028  BD3 00142040 ?findAttDef@DTDAttDefList@xercesc_2_8@@UBEPBVXMLAttDef@2@QB_W0@Z
       3029  BD4 0013E830 ?findAttDef@SchemaAttDefList@xercesc_2_8@@UAEPAVXMLAttDef@2@KQB_W@Z
       3030  BD5 0013E870 ?findAttDef@SchemaAttDefList@xercesc_2_8@@UAEPAVXMLAttDef@2@QB_W0@Z
       3031  BD6 0013E830 ?findAttDef@SchemaAttDefList@xercesc_2_8@@UBEPBVXMLAttDef@2@KQB_W@Z
       3032  BD7 0013E8A0 ?findAttDef@SchemaAttDefList@xercesc_2_8@@UBEPBVXMLAttDef@2@QB_W0@Z
       3033  BD8 00113FE0 ?findAttDefLocalPart@SchemaAttDefList@xercesc_2_8@@QAEPAVXMLAttDef@2@KQB_W@Z
       3034  BD9 00113FE0 ?findAttDefLocalPart@SchemaAttDefList@xercesc_2_8@@QBEPBVXMLAttDef@2@KQB_W@Z
       3035  BDA 0011C900 ?findAttr@ComplexTypeInfo@xercesc_2_8@@QBEPAVXMLAttDef@2@QB_WI00W4LookupOpts@XMLElementDecl@2@AA_N@Z
       3036  BDB 00115EE0 ?findAttr@DTDElementDecl@xercesc_2_8@@UBEPAVXMLAttDef@2@QB_WI00W4LookupOpts@XMLElementDecl@2@AA_N@Z
       3037  BDC 001142D0 ?findAttr@SchemaElementDecl@xercesc_2_8@@UBEPAVXMLAttDef@2@QB_WI00W4LookupOpts@XMLElementDecl@2@AA_N@Z
       3038  BDD 0019EE40 ?findDTValidator@TraverseSchema@xercesc_2_8@@AAEPAVDatatypeValidator@2@QBVDOMElement@2@QB_W1H@Z
       3039  BDE 0018D7F0 ?findElement@SchemaValidator@xercesc_2_8@@AAEPAVSchemaElementDecl@2@HIQB_WQAVSchemaGrammar@2@QBVComplexTypeInfo@2@@Z
       3040  BDF 0011FA40 ?findFixedString@Token@xercesc_2_8@@QAEPAV12@HAAH@Z
       3041  BE0 001B27B0 ?findNamePoint@DOMAttrMapImpl@xercesc_2_8@@UBEHPB_W0@Z
       3042  BE1 001B2470 ?findNamePoint@DOMAttrMapImpl@xercesc_2_8@@UBEHPB_W@Z
       3043  BE2 00157EC0 ?findOrAddElemDecl@DTDGrammar@xercesc_2_8@@UAEPAVXMLElementDecl@2@IQB_W00IAA_N@Z
       3044  BE3 00134900 ?findOrAddElemDecl@SchemaGrammar@xercesc_2_8@@UAEPAVXMLElementDecl@2@IQB_W00IAA_N@Z
       3045  BE4 0017C5F0 ?findUTCSign@XMLDateTime@xercesc_2_8@@AAEHH@Z
       3046  BE5 001B7AE0 ?firstChild@DOMTreeWalkerImpl@xercesc_2_8@@UAEPAVDOMNode@2@XZ
       3047  BE6 001A5160 ?fixRedefinedSchema@TraverseSchema@xercesc_2_8@@AAEXQBVDOMElement@2@QAVSchemaInfo@2@QB_W2H@Z
       3048  BE7 000FDA90 ?fixURI@XMLString@xercesc_2_8@@SAXQB_WQA_W@Z
       3049  BE8 001BD790 ?flush@XMLFormatTarget@xercesc_2_8@@UAEXXZ
       3050  BE9 00100750 ?flush@XSerializeEngine@xercesc_2_8@@QAEXXZ
       3051  BEA 00116B10 ?flushAll@XMLStringPool@xercesc_2_8@@UAEXXZ
       3052  BEB 001A8B00 ?flushAll@XMLSynchronizedStringPool@xercesc_2_8@@UAEXXZ
       3053  BEC 00101790 ?flushBuffer@XSerializeEngine@xercesc_2_8@@AAEXXZ
       3054  BED 001C2030 ?formatBuf@XMLFormatter@xercesc_2_8@@QAEXQB_WIW4EscapeFlags@12@W4UnRepFlags@12@@Z
       3055  BEE 0011CBB0 ?formatContentModel@ComplexTypeInfo@xercesc_2_8@@ABEPA_WXZ
       3056  BEF 00116340 ?formatContentModel@DTDElementDecl@xercesc_2_8@@ABEPA_WXZ
       3057  BF0 0012C340 ?formatSpec@ContentSpecNode@xercesc_2_8@@QBEXAAVXMLBuffer@2@@Z
       3058  BF1 00176110 ?formatString@XMLAbstractDoubleFloat@xercesc_2_8@@AAEXXZ
       3059  BF2 003FBE28 ?gEOCFakeId@XMLContentModel@xercesc_2_8@@2IB
       3060  BF3 003FBE2C ?gEpsilonFakeId@XMLContentModel@xercesc_2_8@@2IB
       3061  BF4 003FBE24 ?gInvalidTrans@XMLContentModel@xercesc_2_8@@2IB
       3062  BF5 0078CB3C ?gMappings@XMLTransService@xercesc_2_8@@1PAV?$RefHashTableOf@VENameMap@xercesc_2_8@@@2@A
       3063  BF6 0078CB40 ?gMappingsRecognizer@XMLTransService@xercesc_2_8@@1PAV?$RefVectorOf@VENameMap@xercesc_2_8@@@2@A
       3064  BF7 00782050 ?g_DtdNotValidatedAttribute@DOMTypeInfoImpl@xercesc_2_8@@2V12@A
       3065  BF8 00782074 ?g_DtdValidatedCDATAAttribute@DOMTypeInfoImpl@xercesc_2_8@@2V12@A
       3066  BF9 00782128 ?g_DtdValidatedENTITIESAttribute@DOMTypeInfoImpl@xercesc_2_8@@2V12@A
       3067  BFA 00782104 ?g_DtdValidatedENTITYAttribute@DOMTypeInfoImpl@xercesc_2_8@@2V12@A
       3068  BFB 007821B8 ?g_DtdValidatedENUMERATIONAttribute@DOMTypeInfoImpl@xercesc_2_8@@2V12@A
       3069  BFC 0078202C ?g_DtdValidatedElement@DOMTypeInfoImpl@xercesc_2_8@@2V12@A
       3070  BFD 00782098 ?g_DtdValidatedIDAttribute@DOMTypeInfoImpl@xercesc_2_8@@2V12@A
       3071  BFE 007820BC ?g_DtdValidatedIDREFAttribute@DOMTypeInfoImpl@xercesc_2_8@@2V12@A
       3072  BFF 007820E0 ?g_DtdValidatedIDREFSAttribute@DOMTypeInfoImpl@xercesc_2_8@@2V12@A
       3073  C00 0078214C ?g_DtdValidatedNMTOKENAttribute@DOMTypeInfoImpl@xercesc_2_8@@2V12@A
       3074  C01 00782170 ?g_DtdValidatedNMTOKENSAttribute@DOMTypeInfoImpl@xercesc_2_8@@2V12@A
       3075  C02 00782194 ?g_DtdValidatedNOTATIONAttribute@DOMTypeInfoImpl@xercesc_2_8@@2V12@A
       3076  C03 0018D330 ?gatherChildren@SchemaValidator@xercesc_2_8@@AAEXW4NodeTypes@ContentSpecNode@2@QAV42@QAV?$ValueVectorOf@PAVContentSpecNode@xercesc_2_8@@@2@@Z
       3077  C04 0014FDF0 ?genAnonTypeName@TraverseSchema@xercesc_2_8@@AAEPB_WQB_W@Z
       3078  C05 001A6BA0 ?generateSyntheticAnnotation@TraverseSchema@xercesc_2_8@@AAEPAVXSAnnotation@2@QBVDOMElement@2@PAV?$ValueVectorOf@PAVDOMNode@xercesc_2_8@@@2@@Z
       3079  C06 000F37B0 ?getAbstract@ComplexTypeInfo@xercesc_2_8@@QBE_NXZ
       3080  C07 0015F5B0 ?getAbstract@XSComplexTypeDefinition@xercesc_2_8@@QBE_NXZ
       3081  C08 00164850 ?getAbstract@XSElementDeclaration@xercesc_2_8@@QBE_NXZ
       3082  C09 0015E8D0 ?getActValDateTimes@XSValue@xercesc_2_8@@CAPAV12@QB_WW4DataType@12@AAW4Status@12@QAVMemoryManager@2@@Z
       3083  C0A 0015E570 ?getActValNumerics@XSValue@xercesc_2_8@@CAPAV12@QB_WW4DataType@12@AAW4Status@12@_NQAVMemoryManager@2@@Z
       3084  C0B 0015EB40 ?getActValStrings@XSValue@xercesc_2_8@@CAPAV12@QB_WW4DataType@12@AAW4Status@12@W4XMLVersion@12@_NQAVMemoryManager@2@@Z
       3085  C0C 0011FC60 ?getActualEncoding@DOMDocumentImpl@xercesc_2_8@@UBEPB_WXZ
       3086  C0D 000F13B0 ?getActualEncoding@DOMEntityImpl@xercesc_2_8@@UBEPB_WXZ
       3087  C0E 0015EE70 ?getActualNumericValue@XSValue@xercesc_2_8@@CA_NQB_WAAW4Status@12@AATt_value@12@QAVMemoryManager@2@W4DataType@12@@Z
       3088  C0F 0011FDF0 ?getActualValue@PSVIItem@xercesc_2_8@@UBEPAVXSValue@2@XZ
       3089  C10 0015D250 ?getActualValue@XSValue@xercesc_2_8@@SAPAV12@QB_WW4DataType@12@AAW4Status@12@W4XMLVersion@12@_NQAVMemoryManager@2@@Z
       3090  C11 000F37C0 ?getAdoptContentSpec@ComplexTypeInfo@xercesc_2_8@@QBE_NXZ
       3091  C12 001040B0 ?getAnnotation@SchemaGrammar@xercesc_2_8@@QAEPAVXSAnnotation@2@QBX@Z
       3092  C13 001040E0 ?getAnnotation@SchemaGrammar@xercesc_2_8@@QAEPAVXSAnnotation@2@XZ
       3093  C14 001040B0 ?getAnnotation@SchemaGrammar@xercesc_2_8@@QBEPBVXSAnnotation@2@QBX@Z
       3094  C15 001040E0 ?getAnnotation@SchemaGrammar@xercesc_2_8@@QBEPBVXSAnnotation@2@XZ
       3095  C16 000D6990 ?getAnnotation@XSAttributeDeclaration@xercesc_2_8@@QBEPAVXSAnnotation@2@XZ
       3096  C17 0011FC20 ?getAnnotation@XSAttributeGroupDefinition@xercesc_2_8@@QBEPAVXSAnnotation@2@XZ
       3097  C18 0011FC60 ?getAnnotation@XSElementDeclaration@xercesc_2_8@@QBEPAVXSAnnotation@2@XZ
       3098  C19 0011FC20 ?getAnnotation@XSFacet@xercesc_2_8@@QBEPAVXSAnnotation@2@XZ
       3099  C1A 000D6990 ?getAnnotation@XSModelGroup@xercesc_2_8@@QBEPAVXSAnnotation@2@XZ
       3100  C1B 000D6990 ?getAnnotation@XSModelGroupDefinition@xercesc_2_8@@QBEPAVXSAnnotation@2@XZ
       3101  C1C 00158400 ?getAnnotation@XSNotationDeclaration@xercesc_2_8@@QBEPAVXSAnnotation@2@XZ
       3102  C1D 0011FC20 ?getAnnotation@XSWildcard@xercesc_2_8@@QBEPAVXSAnnotation@2@XZ
       3103  C1E 001AABB0 ?getAnnotationFromModel@XSObjectFactory@xercesc_2_8@@AAEPAVXSAnnotation@2@QAVXSModel@2@QBX@Z
       3104  C1F 00158400 ?getAnnotationString@XSAnnotation@xercesc_2_8@@QAEPA_WXZ
       3105  C20 00158400 ?getAnnotationString@XSAnnotation@xercesc_2_8@@QBEPB_WXZ
       3106  C21 000F20A0 ?getAnnotations@SchemaGrammar@xercesc_2_8@@QAEPAV?$RefHashTableOf@VXSAnnotation@xercesc_2_8@@@2@XZ
       3107  C22 000F20A0 ?getAnnotations@SchemaGrammar@xercesc_2_8@@QBEPBV?$RefHashTableOf@VXSAnnotation@xercesc_2_8@@@2@XZ
       3108  C23 000F13B0 ?getAnnotations@XSComplexTypeDefinition@xercesc_2_8@@QAEPAV?$RefVectorOf@VXSAnnotation@xercesc_2_8@@@2@XZ
       3109  C24 0011FC20 ?getAnnotations@XSIDCDefinition@xercesc_2_8@@QAEPAV?$RefVectorOf@VXSAnnotation@xercesc_2_8@@@2@XZ
       3110  C25 001C5A90 ?getAnnotations@XSModel@xercesc_2_8@@QAEPAV?$RefVectorOf@VXSAnnotation@xercesc_2_8@@@2@XZ
       3111  C26 0011FC20 ?getAnnotations@XSMultiValueFacet@xercesc_2_8@@QAEPAV?$RefVectorOf@VXSAnnotation@xercesc_2_8@@@2@XZ
       3112  C27 000F32B0 ?getAnnotations@XSNamespaceItem@xercesc_2_8@@QAEPAV?$RefVectorOf@VXSAnnotation@xercesc_2_8@@@2@XZ
       3113  C28 000F32B0 ?getAnnotations@XSSimpleTypeDefinition@xercesc_2_8@@QAEPAV?$RefVectorOf@VXSAnnotation@xercesc_2_8@@@2@XZ
       3114  C29 000F1470 ?getAnonymous@ComplexTypeInfo@xercesc_2_8@@QBE_NXZ
       3115  C2A 000F1470 ?getAnonymous@DatatypeValidator@xercesc_2_8@@QBE_NXZ
       3116  C2B 0015F620 ?getAnonymous@XSComplexTypeDefinition@xercesc_2_8@@UBE_NXZ
       3117  C2C 001C1390 ?getAnonymous@XSSimpleTypeDefinition@xercesc_2_8@@UBE_NXZ
       3118  C2D 0011C270 ?getAnyType@ComplexTypeInfo@xercesc_2_8@@SAPAV12@I@Z
       3119  C2E 000F37F0 ?getAttDef@ComplexTypeInfo@xercesc_2_8@@QAEPAVSchemaAttDef@2@QB_WH@Z
       3120  C2F 000F37F0 ?getAttDef@ComplexTypeInfo@xercesc_2_8@@QBEPBVSchemaAttDef@2@QB_WH@Z
       3121  C30 00142090 ?getAttDef@DTDAttDefList@xercesc_2_8@@UAEAAVXMLAttDef@2@I@Z
       3122  C31 001420D0 ?getAttDef@DTDAttDefList@xercesc_2_8@@UBEABVXMLAttDef@2@I@Z
       3123  C32 00116250 ?getAttDef@DTDElementDecl@xercesc_2_8@@QAEPAVDTDAttDef@2@QB_W@Z
       3124  C33 00116250 ?getAttDef@DTDElementDecl@xercesc_2_8@@QBEPBVDTDAttDef@2@QB_W@Z
       3125  C34 0013E8D0 ?getAttDef@SchemaAttDefList@xercesc_2_8@@UAEAAVXMLAttDef@2@I@Z
       3126  C35 0013E910 ?getAttDef@SchemaAttDefList@xercesc_2_8@@UBEABVXMLAttDef@2@I@Z
       3127  C36 00114510 ?getAttDef@SchemaElementDecl@xercesc_2_8@@QAEPAVSchemaAttDef@2@QB_WH@Z
       3128  C37 00114510 ?getAttDef@SchemaElementDecl@xercesc_2_8@@QBEPBVSchemaAttDef@2@QB_WH@Z
       3129  C38 00135120 ?getAttDef@XercesAttGroupInfo@xercesc_2_8@@QBEPBVSchemaAttDef@2@QB_WH@Z
       3130  C39 00158400 ?getAttDefCount@DTDAttDefList@xercesc_2_8@@UBEIXZ
       3131  C3A 00158400 ?getAttDefCount@SchemaAttDefList@xercesc_2_8@@UBEIXZ
       3132  C3B 0012ABD0 ?getAttDefList@ComplexTypeInfo@xercesc_2_8@@QBEAAVXMLAttDefList@2@XZ
       3133  C3C 00116030 ?getAttDefList@DTDElementDecl@xercesc_2_8@@UBEAAVXMLAttDefList@2@XZ
       3134  C3D 00114430 ?getAttDefList@SchemaElementDecl@xercesc_2_8@@UBEAAVXMLAttDefList@2@XZ
       3135  C3E 000F1460 ?getAttGroupInfoRegistry@SchemaGrammar@xercesc_2_8@@QBEPAV?$RefHashTableOf@VXercesAttGroupInfo@xercesc_2_8@@@2@XZ
       3136  C3F 0016B5D0 ?getAttName@SchemaAttDef@xercesc_2_8@@QBEPAVQName@2@XZ
       3137  C40 00102B80 ?getAttName@XMLAttr@xercesc_2_8@@QBEPAVQName@2@XZ
       3138  C41 00118720 ?getAttTypeString@XMLAttDef@xercesc_2_8@@SAPB_WW4AttTypes@12@QAVMemoryManager@2@@Z
       3139  C42 000F20B0 ?getAttWildCard@ComplexTypeInfo@xercesc_2_8@@QAEPAVSchemaAttDef@2@XZ
       3140  C43 000F20B0 ?getAttWildCard@ComplexTypeInfo@xercesc_2_8@@QBEPBVSchemaAttDef@2@XZ
       3141  C44 0012ABE0 ?getAttWildCard@SchemaElementDecl@xercesc_2_8@@QAEPAVSchemaAttDef@2@XZ
       3142  C45 0012ABE0 ?getAttWildCard@SchemaElementDecl@xercesc_2_8@@QBEPBVSchemaAttDef@2@XZ
       3143  C46 0019F940 ?getAttrDatatypeValidatorNS@TraverseSchema@xercesc_2_8@@AAEPAVDatatypeValidator@2@QBVDOMElement@2@PB_W1@Z
       3144  C47 0011FC20 ?getAttrDeclaration@XSAttributeUse@xercesc_2_8@@QBEPAVXSAttributeDeclaration@2@XZ
       3145  C48 00165910 ?getAttribute@DOMElementImpl@xercesc_2_8@@UBEPB_WPB_W@Z
       3146  C49 00158400 ?getAttributeDeclRegistry@SchemaGrammar@xercesc_2_8@@QBEPAV?$RefHashTableOf@VXMLAttDef@xercesc_2_8@@@2@XZ
       3147  C4A 0011FC60 ?getAttributeDeclaration@PSVIAttribute@xercesc_2_8@@QAEPAVXSAttributeDeclaration@2@XZ
       3148  C4B 0015BD00 ?getAttributeDeclaration@XSModel@xercesc_2_8@@QAEPAVXSAttributeDeclaration@2@PB_W0@Z
       3149  C4C 001A9030 ?getAttributeDeclaration@XSNamespaceItem@xercesc_2_8@@QAEPAVXSAttributeDeclaration@2@PB_W@Z
       3150  C4D 0015BDA0 ?getAttributeGroup@XSModel@xercesc_2_8@@QAEPAVXSAttributeGroupDefinition@2@PB_W0@Z
       3151  C4E 001A9090 ?getAttributeGroup@XSNamespaceItem@xercesc_2_8@@QAEPAVXSAttributeGroupDefinition@2@PB_W@Z
       3152  C4F 00165F40 ?getAttributeNS@DOMElementImpl@xercesc_2_8@@UBEPB_WPB_W0@Z
       3153  C50 00120170 ?getAttributeNameAtIndex@PSVIAttributeList@xercesc_2_8@@QAEPB_WI@Z
       3154  C51 001201C0 ?getAttributeNamespaceAtIndex@PSVIAttributeList@xercesc_2_8@@QAEPB_WI@Z
       3155  C52 00165940 ?getAttributeNode@DOMElementImpl@xercesc_2_8@@UBEPAVDOMAttr@2@PB_W@Z
       3156  C53 001660E0 ?getAttributeNodeNS@DOMElementImpl@xercesc_2_8@@UBEPAVDOMAttr@2@PB_W0@Z
       3157  C54 00120120 ?getAttributePSVIAtIndex@PSVIAttributeList@xercesc_2_8@@QAEPAVPSVIAttribute@2@I@Z
       3158  C55 00120210 ?getAttributePSVIByName@PSVIAttributeList@xercesc_2_8@@QAEPAVPSVIAttribute@2@PB_W0@Z
       3159  C56 00158400 ?getAttributeUses@XSAttributeGroupDefinition@xercesc_2_8@@QAEPAV?$RefVectorOf@VXSAttributeUse@xercesc_2_8@@@2@XZ
       3160  C57 001B7290 ?getAttributeUses@XSComplexTypeDefinition@xercesc_2_8@@QAEPAV?$RefVectorOf@VXSAttributeUse@xercesc_2_8@@@2@XZ
       3161  C58 000D6990 ?getAttributeWildcard@XSAttributeGroupDefinition@xercesc_2_8@@QBEPAVXSWildcard@2@XZ
       3162  C59 000F1460 ?getAttributeWildcard@XSComplexTypeDefinition@xercesc_2_8@@QBEPAVXSWildcard@2@XZ
       3163  C5A 001149A0 ?getAttributes@DOMAttrImpl@xercesc_2_8@@UBEPAVDOMNamedNodeMap@2@XZ
       3164  C5B 001149A0 ?getAttributes@DOMCDATASectionImpl@xercesc_2_8@@UBEPAVDOMNamedNodeMap@2@XZ
       3165  C5C 001149A0 ?getAttributes@DOMCommentImpl@xercesc_2_8@@UBEPAVDOMNamedNodeMap@2@XZ
       3166  C5D 001149A0 ?getAttributes@DOMDocumentFragmentImpl@xercesc_2_8@@UBEPAVDOMNamedNodeMap@2@XZ
       3167  C5E 001149A0 ?getAttributes@DOMDocumentImpl@xercesc_2_8@@UBEPAVDOMNamedNodeMap@2@XZ
       3168  C5F 001149A0 ?getAttributes@DOMDocumentTypeImpl@xercesc_2_8@@UBEPAVDOMNamedNodeMap@2@XZ
       3169  C60 000F1460 ?getAttributes@DOMElementImpl@xercesc_2_8@@UBEPAVDOMNamedNodeMap@2@XZ
       3170  C61 001149A0 ?getAttributes@DOMEntityImpl@xercesc_2_8@@UBEPAVDOMNamedNodeMap@2@XZ
       3171  C62 001149A0 ?getAttributes@DOMEntityReferenceImpl@xercesc_2_8@@UBEPAVDOMNamedNodeMap@2@XZ
       3172  C63 001149A0 ?getAttributes@DOMNodeImpl@xercesc_2_8@@QBEPAVDOMNamedNodeMap@2@XZ
       3173  C64 001149A0 ?getAttributes@DOMNotationImpl@xercesc_2_8@@UBEPAVDOMNamedNodeMap@2@XZ
       3174  C65 001149A0 ?getAttributes@DOMProcessingInstructionImpl@xercesc_2_8@@UBEPAVDOMNamedNodeMap@2@XZ
       3175  C66 001149A0 ?getAttributes@DOMTextImpl@xercesc_2_8@@UBEPAVDOMNamedNodeMap@2@XZ
       3176  C67 000D6990 ?getAttributes@XMLSchemaDescriptionImpl@xercesc_2_8@@UBEPBVXMLAttDef@2@XZ
       3177  C68 000F20D0 ?getAvailableBufferCount@XMLBufferMgr@xercesc_2_8@@QBEIXZ
       3178  C69 00104410 ?getAxisType@XercesStep@xercesc_2_8@@QBEGXZ
       3179  C6A 000F20B0 ?getBaseAttDecl@SchemaAttDef@xercesc_2_8@@QAEPAV12@XZ
       3180  C6B 000F20B0 ?getBaseAttDecl@SchemaAttDef@xercesc_2_8@@QBEPBV12@XZ
       3181  C6C 00103ED0 ?getBaseComplexTypeInfo@ComplexTypeInfo@xercesc_2_8@@QBEPAV12@XZ
       3182  C6D 000E1020 ?getBaseDatatypeValidator@ComplexTypeInfo@xercesc_2_8@@QBEPAVDatatypeValidator@2@XZ
       3183  C6E 000D6990 ?getBaseGroup@XercesGroupInfo@xercesc_2_8@@QBEPAV12@XZ
       3184  C6F 000F1870 ?getBaseName@XMLElementDecl@xercesc_2_8@@QAEPA_WXZ
       3185  C70 000F1870 ?getBaseName@XMLElementDecl@xercesc_2_8@@QBEPB_WXZ
       3186  C71 000D6990 ?getBaseType@XSComplexTypeDefinition@xercesc_2_8@@UAEPAVXSTypeDefinition@2@XZ
       3187  C72 000D6990 ?getBaseType@XSSimpleTypeDefinition@xercesc_2_8@@UAEPAVXSTypeDefinition@2@XZ
       3188  C73 00160B50 ?getBaseURI@DOMAttrImpl@xercesc_2_8@@UBEPB_WXZ
       3189  C74 00160B50 ?getBaseURI@DOMCDATASectionImpl@xercesc_2_8@@UBEPB_WXZ
       3190  C75 00160B50 ?getBaseURI@DOMCommentImpl@xercesc_2_8@@UBEPB_WXZ
       3191  C76 00160B50 ?getBaseURI@DOMDocumentFragmentImpl@xercesc_2_8@@UBEPB_WXZ
       3192  C77 000F13B0 ?getBaseURI@DOMDocumentImpl@xercesc_2_8@@UBEPB_WXZ
       3193  C78 00160B50 ?getBaseURI@DOMDocumentTypeImpl@xercesc_2_8@@UBEPB_WXZ
       3194  C79 00166580 ?getBaseURI@DOMElementImpl@xercesc_2_8@@UBEPB_WXZ
       3195  C7A 00161B10 ?getBaseURI@DOMElementNSImpl@xercesc_2_8@@UBEPB_WXZ
       3196  C7B 000F20A0 ?getBaseURI@DOMEntityImpl@xercesc_2_8@@UBEPB_WXZ
       3197  C7C 001B7290 ?getBaseURI@DOMEntityReferenceImpl@xercesc_2_8@@UBEPB_WXZ
       3198  C7D 00163560 ?getBaseURI@DOMNodeImpl@xercesc_2_8@@QBEPB_WXZ
       3199  C7E 00158400 ?getBaseURI@DOMNotationImpl@xercesc_2_8@@UBEPB_WXZ
       3200  C7F 001625B0 ?getBaseURI@DOMProcessingInstructionImpl@xercesc_2_8@@UBEPB_WXZ
       3201  C80 00160B50 ?getBaseURI@DOMTextImpl@xercesc_2_8@@UBEPB_WXZ
       3202  C81 0011FC20 ?getBaseURI@XMLEntityDecl@xercesc_2_8@@QBEPB_WXZ
       3203  C82 00158400 ?getBaseURI@XMLNotationDecl@xercesc_2_8@@QBEPB_WXZ
       3204  C83 000ED3C0 ?getBaseURI@XMLResourceIdentifier@xercesc_2_8@@QBEPB_WXZ
       3205  C84 0011FC20 ?getBaseValidator@DatatypeValidator@xercesc_2_8@@QBEPAV12@XZ
       3206  C85 000D6970 ?getBlockDefault@SchemaInfo@xercesc_2_8@@QBEHXZ
       3207  C86 00102B80 ?getBlockSet@ComplexTypeInfo@xercesc_2_8@@QBEHXZ
       3208  C87 000F13B0 ?getBlockSet@SchemaElementDecl@xercesc_2_8@@QBEHXZ
       3209  C88 000D6970 ?getBlockSize@XMLTranscoder@xercesc_2_8@@QBEIXZ
       3210  C89 000F37C0 ?getBounded@DatatypeValidator@xercesc_2_8@@QBE_NXZ
       3211  C8A 001C1350 ?getBounded@XSSimpleTypeDefinition@xercesc_2_8@@QBE_NXZ
       3212  C8B 00102B80 ?getBufCount@XSerializeEngine@xercesc_2_8@@QBEKXZ
       3213  C8C 000EDDF0 ?getBufCur@XSerializeEngine@xercesc_2_8@@QBEKXZ
       3214  C8D 000EDE00 ?getBufCurAccumulated@XSerializeEngine@xercesc_2_8@@QBEKXZ
       3215  C8E 000D6970 ?getBufMgr@XMLValidator@xercesc_2_8@@IAEPAVXMLBufferMgr@2@XZ
       3216  C8F 000D6970 ?getBufMgr@XMLValidator@xercesc_2_8@@IBEPBVXMLBufferMgr@2@XZ
       3217  C90 00105BC0 ?getBufSize@XSerializeEngine@xercesc_2_8@@QBEKXZ
       3218  C91 00164C30 ?getBufferCount@XMLBufferMgr@xercesc_2_8@@QBEIXZ
       3219  C92 0012E620 ?getBuiltInBaseValidator@DatatypeValidatorFactory@xercesc_2_8@@SAPAVDatatypeValidator@2@QBV32@@Z
       3220  C93 00103FF0 ?getBuiltInRegistry@DatatypeValidatorFactory@xercesc_2_8@@SAPAV?$RefHashTableOf@VDatatypeValidator@xercesc_2_8@@@2@XZ
       3221  C94 0011E920 ?getCachedGrammarEnumerator@GrammarResolver@xercesc_2_8@@QBE?AV?$RefHashTableOfEnumerator@VGrammar@xercesc_2_8@@@2@XZ
       3222  C95 00121100 ?getCalculateSrcOfs@AbstractDOMParser@xercesc_2_8@@QBE_NXZ
       3223  C96 000F57F0 ?getCalculateSrcOfs@SAXParser@xercesc_2_8@@QBE_NXZ
       3224  C97 000F47A0 ?getCalculateSrcOfs@XMLScanner@xercesc_2_8@@QBE_NXZ
       3225  C98 0015E110 ?getCanRepDateTimes@XSValue@xercesc_2_8@@CAPA_WQB_WW4DataType@12@AAW4Status@12@_NQAVMemoryManager@2@@Z
       3226  C99 0012E5C0 ?getCanRepGroup@DatatypeValidatorFactory@xercesc_2_8@@SA?AW4CanRepGroup@XMLCanRepGroup@2@QBVDatatypeValidator@2@@Z
       3227  C9A 0015DF20 ?getCanRepNumerics@XSValue@xercesc_2_8@@CAPA_WQB_WW4DataType@12@AAW4Status@12@_NQAVMemoryManager@2@@Z
       3228  C9B 0015E350 ?getCanRepStrings@XSValue@xercesc_2_8@@CAPA_WQB_WW4DataType@12@AAW4Status@12@W4XMLVersion@12@_NQAVMemoryManager@2@@Z
       3229  C9C 001BB910 ?getCanonicalRepresentation@AbstractNumericValidator@xercesc_2_8@@UBEPB_WQB_WQAVMemoryManager@2@_N@Z
       3230  C9D 001ABF50 ?getCanonicalRepresentation@Base64@xercesc_2_8@@SAPA_WQB_WQAVMemoryManager@2@W4Conformance@12@@Z
       3231  C9E 001784A0 ?getCanonicalRepresentation@BooleanDatatypeValidator@xercesc_2_8@@UBEPB_WQB_WQAVMemoryManager@2@_N@Z
       3232  C9F 0012BF20 ?getCanonicalRepresentation@DatatypeValidator@xercesc_2_8@@UBEPB_WQB_WQAVMemoryManager@2@_N@Z
       3233  CA0 00177ED0 ?getCanonicalRepresentation@DateDatatypeValidator@xercesc_2_8@@UBEPB_WQB_WQAVMemoryManager@2@_N@Z
       3234  CA1 001730A0 ?getCanonicalRepresentation@DateTimeDatatypeValidator@xercesc_2_8@@UBEPB_WQB_WQAVMemoryManager@2@_N@Z
       3235  CA2 00177AD0 ?getCanonicalRepresentation@DecimalDatatypeValidator@xercesc_2_8@@UBEPB_WQB_WQAVMemoryManager@2@_N@Z
       3236  CA3 001ACDA0 ?getCanonicalRepresentation@HexBin@xercesc_2_8@@SAPA_WQB_WQAVMemoryManager@2@@Z
       3237  CA4 00179600 ?getCanonicalRepresentation@ListDatatypeValidator@xercesc_2_8@@UBEPB_WQB_WQAVMemoryManager@2@_N@Z
       3238  CA5 00105BC0 ?getCanonicalRepresentation@PSVIItem@xercesc_2_8@@QBEPB_WXZ
       3239  CA6 00179AF0 ?getCanonicalRepresentation@TimeDatatypeValidator@xercesc_2_8@@UBEPB_WQB_WQAVMemoryManager@2@_N@Z
       3240  CA7 001050F0 ?getCanonicalRepresentation@UnionDatatypeValidator@xercesc_2_8@@UBEPB_WQB_WQAVMemoryManager@2@_N@Z
       3241  CA8 001766D0 ?getCanonicalRepresentation@XMLAbstractDoubleFloat@xercesc_2_8@@SAPA_WQB_WQAVMemoryManager@2@@Z
       3242  CA9 001AD2D0 ?getCanonicalRepresentation@XMLBigDecimal@xercesc_2_8@@SAPA_WQB_WQAVMemoryManager@2@@Z
       3243  CAA 001AC530 ?getCanonicalRepresentation@XMLBigInteger@xercesc_2_8@@SAPA_WQB_WQAVMemoryManager@2@_N@Z
       3244  CAB 0015D170 ?getCanonicalRepresentation@XSValue@xercesc_2_8@@SAPA_WQB_WW4DataType@12@AAW4Status@12@W4XMLVersion@12@_NQAVMemoryManager@2@@Z
       3245  CAC 00139880 ?getCaseInsensitiveToken@RangeToken@xercesc_2_8@@QAEPAV12@QAVTokenFactory@2@@Z
       3246  CAD 0015C6B0 ?getCategories@RangeTokenMap@xercesc_2_8@@IBEPAVXMLStringPool@2@XZ
       3247  CAE 001C0F50 ?getCategory@XSIDCDefinition@xercesc_2_8@@QBE?AW4IC_CATEGORY@12@XZ
       3248  CAF 00164C30 ?getCategoryId@RangeTokenElemMap@xercesc_2_8@@QBEIXZ
       3249  CB0 000ED3C0 ?getChar@CharToken@xercesc_2_8@@UBEHXZ
       3250  CB1 000F0870 ?getChar@Token@xercesc_2_8@@UBEHXZ
       3251  CB2 000F1460 ?getCharData@RegxParser@xercesc_2_8@@QBEHXZ
       3252  CB3 001160D0 ?getCharDataOpts@DTDElementDecl@xercesc_2_8@@UBE?AW4CharDataOpts@XMLElementDecl@2@XZ
       3253  CB4 00114470 ?getCharDataOpts@SchemaElementDecl@xercesc_2_8@@UBE?AW4CharDataOpts@XMLElementDecl@2@XZ
       3254  CB5 001C24E0 ?getCharRef@XMLFormatter@xercesc_2_8@@AAEPBEAAIAAPAEPB_W@Z
       3255  CB6 0010DEB0 ?getCharType@RegularExpression@xercesc_2_8@@AAEG_W@Z
       3256  CB7 000F1470 ?getCheckElementConsistency@XercesGroupInfo@xercesc_2_8@@QBE_NXZ
       3257  CB8 00102B80 ?getChild@ChildOp@xercesc_2_8@@UBEPBVOp@2@XZ
       3258  CB9 000F0A60 ?getChild@ClosureToken@xercesc_2_8@@UBEPAVToken@2@H@Z
       3259  CBA 0010F7C0 ?getChild@ConcatToken@xercesc_2_8@@UBEPAVToken@2@H@Z
       3260  CBB 000F0A80 ?getChild@ConditionToken@xercesc_2_8@@UBEPAVToken@2@H@Z
       3261  CBC 000F0A60 ?getChild@ModifierToken@xercesc_2_8@@UBEPAVToken@2@H@Z
       3262  CBD 001027B0 ?getChild@Op@xercesc_2_8@@UBEPBV12@XZ
       3263  CBE 0010F7E0 ?getChild@ParenToken@xercesc_2_8@@UBEPAVToken@2@H@Z
       3264  CBF 0005AD30 ?getChild@Token@xercesc_2_8@@UBEPAV12@H@Z
       3265  CC0 0010F830 ?getChild@UnionToken@xercesc_2_8@@UBEPAVToken@2@H@Z
       3266  CC1 001B9AC0 ?getChildNodes@DOMAttrImpl@xercesc_2_8@@UBEPAVDOMNodeList@2@XZ
       3267  CC2 001B9AC0 ?getChildNodes@DOMCDATASectionImpl@xercesc_2_8@@UBEPAVDOMNodeList@2@XZ
       3268  CC3 001B9F30 ?getChildNodes@DOMCommentImpl@xercesc_2_8@@UBEPAVDOMNodeList@2@XZ
       3269  CC4 001B9AC0 ?getChildNodes@DOMDocumentFragmentImpl@xercesc_2_8@@UBEPAVDOMNodeList@2@XZ
       3270  CC5 001B9AC0 ?getChildNodes@DOMDocumentImpl@xercesc_2_8@@UBEPAVDOMNodeList@2@XZ
       3271  CC6 001B9AC0 ?getChildNodes@DOMDocumentTypeImpl@xercesc_2_8@@UBEPAVDOMNodeList@2@XZ
       3272  CC7 001B9AC0 ?getChildNodes@DOMElementImpl@xercesc_2_8@@UBEPAVDOMNodeList@2@XZ
       3273  CC8 00160FC0 ?getChildNodes@DOMEntityImpl@xercesc_2_8@@UBEPAVDOMNodeList@2@XZ
       3274  CC9 001B9AC0 ?getChildNodes@DOMEntityReferenceImpl@xercesc_2_8@@UBEPAVDOMNodeList@2@XZ
       3275  CCA 001628D0 ?getChildNodes@DOMNodeImpl@xercesc_2_8@@QBEPAVDOMNodeList@2@XZ
       3276  CCB 001B9F30 ?getChildNodes@DOMNotationImpl@xercesc_2_8@@UBEPAVDOMNodeList@2@XZ
       3277  CCC 000EB220 ?getChildNodes@DOMParentNode@xercesc_2_8@@QBEPAVDOMNodeList@2@XZ
       3278  CCD 001B9F30 ?getChildNodes@DOMProcessingInstructionImpl@xercesc_2_8@@UBEPAVDOMNodeList@2@XZ
       3279  CCE 001B9F30 ?getChildNodes@DOMTextImpl@xercesc_2_8@@UBEPAVDOMNodeList@2@XZ
       3280  CCF 000EDF70 ?getCode@OutOfMemoryException@xercesc_2_8@@QBE?AW4Codes@XMLExcepts@2@XZ
       3281  CD0 000D6970 ?getCode@XMLException@xercesc_2_8@@QBE?AW4Codes@XMLExcepts@2@XZ
       3282  CD1 001AE750 ?getCollapsed@DOMRangeImpl@xercesc_2_8@@UBE_NXZ
       3283  CD2 000F32B0 ?getColumnNo@XSDElementNSImpl@xercesc_2_8@@QBEJXZ
       3284  CD3 0015C6B0 ?getColumnNumber@DOMLocatorImpl@xercesc_2_8@@UBEJXZ
       3285  CD4 0011A1B0 ?getColumnNumber@ReaderMgr@xercesc_2_8@@UBEJXZ
       3286  CD5 000ED3C0 ?getColumnNumber@SAXParseException@xercesc_2_8@@QBEJXZ
       3287  CD6 000F2610 ?getColumnNumber@XMLReader@xercesc_2_8@@QBEJXZ
       3288  CD7 0015C6B0 ?getColumnNumber@XSDLocator@xercesc_2_8@@UBEJXZ
       3289  CD8 001104D0 ?getCombiningCharacterSequence@TokenFactory@xercesc_2_8@@QAEPAVToken@2@XZ
       3290  CD9 000F2FB0 ?getCommentOrPISeen@ElemStack@xercesc_2_8@@QBE_NXZ
       3291  CDA 001AFDE0 ?getCommonAncestorContainer@DOMRangeImpl@xercesc_2_8@@UBEPBVDOMNode@2@XZ
       3292  CDB 00158400 ?getCompleteWildCard@XercesAttGroupInfo@xercesc_2_8@@QBEPAVSchemaAttDef@2@XZ
       3293  CDC 000F20A0 ?getComplexTypeInfo@SchemaElementDecl@xercesc_2_8@@QBEPAVComplexTypeInfo@2@XZ
       3294  CDD 000D6990 ?getComplexTypeRegistry@SchemaGrammar@xercesc_2_8@@QBEPAV?$RefHashTableOf@VComplexTypeInfo@xercesc_2_8@@@2@XZ
       3295  CDE 0015BC70 ?getComponents@XSModel@xercesc_2_8@@QAEPAV?$XSNamedMap@VXSObject@xercesc_2_8@@@2@W4COMPONENT_TYPE@XSConstants@2@@Z
       3296  CDF 001A8FF0 ?getComponents@XSNamespaceItem@xercesc_2_8@@QAEPAV?$XSNamedMap@VXSObject@xercesc_2_8@@@2@W4COMPONENT_TYPE@XSConstants@2@@Z
       3297  CE0 0015BC80 ?getComponentsByNamespace@XSModel@xercesc_2_8@@QAEPAV?$XSNamedMap@VXSObject@xercesc_2_8@@@2@W4COMPONENT_TYPE@XSConstants@2@PB_W@Z
       3298  CE1 00105BC0 ?getCompositor@XSModelGroup@xercesc_2_8@@QBE?AW4COMPOSITOR_TYPE@12@XZ
       3299  CE2 00105BC0 ?getConditionFlow@ConditionOp@xercesc_2_8@@UBEPBVOp@2@XZ
       3300  CE3 001027E0 ?getConditionFlow@Op@xercesc_2_8@@UBEPBV12@XZ
       3301  CE4 00102B80 ?getConditionToken@ConditionToken@xercesc_2_8@@QBEPAVToken@2@XZ
       3302  CE5 001C1530 ?getConstraintType@XSAttributeDeclaration@xercesc_2_8@@QBE?AW4VALUE_CONSTRAINT@XSConstants@2@XZ
       3303  CE6 00158400 ?getConstraintType@XSAttributeUse@xercesc_2_8@@QBE?AW4VALUE_CONSTRAINT@XSConstants@2@XZ
       3304  CE7 001647F0 ?getConstraintType@XSElementDeclaration@xercesc_2_8@@QBE?AW4VALUE_CONSTRAINT@XSConstants@2@XZ
       3305  CE8 00105BC0 ?getConstraintType@XSWildcard@xercesc_2_8@@QBE?AW4NAMESPACE_CONSTRAINT@12@XZ
       3306  CE9 001C1560 ?getConstraintValue@XSAttributeDeclaration@xercesc_2_8@@QAEPB_WXZ
       3307  CEA 000D6990 ?getConstraintValue@XSAttributeUse@xercesc_2_8@@QAEPB_WXZ
       3308  CEB 00164810 ?getConstraintValue@XSElementDeclaration@xercesc_2_8@@QAEPB_WXZ
       3309  CEC 001C5A60 ?getContent@ListDatatypeValidator@xercesc_2_8@@ABEQB_WXZ
       3310  CED 000F20A0 ?getContentHandler@SAX2XMLReaderImpl@xercesc_2_8@@UBEPAVContentHandler@2@XZ
       3311  CEE 000F3870 ?getContentModel@ComplexTypeInfo@xercesc_2_8@@QAEPAVXMLContentModel@2@_N@Z
       3312  CEF 000F1BD0 ?getContentModel@DTDElementDecl@xercesc_2_8@@UAEPAVXMLContentModel@2@XZ
       3313  CF0 000F3EF0 ?getContentModel@SchemaElementDecl@xercesc_2_8@@UAEPAVXMLContentModel@2@XZ
       3314  CF1 000F32B0 ?getContentSpec@ComplexTypeInfo@xercesc_2_8@@QBEPAVContentSpecNode@2@XZ
       3315  CF2 000F1460 ?getContentSpec@DTDElementDecl@xercesc_2_8@@UAEPAVContentSpecNode@2@XZ
       3316  CF3 000F1460 ?getContentSpec@DTDElementDecl@xercesc_2_8@@UBEPBVContentSpecNode@2@XZ
       3317  CF4 000F3EE0 ?getContentSpec@SchemaElementDecl@xercesc_2_8@@UAEPAVContentSpecNode@2@XZ
       3318  CF5 000F3EE0 ?getContentSpec@SchemaElementDecl@xercesc_2_8@@UBEPBVContentSpecNode@2@XZ
       3319  CF6 00105BC0 ?getContentSpec@XercesGroupInfo@xercesc_2_8@@QBEPAVContentSpecNode@2@XZ
       3320  CF7 000D6990 ?getContentType@ComplexTypeInfo@xercesc_2_8@@QBEHXZ
       3321  CF8 0015F5C0 ?getContentType@XSComplexTypeDefinition@xercesc_2_8@@QBE?AW4CONTENT_TYPE@12@XZ
       3322  CF9 0015C6B0 ?getContextType@XMLSchemaDescriptionImpl@xercesc_2_8@@UBE?AW4ContextType@XMLSchemaDescription@2@XZ
       3323  CFA 001A9270 ?getCreateCommentNodes@AbstractDOMParser@xercesc_2_8@@QBE_NXZ
       3324  CFB 000F18B0 ?getCreateEntityReferenceNodes@AbstractDOMParser@xercesc_2_8@@QBE_NXZ
       3325  CFC 000ED3C0 ?getCreateReason@XMLAttDef@xercesc_2_8@@QBE?AW4CreateReasons@12@XZ
       3326  CFD 000ED3C0 ?getCreateReason@XMLElementDecl@xercesc_2_8@@QBE?AW4CreateReasons@12@XZ
       3327  CFE 000F4820 ?getCreateSchemaInfo@AbstractDOMParser@xercesc_2_8@@QBE_NXZ
       3328  CFF 001B7290 ?getCurrentDatatypeValidator@SchemaValidator@xercesc_2_8@@QBEPAVDatatypeValidator@2@XZ
       3329  D00 000FF9C0 ?getCurrentDirectory@XMLPlatformUtils@xercesc_2_8@@SAPA_WQAVMemoryManager@2@@Z
       3330  D01 00119E80 ?getCurrentEncodingStr@ReaderMgr@xercesc_2_8@@QBEPB_WXZ
       3331  D02 000D6970 ?getCurrentEntity@ReaderMgr@xercesc_2_8@@QAEPAVXMLEntityDecl@2@XZ
       3332  D03 000D6970 ?getCurrentEntity@ReaderMgr@xercesc_2_8@@QBEPBVXMLEntityDecl@2@XZ
       3333  D04 000F30D0 ?getCurrentGrammar@ElemStack@xercesc_2_8@@QAEPAVGrammar@2@XZ
       3334  D05 001149A0 ?getCurrentGrammarType@DGXMLScanner@xercesc_2_8@@UBE?AW4GrammarType@Grammar@2@XZ
       3335  D06 0011A990 ?getCurrentGrammarType@IGXMLScanner@xercesc_2_8@@UBE?AW4GrammarType@Grammar@2@XZ
       3336  D07 0011A990 ?getCurrentGrammarType@SGXMLScanner@xercesc_2_8@@UBE?AW4GrammarType@Grammar@2@XZ
       3337  D08 001C6590 ?getCurrentGrammarType@XMLScanner@xercesc_2_8@@UBE?AW4GrammarType@Grammar@2@XZ
       3338  D09 000FFAB0 ?getCurrentMillis@XMLPlatformUtils@xercesc_2_8@@SAKXZ
       3339  D0A 001B7290 ?getCurrentNode@AbstractDOMParser@xercesc_2_8@@IAEPAVDOMNode@2@XZ
       3340  D0B 000ED3C0 ?getCurrentNode@DOMTreeWalkerImpl@xercesc_2_8@@UAEPAVDOMNode@2@XZ
       3341  D0C 0015C6B0 ?getCurrentReader@ReaderMgr@xercesc_2_8@@QAEPAVXMLReader@2@XZ
       3342  D0D 0015C6B0 ?getCurrentReader@ReaderMgr@xercesc_2_8@@QBEPBVXMLReader@2@XZ
       3343  D0E 000F2BB0 ?getCurrentReaderNum@ReaderMgr@xercesc_2_8@@QBEIXZ
       3344  D0F 000F3090 ?getCurrentSchemaElemName@ElemStack@xercesc_2_8@@QAEPA_WXZ
       3345  D10 00158400 ?getCurrentSchemaURL@SchemaInfo@xercesc_2_8@@QBEPA_WXZ
       3346  D11 000F30A0 ?getCurrentScope@ElemStack@xercesc_2_8@@QAEHXZ
       3347  D12 00146FF0 ?getCurrentTypeInfo@SchemaValidator@xercesc_2_8@@QBEPAVComplexTypeInfo@2@XZ
       3348  D13 000F3100 ?getCurrentURI@ElemStack@xercesc_2_8@@QAEIXZ
       3349  D14 000F3190 ?getCurrentURI@WFElemStack@xercesc_2_8@@QAEIXZ
       3350  D15 00168AD0 ?getDOMConfiguration@DOMDocumentImpl@xercesc_2_8@@UBEPAVDOMConfiguration@2@XZ
       3351  D16 0016C7F0 ?getDOMImplementation@DOMImplementationRegistry@xercesc_2_8@@SAPAVDOMImplementation@2@PB_W@Z
       3352  D17 000F1AD0 ?getDOMTypeInfoName@DTDAttDef@xercesc_2_8@@UBEPB_WXZ
       3353  D18 001149A0 ?getDOMTypeInfoName@DTDElementDecl@xercesc_2_8@@UBEPB_WXZ
       3354  D19 000F3560 ?getDOMTypeInfoName@SchemaAttDef@xercesc_2_8@@UBEPB_WXZ
       3355  D1A 000F4100 ?getDOMTypeInfoName@SchemaElementDecl@xercesc_2_8@@UBEPB_WXZ
       3356  D1B 001149A0 ?getDOMTypeInfoUri@DTDAttDef@xercesc_2_8@@UBEPB_WXZ
       3357  D1C 001149A0 ?getDOMTypeInfoUri@DTDElementDecl@xercesc_2_8@@UBEPB_WXZ
       3358  D1D 000F35A0 ?getDOMTypeInfoUri@SchemaAttDef@xercesc_2_8@@UBEPB_WXZ
       3359  D1E 000F41C0 ?getDOMTypeInfoUri@SchemaElementDecl@xercesc_2_8@@UBEPB_WXZ
       3360  D1F 0012ABE0 ?getDTDHandler@SAX2XMLReaderImpl@xercesc_2_8@@UBEPAVDTDHandler@2@XZ
       3361  D20 00158400 ?getData2@ModifierOp@xercesc_2_8@@UBEHXZ
       3362  D21 00102720 ?getData2@Op@xercesc_2_8@@UBEHXZ
       3363  D22 00102B80 ?getData@CharOp@xercesc_2_8@@UBEHXZ
       3364  D23 001B8FE0 ?getData@DOMCDATASectionImpl@xercesc_2_8@@UBEPB_WXZ
       3365  D24 001B1D90 ?getData@DOMCharacterDataImpl@xercesc_2_8@@QBEPB_WXZ
       3366  D25 001B9FA0 ?getData@DOMCommentImpl@xercesc_2_8@@UBEPB_WXZ
       3367  D26 001B9FA0 ?getData@DOMProcessingInstructionImpl@xercesc_2_8@@UBEPB_WXZ
       3368  D27 001B9FA0 ?getData@DOMTextImpl@xercesc_2_8@@UBEPB_WXZ
       3369  D28 00105BC0 ?getData@ModifierOp@xercesc_2_8@@UBEHXZ
       3370  D29 001026F0 ?getData@Op@xercesc_2_8@@UBEHXZ
       3371  D2A 001ABB70 ?getDataLength@Base64@xercesc_2_8@@SAHQB_WQAVMemoryManager@2@W4Conformance@12@@Z
       3372  D2B 001ACCE0 ?getDataLength@HexBin@xercesc_2_8@@SAHQB_W@Z
       3373  D2C 0015CA90 ?getDataType@XSValue@xercesc_2_8@@SA?AW4DataType@12@QB_W@Z
       3374  D2D 00104090 ?getDatatypeRegistry@SchemaGrammar@xercesc_2_8@@QAEPAVDatatypeValidatorFactory@2@XZ
       3375  D2E 000F20A0 ?getDatatypeValidator@ComplexTypeInfo@xercesc_2_8@@QBEPAVDatatypeValidator@2@XZ
       3376  D2F 00103F80 ?getDatatypeValidator@DatatypeValidatorFactory@xercesc_2_8@@QBEPAVDatatypeValidator@2@QB_W@Z
       3377  D30 0011E590 ?getDatatypeValidator@GrammarResolver@xercesc_2_8@@QAEPAVDatatypeValidator@2@QB_W0@Z
       3378  D31 000E1020 ?getDatatypeValidator@SchemaAttDef@xercesc_2_8@@QBEPAVDatatypeValidator@2@XZ
       3379  D32 001BBB40 ?getDatatypeValidator@SchemaElementDecl@xercesc_2_8@@QBEPAVDatatypeValidator@2@XZ
       3380  D33 0019EC50 ?getDatatypeValidator@TraverseSchema@xercesc_2_8@@AAEPAVDatatypeValidator@2@QB_W0@Z
       3381  D34 0011FC60 ?getDatatypeValidator@XSSimpleTypeDefinition@xercesc_2_8@@QBEPAVDatatypeValidator@2@XZ
       3382  D35 00110C60 ?getDatatypeValidatorAt@FieldValueMap@xercesc_2_8@@QBEPAVDatatypeValidator@2@I@Z
       3383  D36 00110CB0 ?getDatatypeValidatorFor@FieldValueMap@xercesc_2_8@@QBEPAVDatatypeValidator@2@QBVIC_Field@2@@Z
       3384  D37 0017BCA0 ?getDate@XMLDateTime@xercesc_2_8@@AAEXXZ
       3385  D38 0017CA20 ?getDateCanonicalRepresentation@XMLDateTime@xercesc_2_8@@QBEPA_WQAVMemoryManager@2@@Z
       3386  D39 0017C850 ?getDateTimeCanonicalRepresentation@XMLDateTime@xercesc_2_8@@QBEPA_WQAVMemoryManager@2@@Z
       3387  D3A 001BBB70 ?getDeclarationHandler@SAX2XMLReaderImpl@xercesc_2_8@@UBEPAVDeclHandler@2@XZ
       3388  D3B 000F1470 ?getDeclared@XMLRefInfo@xercesc_2_8@@QBE_NXZ
       3389  D3C 000F1F50 ?getDeclaredInIntSubset@DTDEntityDecl@xercesc_2_8@@UBE_NXZ
       3390  D3D 001687F0 ?getDeepNodeList@DOMDocumentImpl@xercesc_2_8@@QAEPAVDOMNodeList@2@PBVDOMNode@2@PB_W1@Z
       3391  D3E 00168720 ?getDeepNodeList@DOMDocumentImpl@xercesc_2_8@@QAEPAVDOMNodeList@2@PBVDOMNode@2@PB_W@Z
       3392  D3F 00118760 ?getDefAttTypeString@XMLAttDef@xercesc_2_8@@SAPB_WW4DefAttTypes@12@QAVMemoryManager@2@@Z
       3393  D40 001B7290 ?getDefaultAttributes@DOMElementImpl@xercesc_2_8@@UBEPAVDOMAttrMapImpl@2@XZ
       3394  D41 0011A9A0 ?getDefaultScanner@XMLScannerResolver@xercesc_2_8@@SAPAVXMLScanner@2@QAVXMLValidator@2@QAVGrammarResolver@2@QAVMemoryManager@2@@Z
       3395  D42 000D6970 ?getDefaultType@XMLAttDef@xercesc_2_8@@QBE?AW4DefAttTypes@12@XZ
       3396  D43 000E1020 ?getDefaultValue@SchemaElementDecl@xercesc_2_8@@QBEPA_WXZ
       3397  D44 0011FC20 ?getDefinedFacets@XSSimpleTypeDefinition@xercesc_2_8@@QBEHXZ
       3398  D45 0015F5A0 ?getDerivationMethod@XSComplexTypeDefinition@xercesc_2_8@@QBE?AW4DERIVATION_TYPE@XSConstants@2@XZ
       3399  D46 000ED3C0 ?getDerivedBy@ComplexTypeInfo@xercesc_2_8@@QBEHXZ
       3400  D47 00121130 ?getDisableDefaultEntityResolution@AbstractDOMParser@xercesc_2_8@@QBE_NXZ
       3401  D48 000F58B0 ?getDisableDefaultEntityResolution@SAXParser@xercesc_2_8@@QBE_NXZ
       3402  D49 000F4840 ?getDisableDefaultEntityResolution@XMLScanner@xercesc_2_8@@QBE_NXZ
       3403  D4A 0011FC40 ?getDisallowedSubstitutions@XSElementDeclaration@xercesc_2_8@@QBEFXZ
       3404  D4B 00121010 ?getDoNamespaces@AbstractDOMParser@xercesc_2_8@@QBE_NXZ
       3405  D4C 001BE200 ?getDoNamespaces@SAX2XMLReaderImpl@xercesc_2_8@@ABE_NXZ
       3406  D4D 000F56E0 ?getDoNamespaces@SAXParser@xercesc_2_8@@QBE_NXZ
       3407  D4E 000F4640 ?getDoNamespaces@XMLScanner@xercesc_2_8@@QBE_NXZ
       3408  D4F 00121080 ?getDoSchema@AbstractDOMParser@xercesc_2_8@@QBE_NXZ
       3409  D50 001BE220 ?getDoSchema@SAX2XMLReaderImpl@xercesc_2_8@@ABE_NXZ
       3410  D51 000F5750 ?getDoSchema@SAXParser@xercesc_2_8@@QBE_NXZ
       3411  D52 000F4720 ?getDoSchema@XMLScanner@xercesc_2_8@@QBE_NXZ
       3412  D53 00122940 ?getDoValidation@AbstractDOMParser@xercesc_2_8@@QBE_NXZ
       3413  D54 000F67F0 ?getDoValidation@SAXParser@xercesc_2_8@@QBE_NXZ
       3414  D55 000F4B70 ?getDoValidation@XMLScanner@xercesc_2_8@@QBE_NXZ
       3415  D56 000F4630 ?getDocHandler@XMLScanner@xercesc_2_8@@QAEPAVXMLDocumentHandler@2@XZ
       3416  D57 000F4630 ?getDocHandler@XMLScanner@xercesc_2_8@@QBEPBVXMLDocumentHandler@2@XZ
       3417  D58 000ED3C0 ?getDocTypeHandler@DTDScanner@xercesc_2_8@@QAEPAVDocTypeHandler@2@XZ
       3418  D59 000ED3C0 ?getDocTypeHandler@DTDScanner@xercesc_2_8@@QBEPBVDocTypeHandler@2@XZ
       3419  D5A 001BBB60 ?getDocTypeHandler@XMLScanner@xercesc_2_8@@QAEPAVDocTypeHandler@2@XZ
       3420  D5B 001BBB60 ?getDocTypeHandler@XMLScanner@xercesc_2_8@@QBEPBVDocTypeHandler@2@XZ
       3421  D5C 0014F740 ?getDoctype@DOMDocumentImpl@xercesc_2_8@@UBEPAVDOMDocumentType@2@XZ
       3422  D5D 000F13B0 ?getDocument@AbstractDOMParser@xercesc_2_8@@QAEPAVDOMDocument@2@XZ
       3423  D5E 00164C30 ?getDocument@DOMParentNode@xercesc_2_8@@QBEPAVDOMDocument@2@XZ
       3424  D5F 00158400 ?getDocument@DOMRangeImpl@xercesc_2_8@@QAEPAVDOMDocument@2@XZ
       3425  D60 001C5A90 ?getDocumentElement@DOMDocumentImpl@xercesc_2_8@@UBEPAVDOMElement@2@XZ
       3426  D61 0016B5D0 ?getDocumentHandler@SAXParser@xercesc_2_8@@QAEPAVDocumentHandler@2@XZ
       3427  D62 0016B5D0 ?getDocumentHandler@SAXParser@xercesc_2_8@@QBEPBVDocumentHandler@2@XZ
       3428  D63 001A9120 ?getDocumentLocations@XSNamespaceItem@xercesc_2_8@@QAEPAV?$RefArrayVectorOf@_W@2@XZ
       3429  D64 000F20A0 ?getDocumentURI@DOMDocumentImpl@xercesc_2_8@@UBEPB_WXZ
       3430  D65 00110460 ?getDot@TokenFactory@xercesc_2_8@@QAEPAVToken@2@XZ
       3431  D66 000EDE20 ?getElemAttrDefaultQualified@SchemaInfo@xercesc_2_8@@QBEGXZ
       3432  D67 0011B620 ?getElemDecl@DTDGrammar@xercesc_2_8@@UAEPAVXMLElementDecl@2@I@Z
       3433  D68 0011B5D0 ?getElemDecl@DTDGrammar@xercesc_2_8@@UAEPAVXMLElementDecl@2@IQB_W0I@Z
       3434  D69 0011B620 ?getElemDecl@DTDGrammar@xercesc_2_8@@UBEPBVXMLElementDecl@2@I@Z
       3435  D6A 0011B5D0 ?getElemDecl@DTDGrammar@xercesc_2_8@@UBEPBVXMLElementDecl@2@IQB_W0I@Z
       3436  D6B 00104220 ?getElemDecl@SchemaGrammar@xercesc_2_8@@UAEPAVXMLElementDecl@2@I@Z
       3437  D6C 001041A0 ?getElemDecl@SchemaGrammar@xercesc_2_8@@UAEPAVXMLElementDecl@2@IQB_W0I@Z
       3438  D6D 00104220 ?getElemDecl@SchemaGrammar@xercesc_2_8@@UBEPBVXMLElementDecl@2@I@Z
       3439  D6E 001041A0 ?getElemDecl@SchemaGrammar@xercesc_2_8@@UBEPBVXMLElementDecl@2@IQB_W0I@Z
       3440  D6F 0011B4A0 ?getElemEnumerator@DTDGrammar@xercesc_2_8@@QBE?AV?$NameIdPoolEnumerator@VDTDElementDecl@xercesc_2_8@@@2@XZ
       3441  D70 00104030 ?getElemEnumerator@SchemaGrammar@xercesc_2_8@@QBE?AV?$RefHash3KeysIdPoolEnumerator@VSchemaElementDecl@xercesc_2_8@@@2@XZ
       3442  D71 000F1460 ?getElemId@DTDAttDef@xercesc_2_8@@QBEIXZ
       3443  D72 0011B5A0 ?getElemId@DTDGrammar@xercesc_2_8@@UBEIIQB_W0I@Z
       3444  D73 000F1460 ?getElemId@SchemaAttDef@xercesc_2_8@@QBEIXZ
       3445  D74 00104140 ?getElemId@SchemaGrammar@xercesc_2_8@@UBEIIQB_W0I@Z
       3446  D75 0015C6B0 ?getElement@ContentSpecNode@xercesc_2_8@@QAEPAVQName@2@XZ
       3447  D76 0015C6B0 ?getElement@ContentSpecNode@xercesc_2_8@@QBEPBVQName@2@XZ
       3448  D77 00163130 ?getElementAncestor@DOMNodeImpl@xercesc_2_8@@QBEPAVDOMNode@2@PBV32@@Z
       3449  D78 0014FC70 ?getElementAttValue@TraverseSchema@xercesc_2_8@@AAEPB_WQBVDOMElement@2@QB_W_N@Z
       3450  D79 00168250 ?getElementById@DOMDocumentImpl@xercesc_2_8@@UBEPAVDOMElement@2@PB_W@Z
       3451  D7A 0019FA50 ?getElementComplexTypeInfo@TraverseSchema@xercesc_2_8@@AAEPAVComplexTypeInfo@2@QBVDOMElement@2@QB_W1@Z
       3452  D7B 000ED3C0 ?getElementDecl@ContentSpecNode@xercesc_2_8@@QAEPAVXMLElementDecl@2@XZ
       3453  D7C 000ED3C0 ?getElementDecl@ContentSpecNode@xercesc_2_8@@QBEPBVXMLElementDecl@2@XZ
       3454  D7D 0011FC60 ?getElementDeclaration@PSVIElement@xercesc_2_8@@QAEPAVXSElementDeclaration@2@XZ
       3455  D7E 0015BCB0 ?getElementDeclaration@XSModel@xercesc_2_8@@QAEPAVXSElementDeclaration@2@PB_W0@Z
       3456  D7F 001A9000 ?getElementDeclaration@XSNamespaceItem@xercesc_2_8@@QAEPAVXSElementDeclaration@2@PB_W@Z
       3457  D80 0011FC20 ?getElementId@ComplexTypeInfo@xercesc_2_8@@QBEIXZ
       3458  D81 0015C6B0 ?getElementName@IdentityConstraint@xercesc_2_8@@QBEPA_WXZ
       3459  D82 0015C6B0 ?getElementName@XMLElementDecl@xercesc_2_8@@QAEPAVQName@2@XZ
       3460  D83 0015C6B0 ?getElementName@XMLElementDecl@xercesc_2_8@@QBEPBVQName@2@XZ
       3461  D84 001C1760 ?getElementTerm@XSParticle@xercesc_2_8@@QAEPAVXSElementDeclaration@2@XZ
       3462  D85 0019F770 ?getElementTypeValidator@TraverseSchema@xercesc_2_8@@AAEPAVDatatypeValidator@2@QBVDOMElement@2@QB_WAA_N1@Z
       3463  D86 000F13B0 ?getElements@DOMDocumentTypeImpl@xercesc_2_8@@UBEPAVDOMNamedNodeMap@2@XZ
       3464  D87 00167CE0 ?getElementsByTagName@DOMDocumentImpl@xercesc_2_8@@UBEPAVDOMNodeList@2@PB_W@Z
       3465  D88 00165950 ?getElementsByTagName@DOMElementImpl@xercesc_2_8@@UBEPAVDOMNodeList@2@PB_W@Z
       3466  D89 00168220 ?getElementsByTagNameNS@DOMDocumentImpl@xercesc_2_8@@UBEPAVDOMNodeList@2@PB_W0@Z
       3467  D8A 001661B0 ?getElementsByTagNameNS@DOMElementImpl@xercesc_2_8@@UBEPAVDOMNodeList@2@PB_W0@Z
       3468  D8B 0011FC60 ?getEmptyNamespaceId@XMLScanner@xercesc_2_8@@QBEIXZ
       3469  D8C 001149A0 ?getEnclosingCT@SchemaAttDef@xercesc_2_8@@QBEPAVComplexTypeInfo@2@XZ
       3470  D8D 000F1460 ?getEnclosingCTDefinition@XSAttributeDeclaration@xercesc_2_8@@QAEPAVXSComplexTypeDefinition@2@XZ
       3471  D8E 000F1460 ?getEnclosingCTDefinition@XSElementDeclaration@xercesc_2_8@@QBEPAVXSComplexTypeDefinition@2@XZ
       3472  D8F 00158400 ?getEnclosingElementName@XMLSchemaDescriptionImpl@xercesc_2_8@@UBEPBVQName@2@XZ
       3473  D90 001B7290 ?getEnclosingScope@SchemaElementDecl@xercesc_2_8@@QBEHXZ
       3474  D91 000F13B0 ?getEncoding@DOMDocumentImpl@xercesc_2_8@@UBEPB_WXZ
       3475  D92 0016B5D0 ?getEncoding@DOMEntityImpl@xercesc_2_8@@UBEPB_WXZ
       3476  D93 0015C6B0 ?getEncoding@DOMWriterImpl@xercesc_2_8@@UBEPB_WXZ
       3477  D94 0015C6B0 ?getEncoding@InputSource@xercesc_2_8@@UBEPB_WXZ
       3478  D95 001C2B10 ?getEncoding@Wrapper4DOMInputSource@xercesc_2_8@@UBEPB_WXZ
       3479  D96 000D6970 ?getEncodingName@XMLFormatter@xercesc_2_8@@QBEPB_WXZ
       3480  D97 0015C6B0 ?getEncodingName@XMLTranscoder@xercesc_2_8@@QBEPB_WXZ
       3481  D98 000F2620 ?getEncodingStr@XMLReader@xercesc_2_8@@QBEPB_WXZ
       3482  D99 001AE6F0 ?getEndContainer@DOMRangeImpl@xercesc_2_8@@UBEPAVDOMNode@2@XZ
       3483  D9A 001AE720 ?getEndOffset@DOMRangeImpl@xercesc_2_8@@UBEKXZ
       3484  D9B 0010A330 ?getEndPos@Match@xercesc_2_8@@QBEHH@Z
       3485  D9C 001B7290 ?getEntities@DOMDocumentTypeImpl@xercesc_2_8@@UBEPAVDOMNamedNodeMap@2@XZ
       3486  D9D 00164C30 ?getEntity@EndOfEntityException@xercesc_2_8@@QAEAAVXMLEntityDecl@2@XZ
       3487  D9E 00164C30 ?getEntity@EndOfEntityException@xercesc_2_8@@QBEABVXMLEntityDecl@2@XZ
       3488  D9F 0011B530 ?getEntityDecl@DTDGrammar@xercesc_2_8@@QAEPAVDTDEntityDecl@2@QB_W@Z
       3489  DA0 0011B530 ?getEntityDecl@DTDGrammar@xercesc_2_8@@QBEPBVDTDEntityDecl@2@QB_W@Z
       3490  DA1 00142720 ?getEntityDeclPool@DGXMLScanner@xercesc_2_8@@UAEPAV?$NameIdPool@VDTDEntityDecl@xercesc_2_8@@@2@XZ
       3491  DA2 00142720 ?getEntityDeclPool@DGXMLScanner@xercesc_2_8@@UBEPBV?$NameIdPool@VDTDEntityDecl@xercesc_2_8@@@2@XZ
       3492  DA3 00102B80 ?getEntityDeclPool@DTDGrammar@xercesc_2_8@@QAEPAV?$NameIdPool@VDTDEntityDecl@xercesc_2_8@@@2@XZ
       3493  DA4 00102B80 ?getEntityDeclPool@DTDGrammar@xercesc_2_8@@QBEPBV?$NameIdPool@VDTDEntityDecl@xercesc_2_8@@@2@XZ
       3494  DA5 00147510 ?getEntityDeclPool@IGXMLScanner@xercesc_2_8@@UAEPAV?$NameIdPool@VDTDEntityDecl@xercesc_2_8@@@2@XZ
       3495  DA6 00147510 ?getEntityDeclPool@IGXMLScanner@xercesc_2_8@@UBEPBV?$NameIdPool@VDTDEntityDecl@xercesc_2_8@@@2@XZ
       3496  DA7 001149A0 ?getEntityDeclPool@SGXMLScanner@xercesc_2_8@@UAEPAV?$NameIdPool@VDTDEntityDecl@xercesc_2_8@@@2@XZ
       3497  DA8 001149A0 ?getEntityDeclPool@SGXMLScanner@xercesc_2_8@@UBEPBV?$NameIdPool@VDTDEntityDecl@xercesc_2_8@@@2@XZ
       3498  DA9 000ED3C0 ?getEntityDeclPool@ValidationContextImpl@xercesc_2_8@@UBEPBV?$NameIdPool@VDTDEntityDecl@xercesc_2_8@@@2@XZ
       3499  DAA 001149A0 ?getEntityDeclPool@WFXMLScanner@xercesc_2_8@@UAEPAV?$NameIdPool@VDTDEntityDecl@xercesc_2_8@@@2@XZ
       3500  DAB 001149A0 ?getEntityDeclPool@WFXMLScanner@xercesc_2_8@@UBEPBV?$NameIdPool@VDTDEntityDecl@xercesc_2_8@@@2@XZ
       3501  DAC 0011B4D0 ?getEntityEnumerator@DTDGrammar@xercesc_2_8@@QBE?AV?$NameIdPoolEnumerator@VDTDEntityDecl@xercesc_2_8@@@2@XZ
       3502  DAD 000D6970 ?getEntityExpansionLimit@SecurityManager@xercesc_2_8@@UBEIXZ
       3503  DAE 001BBB70 ?getEntityHandler@XMLScanner@xercesc_2_8@@QAEPAVXMLEntityHandler@2@XZ
       3504  DAF 001BBB70 ?getEntityHandler@XMLScanner@xercesc_2_8@@QBEPBVXMLEntityHandler@2@XZ
       3505  DB0 0011FC60 ?getEntityRef@DOMEntityImpl@xercesc_2_8@@UBEPAVDOMEntityReference@2@XZ
       3506  DB1 0015C6B0 ?getEntityResolver@DOMBuilderImpl@xercesc_2_8@@UAEPAVDOMEntityResolver@2@XZ
       3507  DB2 0015C6B0 ?getEntityResolver@DOMBuilderImpl@xercesc_2_8@@UBEPBVDOMEntityResolver@2@XZ
       3508  DB3 001C5A60 ?getEntityResolver@SAX2XMLReaderImpl@xercesc_2_8@@UBEPAVEntityResolver@2@XZ
       3509  DB4 000F20A0 ?getEntityResolver@SAXParser@xercesc_2_8@@QAEPAVEntityResolver@2@XZ
       3510  DB5 000F20A0 ?getEntityResolver@SAXParser@xercesc_2_8@@QBEPBVEntityResolver@2@XZ
       3511  DB6 001BBB70 ?getEntityResolver@XercesDOMParser@xercesc_2_8@@QAEPAVEntityResolver@2@XZ
       3512  DB7 001BBB70 ?getEntityResolver@XercesDOMParser@xercesc_2_8@@QBEPBVEntityResolver@2@XZ
       3513  DB8 0017E990 ?getEnumString@AbstractNumericFacetValidator@xercesc_2_8@@UBEPBV?$RefArrayVectorOf@_W@2@XZ
       3514  DB9 0012ABE0 ?getEnumString@AbstractStringValidator@xercesc_2_8@@UBEPBV?$RefArrayVectorOf@_W@2@XZ
       3515  DBA 001149A0 ?getEnumString@AnySimpleTypeDatatypeValidator@xercesc_2_8@@UBEPBV?$RefArrayVectorOf@_W@2@XZ
       3516  DBB 001149A0 ?getEnumString@BooleanDatatypeValidator@xercesc_2_8@@UBEPBV?$RefArrayVectorOf@_W@2@XZ
       3517  DBC 000F32B0 ?getEnumString@UnionDatatypeValidator@xercesc_2_8@@UBEPBV?$RefArrayVectorOf@_W@2@XZ
       3518  DBD 001BBB40 ?getEnumeration@AbstractNumericFacetValidator@xercesc_2_8@@QBEPAV?$RefVectorOf@VXMLNumber@xercesc_2_8@@@2@XZ
       3519  DBE 0012ABE0 ?getEnumeration@AbstractStringValidator@xercesc_2_8@@QBEPAV?$RefArrayVectorOf@_W@2@XZ
       3520  DBF 000F32B0 ?getEnumeration@UnionDatatypeValidator@xercesc_2_8@@ABEPAV?$RefArrayVectorOf@_W@2@XZ
       3521  DC0 000D6990 ?getEnumeration@XMLAttDef@xercesc_2_8@@QBEPB_WXZ
       3522  DC1 001689F0 ?getErrorChecking@DOMDocumentImpl@xercesc_2_8@@QBE_NXZ
       3523  DC2 001210B0 ?getErrorCount@AbstractDOMParser@xercesc_2_8@@QBEHXZ
       3524  DC3 001BC320 ?getErrorCount@SAX2XMLReaderImpl@xercesc_2_8@@UBEHXZ
       3525  DC4 000F5780 ?getErrorCount@SAXParser@xercesc_2_8@@QBEHXZ
       3526  DC5 0011FC20 ?getErrorCount@XMLScanner@xercesc_2_8@@QAEHXZ
       3527  DC6 00102B80 ?getErrorHandler@DOMBuilderImpl@xercesc_2_8@@UAEPAVDOMErrorHandler@2@XZ
       3528  DC7 00102B80 ?getErrorHandler@DOMBuilderImpl@xercesc_2_8@@UBEPBVDOMErrorHandler@2@XZ
       3529  DC8 0015C6B0 ?getErrorHandler@DOMConfigurationImpl@xercesc_2_8@@QBEPAVDOMErrorHandler@2@XZ
       3530  DC9 00102B80 ?getErrorHandler@DOMWriterImpl@xercesc_2_8@@UBEPAVDOMErrorHandler@2@XZ
       3531  DCA 001BBB50 ?getErrorHandler@SAX2XMLReaderImpl@xercesc_2_8@@UBEPAVErrorHandler@2@XZ
       3532  DCB 000F32B0 ?getErrorHandler@SAXParser@xercesc_2_8@@QAEPAVErrorHandler@2@XZ
       3533  DCC 000F32B0 ?getErrorHandler@SAXParser@xercesc_2_8@@QBEPBVErrorHandler@2@XZ
       3534  DCD 000F7720 ?getErrorHandler@XMLScanner@xercesc_2_8@@QAEPAVErrorHandler@2@XZ
       3535  DCE 000F7720 ?getErrorHandler@XMLScanner@xercesc_2_8@@QBEPBVErrorHandler@2@XZ
       3536  DCF 000F7720 ?getErrorHandler@XercesDOMParser@xercesc_2_8@@QAEPAVErrorHandler@2@XZ
       3537  DD0 000F7720 ?getErrorHandler@XercesDOMParser@xercesc_2_8@@QBEPBVErrorHandler@2@XZ
       3538  DD1 00102B80 ?getErrorNode@DOMLocatorImpl@xercesc_2_8@@UBEPAVDOMNode@2@XZ
       3539  DD2 00147050 ?getErrorOccurred@SchemaValidator@xercesc_2_8@@QBE_NXZ
       3540  DD3 000F4650 ?getErrorReporter@XMLScanner@xercesc_2_8@@QAEPAVXMLErrorReporter@2@XZ
       3541  DD4 000F4650 ?getErrorReporter@XMLScanner@xercesc_2_8@@QBEPBVXMLErrorReporter@2@XZ
       3542  DD5 000EBEF0 ?getErrorType@XMLException@xercesc_2_8@@QBE?AW4ErrTypes@XMLErrorReporter@2@XZ
       3543  DD6 00164C30 ?getEscapeFlags@XMLFormatter@xercesc_2_8@@QBE?AW4EscapeFlags@12@XZ
       3544  DD7 000F4660 ?getExitOnFirstFatal@XMLScanner@xercesc_2_8@@QBE_NXZ
       3545  DD8 000F1470 ?getExitOnFirstFatal@XSDErrorReporter@xercesc_2_8@@QBE_NXZ
       3546  DD9 00121040 ?getExitOnFirstFatalError@AbstractDOMParser@xercesc_2_8@@QBE_NXZ
       3547  DDA 001BBB80 ?getExitOnFirstFatalError@SAX2XMLReaderImpl@xercesc_2_8@@UBE_NXZ
       3548  DDB 000F5710 ?getExitOnFirstFatalError@SAXParser@xercesc_2_8@@QBE_NXZ
       3549  DDC 000F75C0 ?getExpandEntityReferences@AbstractDOMParser@xercesc_2_8@@QBE_NXZ
       3550  DDD 000F18B0 ?getExpandEntityReferences@DOMNodeIteratorImpl@xercesc_2_8@@UAE_NXZ
       3551  DDE 000F18B0 ?getExpandEntityReferences@DOMTreeWalkerImpl@xercesc_2_8@@UAE_NXZ
       3552  DDF 0015C6B0 ?getExpression@XercesXPath@xercesc_2_8@@QAEPA_WXZ
       3553  DE0 001210D0 ?getExternalNoNamespaceSchemaLocation@AbstractDOMParser@xercesc_2_8@@QBEPA_WXZ
       3554  DE1 000F57A0 ?getExternalNoNamespaceSchemaLocation@SAXParser@xercesc_2_8@@QBEPA_WXZ
       3555  DE2 000F4760 ?getExternalNoNamespaceSchemaLocation@XMLScanner@xercesc_2_8@@QBEPA_WXZ
       3556  DE3 001210C0 ?getExternalSchemaLocation@AbstractDOMParser@xercesc_2_8@@QBEPA_WXZ
       3557  DE4 000F5790 ?getExternalSchemaLocation@SAXParser@xercesc_2_8@@QBEPA_WXZ
       3558  DE5 000F4750 ?getExternalSchemaLocation@XMLScanner@xercesc_2_8@@QBEPA_WXZ
       3559  DE6 0014FAE0 ?getFacetId@GeneralAttributeCheck@xercesc_2_8@@QAEGQB_WQAVMemoryManager@2@@Z
       3560  DE7 00105BC0 ?getFacetKind@XSFacet@xercesc_2_8@@QBE?AW4FACET@XSSimpleTypeDefinition@2@XZ
       3561  DE8 00105BC0 ?getFacetKind@XSMultiValueFacet@xercesc_2_8@@QBE?AW4FACET@XSSimpleTypeDefinition@2@XZ
       3562  DE9 000F1460 ?getFacets@DatatypeValidator@xercesc_2_8@@QBEPAV?$RefHashTableOf@VKVStringPair@xercesc_2_8@@@2@XZ
       3563  DEA 000F13B0 ?getFacets@XSSimpleTypeDefinition@xercesc_2_8@@QAEPAV?$RefVectorOf@VXSFacet@xercesc_2_8@@@2@XZ
       3564  DEB 00102B80 ?getFacetsDefined@DatatypeValidator@xercesc_2_8@@IBEHXZ
       3565  DEC 001B60D0 ?getFeature@DOMBuilderImpl@xercesc_2_8@@UBE_NQB_W@Z
       3566  DED 00164C90 ?getFeature@DOMWriterImpl@xercesc_2_8@@IBE_NH@Z
       3567  DEE 001B34A0 ?getFeature@DOMWriterImpl@xercesc_2_8@@UBE_NQB_W@Z
       3568  DEF 001BDCF0 ?getFeature@SAX2XMLReaderImpl@xercesc_2_8@@UBE_NQB_W@Z
       3569  DF0 001B86F0 ?getFeatureFlag@DOMConfigurationImpl@xercesc_2_8@@ABE?AW4DOMConfigurationFeature@12@PB_W@Z
       3570  DF1 001B7290 ?getField@FieldMatcher@xercesc_2_8@@QBEPAVIC_Field@2@XZ
       3571  DF2 000F3E80 ?getFieldAt@IdentityConstraint@xercesc_2_8@@QAEPAVIC_Field@2@I@Z
       3572  DF3 000F3E80 ?getFieldAt@IdentityConstraint@xercesc_2_8@@QBEPBVIC_Field@2@I@Z
       3573  DF4 000F3D90 ?getFieldCount@IdentityConstraint@xercesc_2_8@@QBEHXZ
       3574  DF5 000D6990 ?getFieldStrs@XSIDCDefinition@xercesc_2_8@@QAEPAV?$RefArrayVectorOf@_W@2@XZ
       3575  DF6 00105BC0 ?getFilter@DOMBuilderImpl@xercesc_2_8@@UAEPAVDOMBuilderFilter@2@XZ
       3576  DF7 00105BC0 ?getFilter@DOMBuilderImpl@xercesc_2_8@@UBEPBVDOMBuilderFilter@2@XZ
       3577  DF8 00102B80 ?getFilter@DOMNodeIteratorImpl@xercesc_2_8@@UAEPAVDOMNodeFilter@2@XZ
       3578  DF9 0015C6B0 ?getFilter@DOMTreeWalkerImpl@xercesc_2_8@@UAEPAVDOMNodeFilter@2@XZ
       3579  DFA 00105BC0 ?getFilter@DOMWriterImpl@xercesc_2_8@@UBEPAVDOMWriterFilter@2@XZ
       3580  DFB 000F1380 ?getFinal@XSTypeDefinition@xercesc_2_8@@QBEFXZ
       3581  DFC 0015C6B0 ?getFinalDefault@SchemaInfo@xercesc_2_8@@QBEHXZ
       3582  DFD 00105BC0 ?getFinalSet@ComplexTypeInfo@xercesc_2_8@@QBEHXZ
       3583  DFE 000ED3C0 ?getFinalSet@DatatypeValidator@xercesc_2_8@@QBEHXZ
       3584  DFF 0011FC60 ?getFinalSet@SchemaElementDecl@xercesc_2_8@@QBEHXZ
       3585  E00 000F37B0 ?getFinite@DatatypeValidator@xercesc_2_8@@QBE_NXZ
       3586  E01 001C1340 ?getFinite@XSSimpleTypeDefinition@xercesc_2_8@@QBE_NXZ
       3587  E02 00102B80 ?getFirst@ContentSpecNode@xercesc_2_8@@QAEPAV12@XZ
       3588  E03 00102B80 ?getFirst@ContentSpecNode@xercesc_2_8@@QBEPBV12@XZ
       3589  E04 00102B80 ?getFirstChild@DOMAttrImpl@xercesc_2_8@@UBEPAVDOMNode@2@XZ
       3590  E05 00102B80 ?getFirstChild@DOMCDATASectionImpl@xercesc_2_8@@UBEPAVDOMNode@2@XZ
       3591  E06 001149A0 ?getFirstChild@DOMCommentImpl@xercesc_2_8@@UBEPAVDOMNode@2@XZ
       3592  E07 00102B80 ?getFirstChild@DOMDocumentFragmentImpl@xercesc_2_8@@UBEPAVDOMNode@2@XZ
       3593  E08 00102B80 ?getFirstChild@DOMDocumentImpl@xercesc_2_8@@UBEPAVDOMNode@2@XZ
       3594  E09 00102B80 ?getFirstChild@DOMDocumentTypeImpl@xercesc_2_8@@UBEPAVDOMNode@2@XZ
       3595  E0A 00102B80 ?getFirstChild@DOMElementImpl@xercesc_2_8@@UBEPAVDOMNode@2@XZ
       3596  E0B 00160F00 ?getFirstChild@DOMEntityImpl@xercesc_2_8@@UBEPAVDOMNode@2@XZ
       3597  E0C 00102B80 ?getFirstChild@DOMEntityReferenceImpl@xercesc_2_8@@UBEPAVDOMNode@2@XZ
       3598  E0D 001149A0 ?getFirstChild@DOMNodeImpl@xercesc_2_8@@QBEPAVDOMNode@2@XZ
       3599  E0E 001149A0 ?getFirstChild@DOMNotationImpl@xercesc_2_8@@UBEPAVDOMNode@2@XZ
       3600  E0F 000D6970 ?getFirstChild@DOMParentNode@xercesc_2_8@@QBEPAVDOMNode@2@XZ
       3601  E10 001149A0 ?getFirstChild@DOMProcessingInstructionImpl@xercesc_2_8@@UBEPAVDOMNode@2@XZ
       3602  E11 001149A0 ?getFirstChild@DOMTextImpl@xercesc_2_8@@UBEPAVDOMNode@2@XZ
       3603  E12 001B7DF0 ?getFirstChild@DOMTreeWalkerImpl@xercesc_2_8@@IAEPAVDOMNode@2@PAV32@@Z
       3604  E13 001BEEC0 ?getFirstChildElement@XUtil@xercesc_2_8@@SAPAVDOMElement@2@QBVDOMNode@2@@Z
       3605  E14 001BEF00 ?getFirstChildElementNS@XUtil@xercesc_2_8@@SAPAVDOMElement@2@QBVDOMNode@2@QAPB_WQB_WI@Z
       3606  E15 00105BC0 ?getFixed@DatatypeValidator@xercesc_2_8@@IBEHXZ
       3607  E16 000F1460 ?getFixedFacets@XSSimpleTypeDefinition@xercesc_2_8@@QBEHXZ
       3608  E17 0011C8E0 ?getFormattedContentModel@ComplexTypeInfo@xercesc_2_8@@QBEPB_WXZ
       3609  E18 00116230 ?getFormattedContentModel@DTDElementDecl@xercesc_2_8@@UBEPB_WXZ
       3610  E19 001144E0 ?getFormattedContentModel@SchemaElementDecl@xercesc_2_8@@UBEPB_WXZ
       3611  E1A 001760F0 ?getFormattedString@XMLAbstractDoubleFloat@xercesc_2_8@@UBEPB_WXZ
       3612  E1B 00105BC0 ?getFormattedString@XMLBigDecimal@xercesc_2_8@@UBEPB_WXZ
       3613  E1C 0017B410 ?getFormattedString@XMLDateTime@xercesc_2_8@@UBEPB_WXZ
       3614  E1D 001BBB60 ?getFractionDigits@DecimalDatatypeValidator@xercesc_2_8@@QBEIXZ
       3615  E1E 0015C6B0 ?getFragment@XMLURL@xercesc_2_8@@QBEPB_WXZ
       3616  E1F 0011FC20 ?getFragment@XMLUri@xercesc_2_8@@QBEPB_WXZ
       3617  E20 001B7290 ?getFullName@DTDAttDef@xercesc_2_8@@UBEPB_WXZ
       3618  E21 0010F220 ?getFullName@SchemaAttDef@xercesc_2_8@@UBEPB_WXZ
       3619  E22 000F1890 ?getFullName@XMLElementDecl@xercesc_2_8@@QBEPB_WXZ
       3620  E23 000FF820 ?getFullPath@XMLPlatformUtils@xercesc_2_8@@SAPA_WQB_WQAVMemoryManager@2@@Z
       3621  E24 00121020 ?getGenerateSyntheticAnnotations@AbstractDOMParser@xercesc_2_8@@QBE_NXZ
       3622  E25 000F56F0 ?getGenerateSyntheticAnnotations@SAXParser@xercesc_2_8@@QBE_NXZ
       3623  E26 000F4810 ?getGenerateSyntheticAnnotations@XMLScanner@xercesc_2_8@@QBE_NXZ
       3624  E27 0019FCE0 ?getGlobalElemDecl@TraverseSchema@xercesc_2_8@@AAEPAVSchemaElementDecl@2@QBVDOMElement@2@QB_W@Z
       3625  E28 0013D620 ?getGlobalValueStoreFor@ValueStoreCache@xercesc_2_8@@QAEPAVValueStore@2@QBVIdentityConstraint@2@@Z
       3626  E29 001B6FE0 ?getGrammar@DOMBuilderImpl@xercesc_2_8@@UBEPAVGrammar@2@QB_W@Z
       3627  E2A 00105BC0 ?getGrammar@DTDValidator@xercesc_2_8@@UBEPAVGrammar@2@XZ
       3628  E2B 0011E820 ?getGrammar@GrammarResolver@xercesc_2_8@@QAEPAVGrammar@2@QAVXMLGrammarDescription@2@@Z
       3629  E2C 0011E720 ?getGrammar@GrammarResolver@xercesc_2_8@@QAEPAVGrammar@2@QB_W@Z
       3630  E2D 001BE500 ?getGrammar@SAX2XMLReaderImpl@xercesc_2_8@@UAEPAVGrammar@2@QB_W@Z
       3631  E2E 000F5810 ?getGrammar@SAXParser@xercesc_2_8@@QAEPAVGrammar@2@QB_W@Z
       3632  E2F 00158400 ?getGrammar@SchemaValidator@xercesc_2_8@@UBEPAVGrammar@2@XZ
       3633  E30 000F77D0 ?getGrammar@XercesDOMParser@xercesc_2_8@@QAEPAVGrammar@2@QB_W@Z
       3634  E31 00158400 ?getGrammarDescription@DTDGrammar@xercesc_2_8@@UBEPAVXMLGrammarDescription@2@XZ
       3635  E32 000E1020 ?getGrammarDescription@SchemaGrammar@xercesc_2_8@@UBEPAVXMLGrammarDescription@2@XZ
       3636  E33 0011E8C0 ?getGrammarEnumerator@GrammarResolver@xercesc_2_8@@QBE?AV?$RefHashTableOfEnumerator@VGrammar@xercesc_2_8@@@2@XZ
       3637  E34 00159990 ?getGrammarEnumerator@XMLGrammarPoolImpl@xercesc_2_8@@UBE?AV?$RefHashTableOfEnumerator@VGrammar@xercesc_2_8@@@2@XZ
       3638  E35 001AE570 ?getGrammarKey@XMLDTDDescriptionImpl@xercesc_2_8@@UBEPB_WXZ
       3639  E36 001AE570 ?getGrammarKey@XMLSchemaDescriptionImpl@xercesc_2_8@@UBEPB_WXZ
       3640  E37 00158400 ?getGrammarPool@GrammarResolver@xercesc_2_8@@QBEPAVXMLGrammarPool@2@XZ
       3641  E38 000D6970 ?getGrammarPool@XSerializeEngine@xercesc_2_8@@QBEPAVXMLGrammarPool@2@XZ
       3642  E39 000F4600 ?getGrammarPoolMemoryManager@GrammarResolver@xercesc_2_8@@QBEPAVMemoryManager@2@XZ
       3643  E3A 00103ED0 ?getGrammarResolver@AbstractDOMParser@xercesc_2_8@@IBEPAVGrammarResolver@2@XZ
       3644  E3B 001C5A60 ?getGrammarResolver@SAXParser@xercesc_2_8@@IBEPAVGrammarResolver@2@XZ
       3645  E3C 001149A0 ?getGrammarType@DTDGrammar@xercesc_2_8@@UBE?AW4GrammarType@Grammar@2@XZ
       3646  E3D 000F0A50 ?getGrammarType@SchemaGrammar@xercesc_2_8@@UBE?AW4GrammarType@Grammar@2@XZ
       3647  E3E 001149A0 ?getGrammarType@XMLDTDDescription@xercesc_2_8@@UBE?AW4GrammarType@Grammar@2@XZ
       3648  E3F 000F0A50 ?getGrammarType@XMLSchemaDescription@xercesc_2_8@@UBE?AW4GrammarType@Grammar@2@XZ
       3649  E40 000F1460 ?getGrammarsToAddToXSModel@GrammarResolver@xercesc_2_8@@QAEPAV?$ValueVectorOf@PAVSchemaGrammar@xercesc_2_8@@@2@XZ
       3650  E41 00110580 ?getGraphemePattern@TokenFactory@xercesc_2_8@@QAEPAVToken@2@XZ
       3651  E42 00164C30 ?getGroup@XMLCanRepGroup@xercesc_2_8@@QBE?AW4CanRepGroup@12@XZ
       3652  E43 0011FC20 ?getGroupInfoRegistry@SchemaGrammar@xercesc_2_8@@QBEPAV?$RefHashTableOf@VXercesGroupInfo@xercesc_2_8@@@2@XZ
       3653  E44 000C55D0 ?getHasNoDTD@XMLScanner@xercesc_2_8@@QBE_NXZ
       3654  E45 001403C0 ?getHashVal@HashCMStateSet@xercesc_2_8@@UAEIQBXIQAVMemoryManager@2@@Z
       3655  E46 001256B0 ?getHashVal@HashPtr@xercesc_2_8@@UAEIQBXIQAVMemoryManager@2@@Z
       3656  E47 0011F360 ?getHashVal@HashXMLCh@xercesc_2_8@@UAEIQBXIQAVMemoryManager@2@@Z
       3657  E48 000ED3C0 ?getHost@XMLURL@xercesc_2_8@@QBEPB_WXZ
       3658  E49 00102B80 ?getHost@XMLUri@xercesc_2_8@@QBEPB_WXZ
       3659  E4A 001040A0 ?getIDRefList@SchemaGrammar@xercesc_2_8@@QBEPAV?$RefHashTableOf@VXMLRefInfo@xercesc_2_8@@@2@XZ
       3660  E4B 000F4680 ?getIDRefList@XMLScanner@xercesc_2_8@@QAEPAV?$RefHashTableOf@VXMLRefInfo@xercesc_2_8@@@2@XZ
       3661  E4C 000F4680 ?getIDRefList@XMLScanner@xercesc_2_8@@QBEPBV?$RefHashTableOf@VXMLRefInfo@xercesc_2_8@@@2@XZ
       3662  E4D 001244A0 ?getId@Win32TransService@xercesc_2_8@@UBEPB_WXZ
       3663  E4E 000FF150 ?getId@WinSockNetAccessor@xercesc_2_8@@UBEPB_WXZ
       3664  E4F 00105BC0 ?getId@XMLAttDef@xercesc_2_8@@QBEIXZ
       3665  E50 00102B80 ?getId@XMLElementDecl@xercesc_2_8@@QBEIXZ
       3666  E51 000D6970 ?getId@XMLEntityDecl@xercesc_2_8@@QBEIXZ
       3667  E52 000D6970 ?getId@XMLNotationDecl@xercesc_2_8@@QBEIXZ
       3668  E53 000F2E80 ?getId@XMLStringPool@xercesc_2_8@@UBEIQB_W@Z
       3669  E54 001A8B10 ?getId@XMLSynchronizedStringPool@xercesc_2_8@@UBEIQB_W@Z
       3670  E55 00102B80 ?getId@XSObject@xercesc_2_8@@UBEIXZ
       3671  E56 0015C6B0 ?getIdRefList@ValidationContextImpl@xercesc_2_8@@UBEPAV?$RefHashTableOf@VXMLRefInfo@xercesc_2_8@@@2@XZ
       3672  E57 0015C6B0 ?getIdentityConstraint@IC_Field@xercesc_2_8@@QBEPAVIdentityConstraint@2@XZ
       3673  E58 0015C6B0 ?getIdentityConstraint@IC_Selector@xercesc_2_8@@QBEPAVIdentityConstraint@2@XZ
       3674  E59 0015C6B0 ?getIdentityConstraint@ValueStore@xercesc_2_8@@QBEPAVIdentityConstraint@2@XZ
       3675  E5A 000D6990 ?getIdentityConstraint@XPathMatcher@xercesc_2_8@@QBEPAVIdentityConstraint@2@XZ
       3676  E5B 000F44D0 ?getIdentityConstraintAt@SchemaElementDecl@xercesc_2_8@@QBEPAVIdentityConstraint@2@I@Z
       3677  E5C 001210A0 ?getIdentityConstraintChecking@AbstractDOMParser@xercesc_2_8@@QBE_NXZ
       3678  E5D 000F5770 ?getIdentityConstraintChecking@SAXParser@xercesc_2_8@@QBE_NXZ
       3679  E5E 000F18B0 ?getIdentityConstraintChecking@XMLScanner@xercesc_2_8@@QBE_NXZ
       3680  E5F 000F44C0 ?getIdentityConstraintCount@SchemaElementDecl@xercesc_2_8@@QBEIXZ
       3681  E60 000D6970 ?getIdentityConstraintName@IdentityConstraint@xercesc_2_8@@QBEPA_WXZ
       3682  E61 000F13B0 ?getIdentityConstraints@XSElementDeclaration@xercesc_2_8@@QAEPAV?$XSNamedMap@VXSIDCDefinition@xercesc_2_8@@@2@XZ
       3683  E62 00121120 ?getIgnoreAnnotations@AbstractDOMParser@xercesc_2_8@@QBE_NXZ
       3684  E63 000F58A0 ?getIgnoreAnnotations@SAXParser@xercesc_2_8@@QBE_NXZ
       3685  E64 00103960 ?getIgnoreAnnotations@XMLScanner@xercesc_2_8@@QBE_NXZ
       3686  E65 000F5890 ?getIgnoreCachedDTD@SAXParser@xercesc_2_8@@QBE_NXZ
       3687  E66 000F4830 ?getIgnoreCachedDTD@XMLScanner@xercesc_2_8@@QBE_NXZ
       3688  E67 000F7850 ?getIgnoreCachedDTD@XercesDOMParser@xercesc_2_8@@QBE_NXZ
       3689  E68 000F37D0 ?getIgnoreSerializedAnnotations@XMLGrammarPool@xercesc_2_8@@QBE_NXZ
       3690  E69 00167D10 ?getImplementation@DOMDocumentImpl@xercesc_2_8@@UBEPAVDOMImplementation@2@XZ
       3691  E6A 00167D10 ?getImplementation@DOMImplementation@xercesc_2_8@@SAPAV12@XZ
       3692  E6B 0014F6D0 ?getImportInfo@SchemaInfo@xercesc_2_8@@QBEPAV12@I@Z
       3693  E6C 0014F3A0 ?getImportingListEnumerator@SchemaInfo@xercesc_2_8@@QBE?AV?$BaseRefVectorEnumerator@VSchemaInfo@xercesc_2_8@@@2@XZ
       3694  E6D 000F4670 ?getInException@XMLScanner@xercesc_2_8@@QBE_NXZ
       3695  E6E 001209A0 ?getInUse@XMLBuffer@xercesc_2_8@@QBE_NXZ
       3696  E6F 000F4780 ?getIncludeIgnorableWhitespace@AbstractDOMParser@xercesc_2_8@@QBE_NXZ
       3697  E70 001C2DD0 ?getIndex@VecAttributesImpl@xercesc_2_8@@UBEHQB_W0@Z
       3698  E71 001C2F90 ?getIndex@VecAttributesImpl@xercesc_2_8@@UBEHQB_W@Z
       3699  E72 000F1460 ?getInitialDepth@SelectorMatcher@xercesc_2_8@@UBEHXZ
       3700  E73 00118280 ?getInitialDepth@XPathMatcher@xercesc_2_8@@UBEHXZ
       3701  E74 00158400 ?getIntVal@XMLBigDecimal@xercesc_2_8@@QBEPA_WXZ
       3702  E75 001645C0 ?getInterface@DOMAttrImpl@xercesc_2_8@@UAEPAVDOMNode@2@PB_W@Z
       3703  E76 00160B90 ?getInterface@DOMCDATASectionImpl@xercesc_2_8@@UAEPAVDOMNode@2@PB_W@Z
       3704  E77 00160B90 ?getInterface@DOMCommentImpl@xercesc_2_8@@UAEPAVDOMNode@2@PB_W@Z
       3705  E78 00160B90 ?getInterface@DOMDocumentFragmentImpl@xercesc_2_8@@UAEPAVDOMNode@2@PB_W@Z
       3706  E79 00160B90 ?getInterface@DOMDocumentImpl@xercesc_2_8@@UAEPAVDOMNode@2@PB_W@Z
       3707  E7A 0016BCC0 ?getInterface@DOMDocumentTypeImpl@xercesc_2_8@@UAEPAVDOMNode@2@PB_W@Z
       3708  E7B 00160B90 ?getInterface@DOMElementImpl@xercesc_2_8@@UAEPAVDOMNode@2@PB_W@Z
       3709  E7C 00162260 ?getInterface@DOMElementNSImpl@xercesc_2_8@@UAEPAVDOMNode@2@PB_W@Z
       3710  E7D 00160B90 ?getInterface@DOMEntityImpl@xercesc_2_8@@UAEPAVDOMNode@2@PB_W@Z
       3711  E7E 00160B90 ?getInterface@DOMEntityReferenceImpl@xercesc_2_8@@UAEPAVDOMNode@2@PB_W@Z
       3712  E7F 00163CE0 ?getInterface@DOMNodeImpl@xercesc_2_8@@QAEPAVDOMNode@2@PB_W@Z
       3713  E80 00160B90 ?getInterface@DOMNotationImpl@xercesc_2_8@@UAEPAVDOMNode@2@PB_W@Z
       3714  E81 00160B90 ?getInterface@DOMProcessingInstructionImpl@xercesc_2_8@@UAEPAVDOMNode@2@PB_W@Z
       3715  E82 00160B90 ?getInterface@DOMTextImpl@xercesc_2_8@@UAEPAVDOMNode@2@PB_W@Z
       3716  E83 000F20A0 ?getInternalSubset@DOMDocumentTypeImpl@xercesc_2_8@@UBEPB_WXZ
       3717  E84 00147060 ?getIsElemSpecified@SchemaValidator@xercesc_2_8@@QBE_NXZ
       3718  E85 000DCFD0 ?getIsOpen@BinFileInputStream@xercesc_2_8@@QBE_NXZ
       3719  E86 000F1F60 ?getIsParameter@DTDEntityDecl@xercesc_2_8@@UBE_NXZ
       3720  E87 000F7240 ?getIsSchemaSpecified@PSVIItem@xercesc_2_8@@QBE_NXZ
       3721  E88 000F1F70 ?getIsSpecialChar@DTDEntityDecl@xercesc_2_8@@UBE_NXZ
       3722  E89 001B8E60 ?getIsWhitespaceInElementContent@DOMCDATASectionImpl@xercesc_2_8@@UBE_NXZ
       3723  E8A 001B8E60 ?getIsWhitespaceInElementContent@DOMTextImpl@xercesc_2_8@@UBE_NXZ
       3724  E8B 000F18B0 ?getIssueFatalErrorIfNotFound@InputSource@xercesc_2_8@@UBE_NXZ
       3725  E8C 001C2B00 ?getIssueFatalErrorIfNotFound@Wrapper4DOMInputSource@xercesc_2_8@@UBE_NXZ
       3726  E8D 000F13A0 ?getItemType@XSSimpleTypeDefinition@xercesc_2_8@@QAEPAV12@XZ
       3727  E8E 00179410 ?getItemTypeDTV@ListDatatypeValidator@xercesc_2_8@@QBEPAVDatatypeValidator@2@XZ
       3728  E8F 000F1890 ?getKey@DTDElementDecl@xercesc_2_8@@QBEPB_WXZ
       3729  E90 000D6990 ?getKey@IC_KeyRef@xercesc_2_8@@QBEPAVIdentityConstraint@2@XZ
       3730  E91 000ED3C0 ?getKey@KVStringPair@xercesc_2_8@@QAEPA_WXZ
       3731  E92 000ED3C0 ?getKey@KVStringPair@xercesc_2_8@@QBEPB_WXZ
       3732  E93 00102B80 ?getKey@XMLEntityDecl@xercesc_2_8@@QBEPB_WXZ
       3733  E94 000ED3C0 ?getKey@XMLNotationDecl@xercesc_2_8@@QBEPB_WXZ
       3734  E95 00123D60 ?getLanguageName@XMLMsgLoader@xercesc_2_8@@UBEPB_WXZ
       3735  E96 0016B910 ?getLastChild@DOMAttrImpl@xercesc_2_8@@UBEPAVDOMNode@2@XZ
       3736  E97 0016B910 ?getLastChild@DOMCDATASectionImpl@xercesc_2_8@@UBEPAVDOMNode@2@XZ
       3737  E98 001149A0 ?getLastChild@DOMCommentImpl@xercesc_2_8@@UBEPAVDOMNode@2@XZ
       3738  E99 0016B910 ?getLastChild@DOMDocumentFragmentImpl@xercesc_2_8@@UBEPAVDOMNode@2@XZ
       3739  E9A 0016B910 ?getLastChild@DOMDocumentImpl@xercesc_2_8@@UBEPAVDOMNode@2@XZ
       3740  E9B 0016B910 ?getLastChild@DOMDocumentTypeImpl@xercesc_2_8@@UBEPAVDOMNode@2@XZ
       3741  E9C 0016B910 ?getLastChild@DOMElementImpl@xercesc_2_8@@UBEPAVDOMNode@2@XZ
       3742  E9D 00160F50 ?getLastChild@DOMEntityImpl@xercesc_2_8@@UBEPAVDOMNode@2@XZ
       3743  E9E 0016B910 ?getLastChild@DOMEntityReferenceImpl@xercesc_2_8@@UBEPAVDOMNode@2@XZ
       3744  E9F 001149A0 ?getLastChild@DOMNodeImpl@xercesc_2_8@@QBEPAVDOMNode@2@XZ
       3745  EA0 001149A0 ?getLastChild@DOMNotationImpl@xercesc_2_8@@UBEPAVDOMNode@2@XZ
       3746  EA1 0015FDA0 ?getLastChild@DOMParentNode@xercesc_2_8@@QBEPAVDOMNode@2@XZ
       3747  EA2 001149A0 ?getLastChild@DOMProcessingInstructionImpl@xercesc_2_8@@UBEPAVDOMNode@2@XZ
       3748  EA3 001149A0 ?getLastChild@DOMTextImpl@xercesc_2_8@@UBEPAVDOMNode@2@XZ
       3749  EA4 001B7E70 ?getLastChild@DOMTreeWalkerImpl@xercesc_2_8@@IAEPAVDOMNode@2@PAV32@@Z
       3750  EA5 0011A210 ?getLastExtEntity@ReaderMgr@xercesc_2_8@@ABEPBVXMLReader@2@AAPBVXMLEntityDecl@2@@Z
       3751  EA6 00119EC0 ?getLastExtEntityInfo@ReaderMgr@xercesc_2_8@@QBEXAAULastExtEntityInfo@12@@Z
       3752  EA7 000ED3C0 ?getLeafCount@ContentLeafNameTypeVector@xercesc_2_8@@QBE?BIXZ
       3753  EA8 0013ECB0 ?getLeafNameAt@ContentLeafNameTypeVector@xercesc_2_8@@QBEPAVQName@2@I@Z
       3754  EA9 0013ECF0 ?getLeafTypeAt@ContentLeafNameTypeVector@xercesc_2_8@@QBE?BW4NodeTypes@ContentSpecNode@2@I@Z
       3755  EAA 000ED3C0 ?getLen@MemBufFormatTarget@xercesc_2_8@@QBEIXZ
       3756  EAB 00164C30 ?getLen@XMLBuffer@xercesc_2_8@@QBEIXZ
       3757  EAC 001806B0 ?getLength@AbstractStringValidator@xercesc_2_8@@MBEHQB_WQAVMemoryManager@2@@Z
       3758  EAD 00103ED0 ?getLength@AbstractStringValidator@xercesc_2_8@@QBEIXZ
       3759  EAE 0017A720 ?getLength@Base64BinaryDatatypeValidator@xercesc_2_8@@MBEHQB_WQAVMemoryManager@2@@Z
       3760  EAF 001046E0 ?getLength@DOMAttrMapImpl@xercesc_2_8@@UBEKXZ
       3761  EB0 001B9000 ?getLength@DOMCDATASectionImpl@xercesc_2_8@@UBEKXZ
       3762  EB1 001B1DB0 ?getLength@DOMCharacterDataImpl@xercesc_2_8@@QBEKXZ
       3763  EB2 000EB6D0 ?getLength@DOMCommentImpl@xercesc_2_8@@UBEKXZ
       3764  EB3 001B9330 ?getLength@DOMDeepNodeListImpl@xercesc_2_8@@UBEKXZ
       3765  EB4 001BA2E0 ?getLength@DOMNamedNodeMapImpl@xercesc_2_8@@UBEKXZ
       3766  EB5 0016BD80 ?getLength@DOMNodeListImpl@xercesc_2_8@@UBEKXZ
       3767  EB6 000EB6D0 ?getLength@DOMTextImpl@xercesc_2_8@@UBEKXZ
       3768  EB7 00174030 ?getLength@HexBinaryDatatypeValidator@xercesc_2_8@@MBEHQB_WQAVMemoryManager@2@@Z
       3769  EB8 00179430 ?getLength@ListDatatypeValidator@xercesc_2_8@@MBEHQB_WQAVMemoryManager@2@@Z
       3770  EB9 00102B80 ?getLength@PSVIAttributeList@xercesc_2_8@@QBEIXZ
       3771  EBA 0015C6B0 ?getLength@VecAttrListImpl@xercesc_2_8@@UBEIXZ
       3772  EBB 0015C6B0 ?getLength@VecAttributesImpl@xercesc_2_8@@UBEIXZ
       3773  EBC 001C1320 ?getLexicalEnumeration@XSSimpleTypeDefinition@xercesc_2_8@@QAEPAV?$RefArrayVectorOf@_W@2@XZ
       3774  EBD 000D6990 ?getLexicalFacetValue@XSFacet@xercesc_2_8@@QBEPB_WXZ
       3775  EBE 001C1270 ?getLexicalFacetValue@XSSimpleTypeDefinition@xercesc_2_8@@QAEPB_WW4FACET@12@@Z
       3776  EBF 000D6990 ?getLexicalFacetValues@XSMultiValueFacet@xercesc_2_8@@QAEPAV?$RefArrayVectorOf@_W@2@XZ
       3777  EC0 001BBB60 ?getLexicalHandler@SAX2XMLReaderImpl@xercesc_2_8@@UBEPAVLexicalHandler@2@XZ
       3778  EC1 000E1020 ?getLexicalPattern@XSSimpleTypeDefinition@xercesc_2_8@@QAEPAV?$RefArrayVectorOf@_W@2@XZ
       3779  EC2 00110070 ?getLineBegin2@TokenFactory@xercesc_2_8@@QAEPAVToken@2@XZ
       3780  EC3 00110000 ?getLineBegin@TokenFactory@xercesc_2_8@@QAEPAVToken@2@XZ
       3781  EC4 001047A0 ?getLineCol@XSAnnotation@xercesc_2_8@@QBEXAAH0@Z
       3782  EC5 001100E0 ?getLineEnd@TokenFactory@xercesc_2_8@@QAEPAVToken@2@XZ
       3783  EC6 00103ED0 ?getLineNo@XSDElementNSImpl@xercesc_2_8@@QBEJXZ
       3784  EC7 000D6970 ?getLineNumber@DOMLocatorImpl@xercesc_2_8@@UBEJXZ
       3785  EC8 0011A1E0 ?getLineNumber@ReaderMgr@xercesc_2_8@@UBEJXZ
       3786  EC9 00102B80 ?getLineNumber@SAXParseException@xercesc_2_8@@QBEJXZ
       3787  ECA 000F2630 ?getLineNumber@XMLReader@xercesc_2_8@@QBEJXZ
       3788  ECB 000D6970 ?getLineNumber@XSDLocator@xercesc_2_8@@UBEJXZ
       3789  ECC 00102870 ?getLiteral@Op@xercesc_2_8@@UBEPB_WXZ
       3790  ECD 00102B80 ?getLiteral@StringOp@xercesc_2_8@@UBEPB_WXZ
       3791  ECE 001210F0 ?getLoadExternalDTD@AbstractDOMParser@xercesc_2_8@@QBE_NXZ
       3792  ECF 000F57C0 ?getLoadExternalDTD@SAXParser@xercesc_2_8@@QBE_NXZ
       3793  ED0 000F75D0 ?getLoadExternalDTD@XMLScanner@xercesc_2_8@@QBE_NXZ
       3794  ED1 001149A0 ?getLocalName@DOMAttrImpl@xercesc_2_8@@UBEPB_WXZ
       3795  ED2 001B7290 ?getLocalName@DOMAttrNSImpl@xercesc_2_8@@UBEPB_WXZ
       3796  ED3 001149A0 ?getLocalName@DOMCDATASectionImpl@xercesc_2_8@@UBEPB_WXZ
       3797  ED4 001149A0 ?getLocalName@DOMCommentImpl@xercesc_2_8@@UBEPB_WXZ
       3798  ED5 001149A0 ?getLocalName@DOMDocumentFragmentImpl@xercesc_2_8@@UBEPB_WXZ
       3799  ED6 001149A0 ?getLocalName@DOMDocumentImpl@xercesc_2_8@@UBEPB_WXZ
       3800  ED7 001149A0 ?getLocalName@DOMDocumentTypeImpl@xercesc_2_8@@UBEPB_WXZ
       3801  ED8 001149A0 ?getLocalName@DOMElementImpl@xercesc_2_8@@UBEPB_WXZ
       3802  ED9 0016B5D0 ?getLocalName@DOMElementNSImpl@xercesc_2_8@@UBEPB_WXZ
       3803  EDA 001149A0 ?getLocalName@DOMEntityImpl@xercesc_2_8@@UBEPB_WXZ
       3804  EDB 001149A0 ?getLocalName@DOMEntityReferenceImpl@xercesc_2_8@@UBEPB_WXZ
       3805  EDC 001149A0 ?getLocalName@DOMNodeImpl@xercesc_2_8@@QBEPB_WXZ
       3806  EDD 001149A0 ?getLocalName@DOMNotationImpl@xercesc_2_8@@UBEPB_WXZ
       3807  EDE 001149A0 ?getLocalName@DOMProcessingInstructionImpl@xercesc_2_8@@UBEPB_WXZ
       3808  EDF 001149A0 ?getLocalName@DOMTextImpl@xercesc_2_8@@UBEPB_WXZ
       3809  EE0 001C2D10 ?getLocalName@VecAttributesImpl@xercesc_2_8@@UBEPB_WI@Z
       3810  EE1 00158400 ?getLocalPart@QName@xercesc_2_8@@QAEPA_WXZ
       3811  EE2 00158400 ?getLocalPart@QName@xercesc_2_8@@QBEPB_WXZ
       3812  EE3 0014FBC0 ?getLocalPart@TraverseSchema@xercesc_2_8@@AAEPB_WQB_W@Z
       3813  EE4 00123CE0 ?getLocale@XMLMsgLoader@xercesc_2_8@@SAPBDXZ
       3814  EE5 000ED3C0 ?getLocation@DOMErrorImpl@xercesc_2_8@@UBEPAVDOMLocator@2@XZ
       3815  EE6 00102B80 ?getLocationHints@XMLSchemaDescriptionImpl@xercesc_2_8@@UBEPAV?$RefArrayVectorOf@_W@2@XZ
       3816  EE7 000ED3C0 ?getLocationPaths@XercesXPath@xercesc_2_8@@QBEPAV?$RefVectorOf@VXercesLocationPath@xercesc_2_8@@@2@XZ
       3817  EE8 001BBB60 ?getLocator@ComplexTypeInfo@xercesc_2_8@@QBEPAVXSDLocator@2@XZ
       3818  EE9 00105BC0 ?getLocator@XMLResourceIdentifier@xercesc_2_8@@QBEPBVLocator@2@XZ
       3819  EEA 000F46C0 ?getLocator@XMLScanner@xercesc_2_8@@QBEPBVLocator@2@XZ
       3820  EEB 0011FC20 ?getLocator@XercesGroupInfo@xercesc_2_8@@QBEPAVXSDLocator@2@XZ
       3821  EEC 001470B0 ?getMatcherAt@XPathMatcherStack@xercesc_2_8@@QBEPAVXPathMatcher@2@I@Z
       3822  EED 00147190 ?getMatcherCount@IdentityConstraintHandler@xercesc_2_8@@QBEHXZ
       3823  EEE 00164C30 ?getMatcherCount@XPathMatcherStack@xercesc_2_8@@QBEIXZ
       3824  EEF 00102B80 ?getMax@ClosureToken@xercesc_2_8@@UBEHXZ
       3825  EF0 000F0870 ?getMax@Token@xercesc_2_8@@UBEHXZ
       3826  EF1 0012ABD0 ?getMaxExclusive@AbstractNumericFacetValidator@xercesc_2_8@@QBEQAVXMLNumber@2@XZ
       3827  EF2 000F20B0 ?getMaxInclusive@AbstractNumericFacetValidator@xercesc_2_8@@QBEQAVXMLNumber@2@XZ
       3828  EF3 000F32B0 ?getMaxLength@AbstractStringValidator@xercesc_2_8@@QBEIXZ
       3829  EF4 0011F5B0 ?getMaxLength@Token@xercesc_2_8@@QBEHXZ
       3830  EF5 000F1460 ?getMaxOccurs@ContentSpecNode@xercesc_2_8@@QBEHXZ
       3831  EF6 000D6990 ?getMaxOccurs@XSParticle@xercesc_2_8@@QBEHXZ
       3832  EF7 001402E0 ?getMaxOccursUnbounded@XSParticle@xercesc_2_8@@QBE_NXZ
       3833  EF8 0012C420 ?getMaxTotalRange@ContentSpecNode@xercesc_2_8@@QBEHXZ
       3834  EF9 00110B60 ?getMayMatch@FieldActivator@xercesc_2_8@@QAE_NQAVIC_Field@2@@Z
       3835  EFA 0015FC10 ?getMayMatch@IC_Field@xercesc_2_8@@QBE_NXZ
       3836  EFB 000F3600 ?getMemberTypeAnonymous@SchemaAttDef@xercesc_2_8@@QBE_NXZ
       3837  EFC 000F4030 ?getMemberTypeAnonymous@SchemaElementDecl@xercesc_2_8@@QBE_NXZ
       3838  EFD 000F34A0 ?getMemberTypeAnonymous@UnionDatatypeValidator@xercesc_2_8@@QBE_NXZ
       3839  EFE 001B7290 ?getMemberTypeDefinition@PSVIAttribute@xercesc_2_8@@UAEPAVXSSimpleTypeDefinition@2@XZ
       3840  EFF 001B7290 ?getMemberTypeDefinition@PSVIElement@xercesc_2_8@@UAEPAVXSSimpleTypeDefinition@2@XZ
       3841  F00 000F3540 ?getMemberTypeName@SchemaAttDef@xercesc_2_8@@QBEPB_WXZ
       3842  F01 000F3FD0 ?getMemberTypeName@SchemaElementDecl@xercesc_2_8@@QBEPB_WXZ
       3843  F02 000F3480 ?getMemberTypeName@UnionDatatypeValidator@xercesc_2_8@@QBEPB_WXZ
       3844  F03 000F3550 ?getMemberTypeUri@SchemaAttDef@xercesc_2_8@@QBEPB_WXZ
       3845  F04 000F4000 ?getMemberTypeUri@SchemaElementDecl@xercesc_2_8@@QBEPB_WXZ
       3846  F05 000F3490 ?getMemberTypeUri@UnionDatatypeValidator@xercesc_2_8@@QBEPB_WXZ
       3847  F06 0012ABD0 ?getMemberTypeValidator@UnionDatatypeValidator@xercesc_2_8@@QBEPBVDatatypeValidator@2@XZ
       3848  F07 000F20B0 ?getMemberTypeValidators@UnionDatatypeValidator@xercesc_2_8@@QBEPAV?$RefVectorOf@VDatatypeValidator@xercesc_2_8@@@2@XZ
       3849  F08 00103ED0 ?getMemberTypes@XSSimpleTypeDefinition@xercesc_2_8@@QBEPAV?$RefVectorOf@VXSSimpleTypeDefinition@xercesc_2_8@@@2@XZ
       3850  F09 0012ABD0 ?getMemoryManager@AbstractDOMParser@xercesc_2_8@@IBEPAVMemoryManager@2@XZ
       3851  F0A 000A54A0 ?getMemoryManager@DOMDocumentImpl@xercesc_2_8@@QBEPAVMemoryManager@2@XZ
       3852  F0B 000F20A0 ?getMemoryManager@DatatypeValidator@xercesc_2_8@@QBEPAVMemoryManager@2@XZ
       3853  F0C 000D6970 ?getMemoryManager@InputSource@xercesc_2_8@@QBEPAVMemoryManager@2@XZ
       3854  F0D 0011FC20 ?getMemoryManager@QName@xercesc_2_8@@QBEPAVMemoryManager@2@XZ
       3855  F0E 000D6970 ?getMemoryManager@RegxParser@xercesc_2_8@@IBEPAVMemoryManager@2@XZ
       3856  F0F 000F20A0 ?getMemoryManager@TokenFactory@xercesc_2_8@@QBEPAVMemoryManager@2@XZ
       3857  F10 000F1460 ?getMemoryManager@XMLAbstractDoubleFloat@xercesc_2_8@@QBEPAVMemoryManager@2@XZ
       3858  F11 0011FC20 ?getMemoryManager@XMLAttDef@xercesc_2_8@@QBEPAVMemoryManager@2@XZ
       3859  F12 000D6970 ?getMemoryManager@XMLAttDefList@xercesc_2_8@@QBEPAVMemoryManager@2@XZ
       3860  F13 000D6990 ?getMemoryManager@XMLBigDecimal@xercesc_2_8@@QBEPAVMemoryManager@2@XZ
       3861  F14 000D6970 ?getMemoryManager@XMLElementDecl@xercesc_2_8@@QBEPAVMemoryManager@2@XZ
       3862  F15 000F1460 ?getMemoryManager@XMLEntityDecl@xercesc_2_8@@QBEPAVMemoryManager@2@XZ
       3863  F16 000D6970 ?getMemoryManager@XMLGrammarDescription@xercesc_2_8@@QBEPAVMemoryManager@2@XZ
       3864  F17 000D6970 ?getMemoryManager@XMLGrammarPool@xercesc_2_8@@QAEPAVMemoryManager@2@XZ
       3865  F18 000D6990 ?getMemoryManager@XMLNotationDecl@xercesc_2_8@@QBEPAVMemoryManager@2@XZ
       3866  F19 000F47D0 ?getMemoryManager@XMLScanner@xercesc_2_8@@QBEPAVMemoryManager@2@XZ
       3867  F1A 000ED3C0 ?getMemoryManager@XMLTranscoder@xercesc_2_8@@QBEPAVMemoryManager@2@XZ
       3868  F1B 000D6970 ?getMemoryManager@XMLURL@xercesc_2_8@@QBEPAVMemoryManager@2@XZ
       3869  F1C 0011FC20 ?getMemoryManager@XPathMatcher@xercesc_2_8@@QBEPAVMemoryManager@2@XZ
       3870  F1D 00101DF0 ?getMemoryManager@XSerializeEngine@xercesc_2_8@@QBEPAVMemoryManager@2@XZ
       3871  F1E 0015C6B0 ?getMessage@DOMErrorImpl@xercesc_2_8@@UBEPB_WXZ
       3872  F1F 0015C6B0 ?getMessage@DOMException@xercesc_2_8@@QBEPB_WXZ
       3873  F20 000EDF80 ?getMessage@OutOfMemoryException@xercesc_2_8@@QBEPB_WXZ
       3874  F21 000D6970 ?getMessage@SAXException@xercesc_2_8@@UBEPB_WXZ
       3875  F22 00102B80 ?getMessage@XMLException@xercesc_2_8@@QBEPB_WXZ
       3876  F23 000ED3C0 ?getMin@ClosureToken@xercesc_2_8@@UBEHXZ
       3877  F24 000F0870 ?getMin@Token@xercesc_2_8@@UBEHXZ
       3878  F25 001C5A60 ?getMinExclusive@AbstractNumericFacetValidator@xercesc_2_8@@QBEQAVXMLNumber@2@XZ
       3879  F26 0012ABE0 ?getMinInclusive@AbstractNumericFacetValidator@xercesc_2_8@@QBEQAVXMLNumber@2@XZ
       3880  F27 000F20B0 ?getMinLength@AbstractStringValidator@xercesc_2_8@@QBEIXZ
       3881  F28 0011F450 ?getMinLength@Token@xercesc_2_8@@QBEHXZ
       3882  F29 0011FC20 ?getMinOccurs@ContentSpecNode@xercesc_2_8@@QBEHXZ
       3883  F2A 00158400 ?getMinOccurs@XSParticle@xercesc_2_8@@QBEHXZ
       3884  F2B 0012C3C0 ?getMinTotalRange@ContentSpecNode@xercesc_2_8@@QBEHXZ
       3885  F2C 0016B5D0 ?getMiscFlags@SchemaElementDecl@xercesc_2_8@@QBEHXZ
       3886  F2D 001C0D30 ?getModelGroup@XSModelGroupDefinition@xercesc_2_8@@QAEPAVXSModelGroup@2@XZ
       3887  F2E 0015BDF0 ?getModelGroupDefinition@XSModel@xercesc_2_8@@QAEPAVXSModelGroupDefinition@2@PB_W0@Z
       3888  F2F 001A90C0 ?getModelGroupDefinition@XSNamespaceItem@xercesc_2_8@@QAEPAVXSModelGroupDefinition@2@PB_W@Z
       3889  F30 001C1770 ?getModelGroupTerm@XSParticle@xercesc_2_8@@QAEPAVXSModelGroup@2@XZ
       3890  F31 00158400 ?getModelType@DTDElementDecl@xercesc_2_8@@QBE?AW4ModelTypes@12@XZ
       3891  F32 000F3F20 ?getModelType@SchemaElementDecl@xercesc_2_8@@QBE?AW4ModelTypes@12@XZ
       3892  F33 000F4630 ?getMostRecentAttrValidator@SchemaValidator@xercesc_2_8@@QBEPAVDatatypeValidator@2@XZ
       3893  F34 0016B5D0 ?getMultiValueFacets@XSSimpleTypeDefinition@xercesc_2_8@@QAEPAV?$RefVectorOf@VXSMultiValueFacet@xercesc_2_8@@@2@XZ
       3894  F35 00123D50 ?getNLSHome@XMLMsgLoader@xercesc_2_8@@SAPBDXZ
       3895  F36 0011A940 ?getName@DGXMLScanner@xercesc_2_8@@UBEPB_WXZ
       3896  F37 000D6990 ?getName@DOMAttrImpl@xercesc_2_8@@UBEPB_WXZ
       3897  F38 000F1460 ?getName@DOMDocumentTypeImpl@xercesc_2_8@@UBEPB_WXZ
       3898  F39 00161650 ?getName@DOMTypeInfoImpl@xercesc_2_8@@UBEPB_WXZ
       3899  F3A 0011A980 ?getName@IGXMLScanner@xercesc_2_8@@UBEPB_WXZ
       3900  F3B 000F2BC0 ?getName@ReaderMgr@xercesc_2_8@@QAE_NAAVXMLBuffer@2@@Z
       3901  F3C 0011A950 ?getName@SGXMLScanner@xercesc_2_8@@UBEPB_WXZ
       3902  F3D 0011DF50 ?getName@VecAttrListImpl@xercesc_2_8@@UBEPB_WI@Z
       3903  F3E 0011A930 ?getName@WFXMLScanner@xercesc_2_8@@UBEPB_WXZ
       3904  F3F 000F15F0 ?getName@XMLAttr@xercesc_2_8@@QBEPB_WXZ
       3905  F40 00102B80 ?getName@XMLEntityDecl@xercesc_2_8@@QBEPB_WXZ
       3906  F41 000ED3C0 ?getName@XMLNotationDecl@xercesc_2_8@@QBEPB_WXZ
       3907  F42 00111EB0 ?getName@XMLReader@xercesc_2_8@@QAE_NAAVXMLBuffer@2@_N@Z
       3908  F43 00195C70 ?getName@XSAXMLScanner@xercesc_2_8@@UBEPB_WXZ
       3909  F44 001C14E0 ?getName@XSAttributeDeclaration@xercesc_2_8@@UAEPB_WXZ
       3910  F45 001C0BD0 ?getName@XSAttributeGroupDefinition@xercesc_2_8@@UAEPB_WXZ
       3911  F46 0015F600 ?getName@XSComplexTypeDefinition@xercesc_2_8@@UAEPB_WXZ
       3912  F47 001647C0 ?getName@XSElementDeclaration@xercesc_2_8@@UAEPB_WXZ
       3913  F48 000EB6D0 ?getName@XSIDCDefinition@xercesc_2_8@@UAEPB_WXZ
       3914  F49 001C1890 ?getName@XSModelGroupDefinition@xercesc_2_8@@UAEPB_WXZ
       3915  F4A 001C0BC0 ?getName@XSNotationDeclaration@xercesc_2_8@@UAEPB_WXZ
       3916  F4B 001149A0 ?getName@XSObject@xercesc_2_8@@UAEPB_WXZ
       3917  F4C 001C1370 ?getName@XSSimpleTypeDefinition@xercesc_2_8@@UAEPB_WXZ
       3918  F4D 0015C6B0 ?getName@XercesNodeTest@xercesc_2_8@@QBEPAVQName@2@XZ
       3919  F4E 0015C6B0 ?getNameId@XercesAttGroupInfo@xercesc_2_8@@QBEIXZ
       3920  F4F 000ED3C0 ?getNameId@XercesGroupInfo@xercesc_2_8@@QBEIXZ
       3921  F50 00102B80 ?getNameSpace@XMLResourceIdentifier@xercesc_2_8@@QBEPB_WXZ
       3922  F51 0015C6B0 ?getNameSpaceId@XMLNotationDecl@xercesc_2_8@@QBEIXZ
       3923  F52 000F2C10 ?getNameToken@ReaderMgr@xercesc_2_8@@QAE_NAAVXMLBuffer@2@@Z
       3924  F53 001B24F0 ?getNamedItem@DOMAttrMapImpl@xercesc_2_8@@UBEPAVDOMNode@2@PB_W@Z
       3925  F54 001BA370 ?getNamedItem@DOMNamedNodeMapImpl@xercesc_2_8@@UBEPAVDOMNode@2@PB_W@Z
       3926  F55 001B2870 ?getNamedItemNS@DOMAttrMapImpl@xercesc_2_8@@UBEPAVDOMNode@2@PB_W0@Z
       3927  F56 001BA940 ?getNamedItemNS@DOMNamedNodeMapImpl@xercesc_2_8@@UBEPAVDOMNode@2@PB_W0@Z
       3928  F57 00161690 ?getNamespace@DOMTypeInfoImpl@xercesc_2_8@@UBEPB_WXZ
       3929  F58 001C14F0 ?getNamespace@XSAttributeDeclaration@xercesc_2_8@@UAEPB_WXZ
       3930  F59 001C1890 ?getNamespace@XSAttributeGroupDefinition@xercesc_2_8@@UAEPB_WXZ
       3931  F5A 0015F610 ?getNamespace@XSComplexTypeDefinition@xercesc_2_8@@UAEPB_WXZ
       3932  F5B 001647D0 ?getNamespace@XSElementDeclaration@xercesc_2_8@@UAEPB_WXZ
       3933  F5C 001C0F30 ?getNamespace@XSIDCDefinition@xercesc_2_8@@UAEPB_WXZ
       3934  F5D 001C0D10 ?getNamespace@XSModelGroupDefinition@xercesc_2_8@@UAEPB_WXZ
       3935  F5E 001C0BD0 ?getNamespace@XSNotationDeclaration@xercesc_2_8@@UAEPB_WXZ
       3936  F5F 001149A0 ?getNamespace@XSObject@xercesc_2_8@@UAEPB_WXZ
       3937  F60 001C1380 ?getNamespace@XSSimpleTypeDefinition@xercesc_2_8@@UAEPB_WXZ
       3938  F61 000F47E0 ?getNamespaceContext@XMLScanner@xercesc_2_8@@QBEPAV?$ValueVectorOf@PAUPrefMapElem@xercesc_2_8@@@2@XZ
       3939  F62 00128040 ?getNamespaceForPrefix@NamespaceScope@xercesc_2_8@@QBEIQB_W@Z
       3940  F63 00172740 ?getNamespaceForPrefix@NamespaceScope@xercesc_2_8@@QBEIQB_WH@Z
       3941  F64 000ED3C0 ?getNamespaceId@XercesAttGroupInfo@xercesc_2_8@@QBEIXZ
       3942  F65 00102B80 ?getNamespaceId@XercesGroupInfo@xercesc_2_8@@QBEIXZ
       3943  F66 001C1510 ?getNamespaceItem@XSAttributeDeclaration@xercesc_2_8@@UAEPAVXSNamespaceItem@2@XZ
       3944  F67 001C1510 ?getNamespaceItem@XSAttributeGroupDefinition@xercesc_2_8@@UAEPAVXSNamespaceItem@2@XZ
       3945  F68 001C1510 ?getNamespaceItem@XSComplexTypeDefinition@xercesc_2_8@@UAEPAVXSNamespaceItem@2@XZ
       3946  F69 001C1510 ?getNamespaceItem@XSElementDeclaration@xercesc_2_8@@UAEPAVXSNamespaceItem@2@XZ
       3947  F6A 001C1510 ?getNamespaceItem@XSIDCDefinition@xercesc_2_8@@UAEPAVXSNamespaceItem@2@XZ
       3948  F6B 0015BEC0 ?getNamespaceItem@XSModel@xercesc_2_8@@QAEPAVXSNamespaceItem@2@QB_W@Z
       3949  F6C 001C1510 ?getNamespaceItem@XSModelGroupDefinition@xercesc_2_8@@UAEPAVXSNamespaceItem@2@XZ
       3950  F6D 001C1510 ?getNamespaceItem@XSNotationDeclaration@xercesc_2_8@@UAEPAVXSNamespaceItem@2@XZ
       3951  F6E 001149A0 ?getNamespaceItem@XSObject@xercesc_2_8@@UAEPAVXSNamespaceItem@2@XZ
       3952  F6F 001C1510 ?getNamespaceItem@XSSimpleTypeDefinition@xercesc_2_8@@UAEPAVXSNamespaceItem@2@XZ
       3953  F70 0015C6B0 ?getNamespaceItems@XSModel@xercesc_2_8@@QAEPAV?$RefVectorOf@VXSNamespaceItem@xercesc_2_8@@@2@XZ
       3954  F71 000F32B0 ?getNamespaceList@SchemaAttDef@xercesc_2_8@@QBEPAV?$ValueVectorOf@I@2@XZ
       3955  F72 0010E7C0 ?getNamespaceMap@ElemStack@xercesc_2_8@@QBEPAV?$ValueVectorOf@PAUPrefMapElem@xercesc_2_8@@@2@XZ
       3956  F73 001B7290 ?getNamespaceScope@SchemaGrammar@xercesc_2_8@@QBEPAVNamespaceScope@2@XZ
       3957  F74 00105BC0 ?getNamespaceScopeLevel@SchemaInfo@xercesc_2_8@@QBEIXZ
       3958  F75 001149A0 ?getNamespaceURI@DOMAttrImpl@xercesc_2_8@@UBEPB_WXZ
       3959  F76 000F1460 ?getNamespaceURI@DOMAttrNSImpl@xercesc_2_8@@UBEPB_WXZ
       3960  F77 001149A0 ?getNamespaceURI@DOMCDATASectionImpl@xercesc_2_8@@UBEPB_WXZ
       3961  F78 001149A0 ?getNamespaceURI@DOMCommentImpl@xercesc_2_8@@UBEPB_WXZ
       3962  F79 001149A0 ?getNamespaceURI@DOMDocumentFragmentImpl@xercesc_2_8@@UBEPB_WXZ
       3963  F7A 001149A0 ?getNamespaceURI@DOMDocumentImpl@xercesc_2_8@@UBEPB_WXZ
       3964  F7B 001149A0 ?getNamespaceURI@DOMDocumentTypeImpl@xercesc_2_8@@UBEPB_WXZ
       3965  F7C 001149A0 ?getNamespaceURI@DOMElementImpl@xercesc_2_8@@UBEPB_WXZ
       3966  F7D 000F13B0 ?getNamespaceURI@DOMElementNSImpl@xercesc_2_8@@UBEPB_WXZ
       3967  F7E 001149A0 ?getNamespaceURI@DOMEntityImpl@xercesc_2_8@@UBEPB_WXZ
       3968  F7F 001149A0 ?getNamespaceURI@DOMEntityReferenceImpl@xercesc_2_8@@UBEPB_WXZ
       3969  F80 001149A0 ?getNamespaceURI@DOMNodeImpl@xercesc_2_8@@QBEPB_WXZ
       3970  F81 001149A0 ?getNamespaceURI@DOMNotationImpl@xercesc_2_8@@UBEPB_WXZ
       3971  F82 001149A0 ?getNamespaceURI@DOMProcessingInstructionImpl@xercesc_2_8@@UBEPB_WXZ
       3972  F83 001149A0 ?getNamespaceURI@DOMTextImpl@xercesc_2_8@@UBEPB_WXZ
       3973  F84 00158400 ?getNamespaceURI@IdentityConstraint@xercesc_2_8@@QBEHXZ
       3974  F85 000D6970 ?getNamespaces@XSModel@xercesc_2_8@@QAEPAV?$RefArrayVectorOf@_W@2@XZ
       3975  F86 000ED3C0 ?getNewLine@DOMWriterImpl@xercesc_2_8@@UBEPB_WXZ
       3976  F87 00109D70 ?getNewUIntPtr@XMLScanner@xercesc_2_8@@IAEPAIXZ
       3977  F88 000D6990 ?getNext@XSAnnotation@xercesc_2_8@@QAEPAV12@XZ
       3978  F89 00118C10 ?getNextChar@ReaderMgr@xercesc_2_8@@QAE_WXZ
       3979  F8A 000F27F0 ?getNextChar@XMLReader@xercesc_2_8@@QAE_NAA_W@Z
       3980  F8B 000F2C40 ?getNextCharIfNot@ReaderMgr@xercesc_2_8@@QAE_N_WAA_W@Z
       3981  F8C 000F2780 ?getNextCharIfNot@XMLReader@xercesc_2_8@@QAE_N_WAA_W@Z
       3982  F8D 000ED3C0 ?getNextOp@Op@xercesc_2_8@@QBEPBV12@XZ
       3983  F8E 001149A0 ?getNextSibling@DOMAttrImpl@xercesc_2_8@@UBEPAVDOMNode@2@XZ
       3984  F8F 0011FC20 ?getNextSibling@DOMCDATASectionImpl@xercesc_2_8@@UBEPAVDOMNode@2@XZ
       3985  F90 000D6970 ?getNextSibling@DOMChildNode@xercesc_2_8@@QBEPAVDOMNode@2@XZ
       3986  F91 00102B80 ?getNextSibling@DOMCommentImpl@xercesc_2_8@@UBEPAVDOMNode@2@XZ
       3987  F92 001149A0 ?getNextSibling@DOMDocumentFragmentImpl@xercesc_2_8@@UBEPAVDOMNode@2@XZ
       3988  F93 001149A0 ?getNextSibling@DOMDocumentImpl@xercesc_2_8@@UBEPAVDOMNode@2@XZ
       3989  F94 0011FC20 ?getNextSibling@DOMDocumentTypeImpl@xercesc_2_8@@UBEPAVDOMNode@2@XZ
       3990  F95 0011FC20 ?getNextSibling@DOMElementImpl@xercesc_2_8@@UBEPAVDOMNode@2@XZ
       3991  F96 001149A0 ?getNextSibling@DOMEntityImpl@xercesc_2_8@@UBEPAVDOMNode@2@XZ
       3992  F97 0011FC20 ?getNextSibling@DOMEntityReferenceImpl@xercesc_2_8@@UBEPAVDOMNode@2@XZ
       3993  F98 001149A0 ?getNextSibling@DOMNodeImpl@xercesc_2_8@@QBEPAVDOMNode@2@XZ
       3994  F99 001149A0 ?getNextSibling@DOMNotationImpl@xercesc_2_8@@UBEPAVDOMNode@2@XZ
       3995  F9A 00102B80 ?getNextSibling@DOMProcessingInstructionImpl@xercesc_2_8@@UBEPAVDOMNode@2@XZ
       3996  F9B 00102B80 ?getNextSibling@DOMTextImpl@xercesc_2_8@@UBEPAVDOMNode@2@XZ
       3997  F9C 001B7CB0 ?getNextSibling@DOMTreeWalkerImpl@xercesc_2_8@@IAEPAVDOMNode@2@PAV32@@Z
       3998  F9D 001BF010 ?getNextSiblingElement@XUtil@xercesc_2_8@@SAPAVDOMElement@2@QBVDOMNode@2@@Z
       3999  F9E 001BF050 ?getNextSiblingElementNS@XUtil@xercesc_2_8@@SAPAVDOMElement@2@QBVDOMNode@2@QAPB_WQB_WI@Z
       4000  F9F 00164820 ?getNillable@XSElementDeclaration@xercesc_2_8@@QBE_NXZ
       4001  FA0 000D6990 ?getNoFlow@ConditionOp@xercesc_2_8@@UBEPBVOp@2@XZ
       4002  FA1 00102840 ?getNoFlow@Op@xercesc_2_8@@UBEPBV12@XZ
       4003  FA2 0010A270 ?getNoGroups@Match@xercesc_2_8@@QBEHXZ
       4004  FA3 000F2640 ?getNoMoreFlag@XMLReader@xercesc_2_8@@QBE_NXZ
       4005  FA4 000ED3C0 ?getNoParen@ParenToken@xercesc_2_8@@UBEHXZ
       4006  FA5 00105BC0 ?getNoParen@RegxParser@xercesc_2_8@@QBEHXZ
       4007  FA6 001149A0 ?getNoParen@Token@xercesc_2_8@@UBEHXZ
       4008  FA7 001B7290 ?getNodeIDMap@DOMDocumentImpl@xercesc_2_8@@QAEPAVDOMNodeIDMap@2@XZ
       4009  FA8 00167BA0 ?getNodeIterators@DOMDocumentImpl@xercesc_2_8@@UBEPAV?$RefVectorOf@VDOMNodeIteratorImpl@xercesc_2_8@@@2@XZ
       4010  FA9 000D6990 ?getNodeName@DOMAttrImpl@xercesc_2_8@@UBEPB_WXZ
       4011  FAA 001B8CE0 ?getNodeName@DOMCDATASectionImpl@xercesc_2_8@@UBEPB_WXZ
       4012  FAB 001B9CD0 ?getNodeName@DOMCommentImpl@xercesc_2_8@@UBEPB_WXZ
       4013  FAC 001B99D0 ?getNodeName@DOMDocumentFragmentImpl@xercesc_2_8@@UBEPB_WXZ
       4014  FAD 00167100 ?getNodeName@DOMDocumentImpl@xercesc_2_8@@UBEPB_WXZ
       4015  FAE 000F1460 ?getNodeName@DOMDocumentTypeImpl@xercesc_2_8@@UBEPB_WXZ
       4016  FAF 0011FC60 ?getNodeName@DOMElementImpl@xercesc_2_8@@UBEPB_WXZ
       4017  FB0 000D6990 ?getNodeName@DOMEntityImpl@xercesc_2_8@@UBEPB_WXZ
       4018  FB1 000F1460 ?getNodeName@DOMEntityReferenceImpl@xercesc_2_8@@UBEPB_WXZ
       4019  FB2 000ED3C0 ?getNodeName@DOMNotationImpl@xercesc_2_8@@UBEPB_WXZ
       4020  FB3 000D6990 ?getNodeName@DOMProcessingInstructionImpl@xercesc_2_8@@UBEPB_WXZ
       4021  FB4 00160840 ?getNodeName@DOMTextImpl@xercesc_2_8@@UBEPB_WXZ
       4022  FB5 0015C6B0 ?getNodeTest@XercesStep@xercesc_2_8@@QBEPAVXercesNodeTest@2@XZ
       4023  FB6 001C6590 ?getNodeType@DOMAttrImpl@xercesc_2_8@@UBEFXZ
       4024  FB7 000EB460 ?getNodeType@DOMCDATASectionImpl@xercesc_2_8@@UBEFXZ
       4025  FB8 000EA220 ?getNodeType@DOMCommentImpl@xercesc_2_8@@UBEFXZ
       4026  FB9 000EB4D0 ?getNodeType@DOMDocumentFragmentImpl@xercesc_2_8@@UBEFXZ
       4027  FBA 00076D40 ?getNodeType@DOMDocumentImpl@xercesc_2_8@@UBEFXZ
       4028  FBB 000EB0D0 ?getNodeType@DOMDocumentTypeImpl@xercesc_2_8@@UBEFXZ
       4029  FBC 000F0A50 ?getNodeType@DOMElementImpl@xercesc_2_8@@UBEFXZ
       4030  FBD 00160DE0 ?getNodeType@DOMEntityImpl@xercesc_2_8@@UBEFXZ
       4031  FBE 000EA1A0 ?getNodeType@DOMEntityReferenceImpl@xercesc_2_8@@UBEFXZ
       4032  FBF 000DD4B0 ?getNodeType@DOMNotationImpl@xercesc_2_8@@UBEFXZ
       4033  FC0 000D69F0 ?getNodeType@DOMProcessingInstructionImpl@xercesc_2_8@@UBEFXZ
       4034  FC1 00160850 ?getNodeType@DOMTextImpl@xercesc_2_8@@UBEFXZ
       4035  FC2 00164010 ?getNodeValue@DOMAttrImpl@xercesc_2_8@@UBEPB_WXZ
       4036  FC3 001B8FE0 ?getNodeValue@DOMCDATASectionImpl@xercesc_2_8@@UBEPB_WXZ
       4037  FC4 001B1D90 ?getNodeValue@DOMCharacterDataImpl@xercesc_2_8@@QBEPB_WXZ
       4038  FC5 001B9FA0 ?getNodeValue@DOMCommentImpl@xercesc_2_8@@UBEPB_WXZ
       4039  FC6 001149A0 ?getNodeValue@DOMDocumentFragmentImpl@xercesc_2_8@@UBEPB_WXZ
       4040  FC7 001149A0 ?getNodeValue@DOMDocumentImpl@xercesc_2_8@@UBEPB_WXZ
       4041  FC8 001149A0 ?getNodeValue@DOMDocumentTypeImpl@xercesc_2_8@@UBEPB_WXZ
       4042  FC9 001149A0 ?getNodeValue@DOMElementImpl@xercesc_2_8@@UBEPB_WXZ
       4043  FCA 001149A0 ?getNodeValue@DOMEntityImpl@xercesc_2_8@@UBEPB_WXZ
       4044  FCB 001149A0 ?getNodeValue@DOMEntityReferenceImpl@xercesc_2_8@@UBEPB_WXZ
       4045  FCC 001149A0 ?getNodeValue@DOMNodeImpl@xercesc_2_8@@QBEPB_WXZ
       4046  FCD 001149A0 ?getNodeValue@DOMNotationImpl@xercesc_2_8@@UBEPB_WXZ
       4047  FCE 001B9FA0 ?getNodeValue@DOMProcessingInstructionImpl@xercesc_2_8@@UBEPB_WXZ
       4048  FCF 001B9FA0 ?getNodeValue@DOMTextImpl@xercesc_2_8@@UBEPB_WXZ
       4049  FD0 0018CC50 ?getNonUnaryGroup@SchemaValidator@xercesc_2_8@@AAEPAVContentSpecNode@2@QAV32@@Z
       4050  FD1 0014F3C0 ?getNonXSAttList@SchemaInfo@xercesc_2_8@@QBEPAV?$ValueVectorOf@PAVDOMNode@xercesc_2_8@@@2@XZ
       4051  FD2 001A9270 ?getNormalizeData@XMLScanner@xercesc_2_8@@QBE_NXZ
       4052  FD3 00147070 ?getNormalizedValue@SchemaValidator@xercesc_2_8@@QBEPB_WXZ
       4053  FD4 00110310 ?getNotWordEdge@TokenFactory@xercesc_2_8@@QAEPAVToken@2@XZ
       4054  FD5 0011B720 ?getNotationDecl@DTDGrammar@xercesc_2_8@@UAEPAVXMLNotationDecl@2@QB_W@Z
       4055  FD6 0011B720 ?getNotationDecl@DTDGrammar@xercesc_2_8@@UBEPBVXMLNotationDecl@2@QB_W@Z
       4056  FD7 0011B720 ?getNotationDecl@SchemaGrammar@xercesc_2_8@@UAEPAVXMLNotationDecl@2@QB_W@Z
       4057  FD8 0011B720 ?getNotationDecl@SchemaGrammar@xercesc_2_8@@UBEPBVXMLNotationDecl@2@QB_W@Z
       4058  FD9 000F13B0 ?getNotationDeclaration@PSVIElement@xercesc_2_8@@QAEPAVXSNotationDeclaration@2@XZ
       4059  FDA 0015BE40 ?getNotationDeclaration@XSModel@xercesc_2_8@@QAEPAVXSNotationDeclaration@2@PB_W0@Z
       4060  FDB 001A90F0 ?getNotationDeclaration@XSNamespaceItem@xercesc_2_8@@QAEPAVXSNotationDeclaration@2@PB_W@Z
       4061  FDC 0011B500 ?getNotationEnumerator@DTDGrammar@xercesc_2_8@@QBE?AV?$NameIdPoolEnumerator@VXMLNotationDecl@xercesc_2_8@@@2@XZ
       4062  FDD 00104060 ?getNotationEnumerator@SchemaGrammar@xercesc_2_8@@QBE?AV?$NameIdPoolEnumerator@VXMLNotationDecl@xercesc_2_8@@@2@XZ
       4063  FDE 001B7290 ?getNotationName@DOMEntityImpl@xercesc_2_8@@UBEPB_WXZ
       4064  FDF 00105BC0 ?getNotationName@XMLEntityDecl@xercesc_2_8@@QBEPB_WXZ
       4065  FE0 0011FC60 ?getNotations@DOMDocumentTypeImpl@xercesc_2_8@@UBEPAVDOMNamedNodeMap@2@XZ
       4066  FE1 000D6990 ?getNsConstraintList@XSWildcard@xercesc_2_8@@QAEPAV?$RefArrayVectorOf@_W@2@XZ
       4067  FE2 000F1480 ?getNumeric@DatatypeValidator@xercesc_2_8@@QBE_NXZ
       4068  FE3 001C1360 ?getNumeric@XSSimpleTypeDefinition@xercesc_2_8@@QBE_NXZ
       4069  FE4 00161730 ?getNumericProperty@DOMTypeInfoImpl@xercesc_2_8@@UBEHW4PSVIProperty@DOMPSVITypeInfo@2@@Z
       4070  FE5 0013D620 ?getObjectFromMap@XSObjectFactory@xercesc_2_8@@AAEPAVXSObject@2@PAX@Z
       4071  FE6 000F0A50 ?getObjectType@DTDElementDecl@xercesc_2_8@@UBE?AW4objectType@XMLElementDecl@2@XZ
       4072  FE7 001149A0 ?getObjectType@SchemaElementDecl@xercesc_2_8@@UBE?AW4objectType@XMLElementDecl@2@XZ
       4073  FE8 000ED3C0 ?getOffset@DOMLocatorImpl@xercesc_2_8@@UBEJXZ
       4074  FE9 00102B80 ?getOffset@RegxParser@xercesc_2_8@@QBEHXZ
       4075  FEA 000F0850 ?getOpType@Op@xercesc_2_8@@QBEFXZ
       4076  FEB 0010C870 ?getOptionValue@RegularExpression@xercesc_2_8@@SAH_W@Z
       4077  FEC 000ED3C0 ?getOptions@ModifierToken@xercesc_2_8@@QBEHXZ
       4078  FED 00102B80 ?getOptionsMask@ModifierToken@xercesc_2_8@@QBEHXZ
       4079  FEE 000D6990 ?getOrdered@DatatypeValidator@xercesc_2_8@@QBE?AW4ORDERING@XSSimpleTypeDefinition@2@XZ
       4080  FEF 001C1330 ?getOrdered@XSSimpleTypeDefinition@xercesc_2_8@@QBE?AW4ORDERING@12@XZ
       4081  FF0 000ED3C0 ?getOwnerDocument@DOMAttrImpl@xercesc_2_8@@UBEPAVDOMDocument@2@XZ
       4082  FF1 000ED3C0 ?getOwnerDocument@DOMCDATASectionImpl@xercesc_2_8@@UBEPAVDOMDocument@2@XZ
       4083  FF2 00160AE0 ?getOwnerDocument@DOMCommentImpl@xercesc_2_8@@UBEPAVDOMDocument@2@XZ
       4084  FF3 000ED3C0 ?getOwnerDocument@DOMDocumentFragmentImpl@xercesc_2_8@@UBEPAVDOMDocument@2@XZ
       4085  FF4 001149A0 ?getOwnerDocument@DOMDocumentImpl@xercesc_2_8@@UBEPAVDOMDocument@2@XZ
       4086  FF5 000ED3C0 ?getOwnerDocument@DOMDocumentTypeImpl@xercesc_2_8@@UBEPAVDOMDocument@2@XZ
       4087  FF6 000ED3C0 ?getOwnerDocument@DOMElementImpl@xercesc_2_8@@UBEPAVDOMDocument@2@XZ
       4088  FF7 000ED3C0 ?getOwnerDocument@DOMEntityImpl@xercesc_2_8@@UBEPAVDOMDocument@2@XZ
       4089  FF8 000ED3C0 ?getOwnerDocument@DOMEntityReferenceImpl@xercesc_2_8@@UBEPAVDOMDocument@2@XZ
       4090  FF9 001629F0 ?getOwnerDocument@DOMNodeImpl@xercesc_2_8@@QBEPAVDOMDocument@2@XZ
       4091  FFA 00160AE0 ?getOwnerDocument@DOMNotationImpl@xercesc_2_8@@UBEPAVDOMDocument@2@XZ
       4092  FFB 00164C30 ?getOwnerDocument@DOMParentNode@xercesc_2_8@@QBEPAVDOMDocument@2@XZ
       4093  FFC 00160AE0 ?getOwnerDocument@DOMProcessingInstructionImpl@xercesc_2_8@@UBEPAVDOMDocument@2@XZ
       4094  FFD 00160AE0 ?getOwnerDocument@DOMTextImpl@xercesc_2_8@@UBEPAVDOMDocument@2@XZ
       4095  FFE 00162760 ?getOwnerElement@DOMAttrImpl@xercesc_2_8@@UBEPAVDOMElement@2@XZ
       4096  FFF 000F73F0 ?getPSVIAttributeToFill@PSVIAttributeList@xercesc_2_8@@QAEPAVPSVIAttribute@2@PB_W0@Z
       4097 1000 001BBB60 ?getPSVIHandler@AbstractDOMParser@xercesc_2_8@@QAEPAVPSVIHandler@2@XZ
       4098 1001 001BBB60 ?getPSVIHandler@AbstractDOMParser@xercesc_2_8@@QBEPBVPSVIHandler@2@XZ
       4099 1002 000F4630 ?getPSVIHandler@SAX2XMLReaderImpl@xercesc_2_8@@UBEPAVPSVIHandler@2@XZ
       4100 1003 000F20B0 ?getPSVIHandler@SAXParser@xercesc_2_8@@QAEPAVPSVIHandler@2@XZ
       4101 1004 000F20B0 ?getPSVIHandler@SAXParser@xercesc_2_8@@QBEPBVPSVIHandler@2@XZ
       4102 1005 00164CD0 ?getPSVIHandler@XMLScanner@xercesc_2_8@@QAEPAVPSVIHandler@2@XZ
       4103 1006 00164CD0 ?getPSVIHandler@XMLScanner@xercesc_2_8@@QBEPBVPSVIHandler@2@XZ
       4104 1007 000F13B0 ?getPSVIScope@SchemaAttDef@xercesc_2_8@@QBE?AW4PSVIScope@PSVIDefs@2@XZ
       4105 1008 000D6990 ?getPSVIScope@SchemaElementDecl@xercesc_2_8@@QBE?AW4PSVIScope@PSVIDefs@2@XZ
       4106 1009 0016D9F0 ?getPanicReasonString@PanicHandler@xercesc_2_8@@SAPBDW4PanicReasons@12@@Z
       4107 100A 001B8340 ?getParameter@DOMConfigurationImpl@xercesc_2_8@@UBEPBXPB_W@Z
       4108 100B 001149A0 ?getParentNode@DOMAttrImpl@xercesc_2_8@@UBEPAVDOMNode@2@XZ
       4109 100C 00162760 ?getParentNode@DOMCDATASectionImpl@xercesc_2_8@@UBEPAVDOMNode@2@XZ
       4110 100D 001ADF90 ?getParentNode@DOMChildNode@xercesc_2_8@@QBEPAVDOMNode@2@PBV32@@Z
       4111 100E 00162760 ?getParentNode@DOMCommentImpl@xercesc_2_8@@UBEPAVDOMNode@2@XZ
       4112 100F 001149A0 ?getParentNode@DOMDocumentFragmentImpl@xercesc_2_8@@UBEPAVDOMNode@2@XZ
       4113 1010 001149A0 ?getParentNode@DOMDocumentImpl@xercesc_2_8@@UBEPAVDOMNode@2@XZ
       4114 1011 00162760 ?getParentNode@DOMDocumentTypeImpl@xercesc_2_8@@UBEPAVDOMNode@2@XZ
       4115 1012 00162760 ?getParentNode@DOMElementImpl@xercesc_2_8@@UBEPAVDOMNode@2@XZ
       4116 1013 001149A0 ?getParentNode@DOMEntityImpl@xercesc_2_8@@UBEPAVDOMNode@2@XZ
       4117 1014 00162760 ?getParentNode@DOMEntityReferenceImpl@xercesc_2_8@@UBEPAVDOMNode@2@XZ
       4118 1015 001149A0 ?getParentNode@DOMNodeImpl@xercesc_2_8@@QBEPAVDOMNode@2@XZ
       4119 1016 001149A0 ?getParentNode@DOMNotationImpl@xercesc_2_8@@UBEPAVDOMNode@2@XZ
       4120 1017 00162760 ?getParentNode@DOMProcessingInstructionImpl@xercesc_2_8@@UBEPAVDOMNode@2@XZ
       4121 1018 00162760 ?getParentNode@DOMTextImpl@xercesc_2_8@@UBEPAVDOMNode@2@XZ
       4122 1019 001B7C60 ?getParentNode@DOMTreeWalkerImpl@xercesc_2_8@@IAEPAVDOMNode@2@PAV32@@Z
       4123 101A 000F1380 ?getParseContext@RegxParser@xercesc_2_8@@QBEGXZ
       4124 101B 000F75D0 ?getParseInProgress@AbstractDOMParser@xercesc_2_8@@IBE_NXZ
       4125 101C 0016B5D0 ?getParticle@XSComplexTypeDefinition@xercesc_2_8@@QBEPAVXSParticle@2@XZ
       4126 101D 00158400 ?getParticles@XSModelGroup@xercesc_2_8@@QBEPAV?$RefVectorOf@VXSParticle@xercesc_2_8@@@2@XZ
       4127 101E 00102B80 ?getPassword@XMLURL@xercesc_2_8@@QBEPB_WXZ
       4128 101F 00105BC0 ?getPath@XMLURL@xercesc_2_8@@QBEPB_WXZ
       4129 1020 00158400 ?getPath@XMLUri@xercesc_2_8@@QBEPB_WXZ
       4130 1021 001B7290 ?getPattern@DatatypeValidator@xercesc_2_8@@IBEPB_WXZ
       4131 1022 00168620 ?getPooledString@DOMDocumentImpl@xercesc_2_8@@QAEPB_WPB_W@Z
       4132 1023 000D6970 ?getPort@XMLUri@xercesc_2_8@@QBEHXZ
       4133 1024 000EEBF0 ?getPortNum@XMLURL@xercesc_2_8@@QBEIXZ
       4134 1025 001149A0 ?getPrefix@DOMAttrImpl@xercesc_2_8@@UBEPB_WXZ
       4135 1026 0011FC60 ?getPrefix@DOMAttrNSImpl@xercesc_2_8@@UBEPB_WXZ
       4136 1027 001149A0 ?getPrefix@DOMCDATASectionImpl@xercesc_2_8@@UBEPB_WXZ
       4137 1028 001149A0 ?getPrefix@DOMCommentImpl@xercesc_2_8@@UBEPB_WXZ
       4138 1029 001149A0 ?getPrefix@DOMDocumentFragmentImpl@xercesc_2_8@@UBEPB_WXZ
       4139 102A 001149A0 ?getPrefix@DOMDocumentImpl@xercesc_2_8@@UBEPB_WXZ
       4140 102B 001149A0 ?getPrefix@DOMDocumentTypeImpl@xercesc_2_8@@UBEPB_WXZ
       4141 102C 001149A0 ?getPrefix@DOMElementImpl@xercesc_2_8@@UBEPB_WXZ
       4142 102D 000E1020 ?getPrefix@DOMElementNSImpl@xercesc_2_8@@UBEPB_WXZ
       4143 102E 001149A0 ?getPrefix@DOMEntityImpl@xercesc_2_8@@UBEPB_WXZ
       4144 102F 001149A0 ?getPrefix@DOMEntityReferenceImpl@xercesc_2_8@@UBEPB_WXZ
       4145 1030 001149A0 ?getPrefix@DOMNodeImpl@xercesc_2_8@@QBEPB_WXZ
       4146 1031 001149A0 ?getPrefix@DOMNotationImpl@xercesc_2_8@@UBEPB_WXZ
       4147 1032 001149A0 ?getPrefix@DOMProcessingInstructionImpl@xercesc_2_8@@UBEPB_WXZ
       4148 1033 001149A0 ?getPrefix@DOMTextImpl@xercesc_2_8@@UBEPB_WXZ
       4149 1034 00105BC0 ?getPrefix@QName@xercesc_2_8@@QAEPA_WXZ
       4150 1035 00105BC0 ?getPrefix@QName@xercesc_2_8@@QBEPB_WXZ
       4151 1036 0014FB50 ?getPrefix@TraverseSchema@xercesc_2_8@@AAEPB_WQB_W@Z
       4152 1037 000F1600 ?getPrefix@XMLAttr@xercesc_2_8@@QBEPB_WXZ
       4153 1038 000F3170 ?getPrefixColonPos@ElemStack@xercesc_2_8@@QBEHXZ
       4154 1039 000F3140 ?getPrefixForId@ElemStack@xercesc_2_8@@QBEPB_WI@Z
       4155 103A 000F4800 ?getPrefixForId@XMLScanner@xercesc_2_8@@QBEPB_WI@Z
       4156 103B 000F3130 ?getPrefixId@ElemStack@xercesc_2_8@@QBEIQB_W@Z
       4157 103C 000F47F0 ?getPrefixId@XMLScanner@xercesc_2_8@@QBEIQB_W@Z
       4158 103D 000F37D0 ?getPreprocessed@ComplexTypeInfo@xercesc_2_8@@QBE_NXZ
       4159 103E 001149A0 ?getPreviousSibling@DOMAttrImpl@xercesc_2_8@@UBEPAVDOMNode@2@XZ
       4160 103F 001B8FA0 ?getPreviousSibling@DOMCDATASectionImpl@xercesc_2_8@@UBEPAVDOMNode@2@XZ
       4161 1040 001ADFB0 ?getPreviousSibling@DOMChildNode@xercesc_2_8@@QBEPAVDOMNode@2@PBV32@@Z
       4162 1041 001B9F40 ?getPreviousSibling@DOMCommentImpl@xercesc_2_8@@UBEPAVDOMNode@2@XZ
       4163 1042 001149A0 ?getPreviousSibling@DOMDocumentFragmentImpl@xercesc_2_8@@UBEPAVDOMNode@2@XZ
       4164 1043 001149A0 ?getPreviousSibling@DOMDocumentImpl@xercesc_2_8@@UBEPAVDOMNode@2@XZ
       4165 1044 001B8FA0 ?getPreviousSibling@DOMDocumentTypeImpl@xercesc_2_8@@UBEPAVDOMNode@2@XZ
       4166 1045 001B8FA0 ?getPreviousSibling@DOMElementImpl@xercesc_2_8@@UBEPAVDOMNode@2@XZ
       4167 1046 001149A0 ?getPreviousSibling@DOMEntityImpl@xercesc_2_8@@UBEPAVDOMNode@2@XZ
       4168 1047 001B8FA0 ?getPreviousSibling@DOMEntityReferenceImpl@xercesc_2_8@@UBEPAVDOMNode@2@XZ
       4169 1048 001149A0 ?getPreviousSibling@DOMNodeImpl@xercesc_2_8@@QBEPAVDOMNode@2@XZ
       4170 1049 001149A0 ?getPreviousSibling@DOMNotationImpl@xercesc_2_8@@UBEPAVDOMNode@2@XZ
       4171 104A 001B9F40 ?getPreviousSibling@DOMProcessingInstructionImpl@xercesc_2_8@@UBEPAVDOMNode@2@XZ
       4172 104B 001B9F40 ?getPreviousSibling@DOMTextImpl@xercesc_2_8@@UBEPAVDOMNode@2@XZ
       4173 104C 001B7D50 ?getPreviousSibling@DOMTreeWalkerImpl@xercesc_2_8@@IAEPAVDOMNode@2@PAV32@@Z
       4174 104D 000F1310 ?getPreviousWordType@RegularExpression@xercesc_2_8@@AAEGQB_WHHH@Z
       4175 104E 000F1390 ?getPrimitiveType@XSSimpleTypeDefinition@xercesc_2_8@@QAEPAV12@XZ
       4176 104F 00158400 ?getProcessContents@XSWildcard@xercesc_2_8@@QBE?AW4PROCESS_CONTENTS@12@XZ
       4177 1050 0014F390 ?getProcessed@SchemaInfo@xercesc_2_8@@QBE_NXZ
       4178 1051 0011FC70 ?getProhibitedSubstitutions@XSComplexTypeDefinition@xercesc_2_8@@QBEFXZ
       4179 1052 001B6890 ?getProperty@DOMBuilderImpl@xercesc_2_8@@UBEPAXQB_W@Z
       4180 1053 001BE0F0 ?getProperty@SAX2XMLReaderImpl@xercesc_2_8@@UBEPAXQB_W@Z
       4181 1054 0017E9F0 ?getProtoType@AbstractNumericFacetValidator@xercesc_2_8@@UBEPAVXProtoType@2@XZ
       4182 1055 001BB9B0 ?getProtoType@AbstractNumericValidator@xercesc_2_8@@UBEPAVXProtoType@2@XZ
       4183 1056 001806F0 ?getProtoType@AbstractStringValidator@xercesc_2_8@@UBEPAVXProtoType@2@XZ
       4184 1057 00178130 ?getProtoType@AnySimpleTypeDatatypeValidator@xercesc_2_8@@UBEPAVXProtoType@2@XZ
       4185 1058 00174F10 ?getProtoType@AnyURIDatatypeValidator@xercesc_2_8@@UBEPAVXProtoType@2@XZ
       4186 1059 0017A820 ?getProtoType@Base64BinaryDatatypeValidator@xercesc_2_8@@UBEPAVXProtoType@2@XZ
       4187 105A 001785A0 ?getProtoType@BooleanDatatypeValidator@xercesc_2_8@@UBEPAVXProtoType@2@XZ
       4188 105B 0011D6E0 ?getProtoType@ComplexTypeInfo@xercesc_2_8@@UBEPAVXProtoType@2@XZ
       4189 105C 0012C500 ?getProtoType@ContentSpecNode@xercesc_2_8@@UBEPAVXProtoType@2@XZ
       4190 105D 0011B080 ?getProtoType@DTDAttDef@xercesc_2_8@@UBEPAVXProtoType@2@XZ
       4191 105E 00142150 ?getProtoType@DTDAttDefList@xercesc_2_8@@UBEPAVXProtoType@2@XZ
       4192 105F 00116860 ?getProtoType@DTDElementDecl@xercesc_2_8@@UBEPAVXProtoType@2@XZ
       4193 1060 00117340 ?getProtoType@DTDEntityDecl@xercesc_2_8@@UBEPAVXProtoType@2@XZ
       4194 1061 00158470 ?getProtoType@DTDGrammar@xercesc_2_8@@UBEPAVXProtoType@2@XZ
       4195 1062 0012B620 ?getProtoType@DatatypeValidator@xercesc_2_8@@UBEPAVXProtoType@2@XZ
       4196 1063 0012ED70 ?getProtoType@DatatypeValidatorFactory@xercesc_2_8@@UBEPAVXProtoType@2@XZ
       4197 1064 00177FD0 ?getProtoType@DateDatatypeValidator@xercesc_2_8@@UBEPAVXProtoType@2@XZ
       4198 1065 001731A0 ?getProtoType@DateTimeDatatypeValidator@xercesc_2_8@@UBEPAVXProtoType@2@XZ
       4199 1066 001BB720 ?getProtoType@DateTimeValidator@xercesc_2_8@@UBEPAVXProtoType@2@XZ
       4200 1067 00175AC0 ?getProtoType@DayDatatypeValidator@xercesc_2_8@@UBEPAVXProtoType@2@XZ
       4201 1068 00177C00 ?getProtoType@DecimalDatatypeValidator@xercesc_2_8@@UBEPAVXProtoType@2@XZ
       4202 1069 001748A0 ?getProtoType@DoubleDatatypeValidator@xercesc_2_8@@UBEPAVXProtoType@2@XZ
       4203 106A 00175350 ?getProtoType@DurationDatatypeValidator@xercesc_2_8@@UBEPAVXProtoType@2@XZ
       4204 106B 00175850 ?getProtoType@ENTITYDatatypeValidator@xercesc_2_8@@UBEPAVXProtoType@2@XZ
       4205 106C 0017A490 ?getProtoType@FloatDatatypeValidator@xercesc_2_8@@UBEPAVXProtoType@2@XZ
       4206 106D 0011B750 ?getProtoType@Grammar@xercesc_2_8@@UBEPAVXProtoType@2@XZ
       4207 106E 00174070 ?getProtoType@HexBinaryDatatypeValidator@xercesc_2_8@@UBEPAVXProtoType@2@XZ
       4208 106F 00111250 ?getProtoType@IC_Field@xercesc_2_8@@UBEPAVXProtoType@2@XZ
       4209 1070 00182DA0 ?getProtoType@IC_Key@xercesc_2_8@@UBEPAVXProtoType@2@XZ
       4210 1071 00183050 ?getProtoType@IC_KeyRef@xercesc_2_8@@UBEPAVXProtoType@2@XZ
       4211 1072 00182C60 ?getProtoType@IC_Selector@xercesc_2_8@@UBEPAVXProtoType@2@XZ
       4212 1073 00182EE0 ?getProtoType@IC_Unique@xercesc_2_8@@UBEPAVXProtoType@2@XZ
       4213 1074 00134570 ?getProtoType@IDDatatypeValidator@xercesc_2_8@@UBEPAVXProtoType@2@XZ
       4214 1075 001736A0 ?getProtoType@IDREFDatatypeValidator@xercesc_2_8@@UBEPAVXProtoType@2@XZ
       4215 1076 0013D430 ?getProtoType@IdentityConstraint@xercesc_2_8@@UBEPAVXProtoType@2@XZ
       4216 1077 0011B400 ?getProtoType@KVStringPair@xercesc_2_8@@UBEPAVXProtoType@2@XZ
       4217 1078 00179870 ?getProtoType@ListDatatypeValidator@xercesc_2_8@@UBEPAVXProtoType@2@XZ
       4218 1079 00173410 ?getProtoType@MonthDatatypeValidator@xercesc_2_8@@UBEPAVXProtoType@2@XZ
       4219 107A 00173DE0 ?getProtoType@MonthDayDatatypeValidator@xercesc_2_8@@UBEPAVXProtoType@2@XZ
       4220 107B 00173B60 ?getProtoType@NCNameDatatypeValidator@xercesc_2_8@@UBEPAVXProtoType@2@XZ
       4221 107C 001789F0 ?getProtoType@NOTATIONDatatypeValidator@xercesc_2_8@@UBEPAVXProtoType@2@XZ
       4222 107D 00175D20 ?getProtoType@NameDatatypeValidator@xercesc_2_8@@UBEPAVXProtoType@2@XZ
       4223 107E 00113A70 ?getProtoType@QName@xercesc_2_8@@UBEPAVXProtoType@2@XZ
       4224 107F 00172E00 ?getProtoType@QNameDatatypeValidator@xercesc_2_8@@UBEPAVXProtoType@2@XZ
       4225 1080 0010F670 ?getProtoType@SchemaAttDef@xercesc_2_8@@UBEPAVXProtoType@2@XZ
       4226 1081 0013E990 ?getProtoType@SchemaAttDefList@xercesc_2_8@@UBEPAVXProtoType@2@XZ
       4227 1082 00114580 ?getProtoType@SchemaElementDecl@xercesc_2_8@@UBEPAVXProtoType@2@XZ
       4228 1083 00134DA0 ?getProtoType@SchemaGrammar@xercesc_2_8@@UBEPAVXProtoType@2@XZ
       4229 1084 001357B0 ?getProtoType@StringDatatypeValidator@xercesc_2_8@@UBEPAVXProtoType@2@XZ
       4230 1085 00179BF0 ?getProtoType@TimeDatatypeValidator@xercesc_2_8@@UBEPAVXProtoType@2@XZ
       4231 1086 00105260 ?getProtoType@UnionDatatypeValidator@xercesc_2_8@@UBEPAVXProtoType@2@XZ
       4232 1087 001769E0 ?getProtoType@XMLAbstractDoubleFloat@xercesc_2_8@@UBEPAVXProtoType@2@XZ
       4233 1088 00118960 ?getProtoType@XMLAttDef@xercesc_2_8@@UBEPAVXProtoType@2@XZ
       4234 1089 001149B0 ?getProtoType@XMLAttDefList@xercesc_2_8@@UBEPAVXProtoType@2@XZ
       4235 108A 001ADA20 ?getProtoType@XMLBigDecimal@xercesc_2_8@@UBEPAVXProtoType@2@XZ
       4236 108B 001578B0 ?getProtoType@XMLDTDDescription@xercesc_2_8@@UBEPAVXProtoType@2@XZ
       4237 108C 00159550 ?getProtoType@XMLDTDDescriptionImpl@xercesc_2_8@@UBEPAVXProtoType@2@XZ
       4238 108D 0017D180 ?getProtoType@XMLDateTime@xercesc_2_8@@UBEPAVXProtoType@2@XZ
       4239 108E 00175070 ?getProtoType@XMLDouble@xercesc_2_8@@UBEPAVXProtoType@2@XZ
       4240 108F 00102EB0 ?getProtoType@XMLElementDecl@xercesc_2_8@@UBEPAVXProtoType@2@XZ
       4241 1090 001177A0 ?getProtoType@XMLEntityDecl@xercesc_2_8@@UBEPAVXProtoType@2@XZ
       4242 1091 001738A0 ?getProtoType@XMLFloat@xercesc_2_8@@UBEPAVXProtoType@2@XZ
       4243 1092 0011F3C0 ?getProtoType@XMLGrammarDescription@xercesc_2_8@@UBEPAVXProtoType@2@XZ
       4244 1093 0011DD70 ?getProtoType@XMLNotationDecl@xercesc_2_8@@UBEPAVXProtoType@2@XZ
       4245 1094 0017ED50 ?getProtoType@XMLNumber@xercesc_2_8@@UBEPAVXProtoType@2@XZ
       4246 1095 00114A00 ?getProtoType@XMLRefInfo@xercesc_2_8@@UBEPAVXProtoType@2@XZ
       4247 1096 0011BB40 ?getProtoType@XMLSchemaDescription@xercesc_2_8@@UBEPAVXProtoType@2@XZ
       4248 1097 00159230 ?getProtoType@XMLSchemaDescriptionImpl@xercesc_2_8@@UBEPAVXProtoType@2@XZ
       4249 1098 00116CA0 ?getProtoType@XMLStringPool@xercesc_2_8@@UBEPAVXProtoType@2@XZ
       4250 1099 000FB660 ?getProtoType@XMLUri@xercesc_2_8@@UBEPAVXProtoType@2@XZ
       4251 109A 0017F450 ?getProtoType@XSAnnotation@xercesc_2_8@@UBEPAVXProtoType@2@XZ
       4252 109B 001351F0 ?getProtoType@XercesAttGroupInfo@xercesc_2_8@@UBEPAVXProtoType@2@XZ
       4253 109C 00134190 ?getProtoType@XercesGroupInfo@xercesc_2_8@@UBEPAVXProtoType@2@XZ
       4254 109D 00128800 ?getProtoType@XercesLocationPath@xercesc_2_8@@UBEPAVXProtoType@2@XZ
       4255 109E 00128330 ?getProtoType@XercesNodeTest@xercesc_2_8@@UBEPAVXProtoType@2@XZ
       4256 109F 00128610 ?getProtoType@XercesStep@xercesc_2_8@@UBEPAVXProtoType@2@XZ
       4257 10A0 001299A0 ?getProtoType@XercesXPath@xercesc_2_8@@UBEPAVXProtoType@2@XZ
       4258 10A1 001755C0 ?getProtoType@YearDatatypeValidator@xercesc_2_8@@UBEPAVXProtoType@2@XZ
       4259 10A2 00174BF0 ?getProtoType@YearMonthDatatypeValidator@xercesc_2_8@@UBEPAVXProtoType@2@XZ
       4260 10A3 000D6990 ?getProtocol@XMLURL@xercesc_2_8@@QBE?AW4Protocols@12@XZ
       4261 10A4 000EEC10 ?getProtocolName@XMLURL@xercesc_2_8@@QBEPB_WXZ
       4262 10A5 000F4B70 ?getProvided@XMLAttDef@xercesc_2_8@@QBE_NXZ
       4263 10A6 0016B5D0 ?getPublicId@DOMDocumentTypeImpl@xercesc_2_8@@UBEPB_WXZ
       4264 10A7 0011FC20 ?getPublicId@DOMEntityImpl@xercesc_2_8@@UBEPB_WXZ
       4265 10A8 00102B80 ?getPublicId@DOMNotationImpl@xercesc_2_8@@UBEPB_WXZ
       4266 10A9 000ED3C0 ?getPublicId@InputSource@xercesc_2_8@@UBEPB_WXZ
       4267 10AA 0011A150 ?getPublicId@ReaderMgr@xercesc_2_8@@UBEPB_WXZ
       4268 10AB 00105BC0 ?getPublicId@SAXParseException@xercesc_2_8@@QBEPB_WXZ
       4269 10AC 001C2B30 ?getPublicId@Wrapper4DOMInputSource@xercesc_2_8@@UBEPB_WXZ
       4270 10AD 00158400 ?getPublicId@XMLEntityDecl@xercesc_2_8@@QBEPB_WXZ
       4271 10AE 00102B80 ?getPublicId@XMLNotationDecl@xercesc_2_8@@QBEPB_WXZ
       4272 10AF 000F2650 ?getPublicId@XMLReader@xercesc_2_8@@QBEPB_WXZ
       4273 10B0 000D6970 ?getPublicId@XMLResourceIdentifier@xercesc_2_8@@QBEPB_WXZ
       4274 10B1 00102B80 ?getPublicId@XSDLocator@xercesc_2_8@@UBEPB_WXZ
       4275 10B2 001C0C00 ?getPublicId@XSNotationDeclaration@xercesc_2_8@@QAEPB_WXZ
       4276 10B3 000F2BF0 ?getQName@ReaderMgr@xercesc_2_8@@QAE_NAAVXMLBuffer@2@PAH@Z
       4277 10B4 0011DF50 ?getQName@VecAttributesImpl@xercesc_2_8@@UBEPB_WI@Z
       4278 10B5 00117200 ?getQName@XMLAttr@xercesc_2_8@@QBEPB_WXZ
       4279 10B6 00112070 ?getQName@XMLReader@xercesc_2_8@@QAE_NAAVXMLBuffer@2@PAH@Z
       4280 10B7 0011FC20 ?getQuery@XMLURL@xercesc_2_8@@QBEPB_WXZ
       4281 10B8 000D6990 ?getQueryString@XMLUri@xercesc_2_8@@QBEPB_WXZ
       4282 10B9 00185FC0 ?getQuotedString@DTDScanner@xercesc_2_8@@AAE_NAAVXMLBuffer@2@@Z
       4283 10BA 00109730 ?getQuotedString@XMLScanner@xercesc_2_8@@AAE_NAAVXMLBuffer@2@@Z
       4284 10BB 0013C410 ?getRange@RangeTokenMap@xercesc_2_8@@IAEPAVRangeToken@2@QB_W_N@Z
       4285 10BC 000F0A30 ?getRange@TokenFactory@xercesc_2_8@@QAEPAVRangeToken@2@QB_W_N@Z
       4286 10BD 000D6970 ?getRangeMap@RangeTokenMap@xercesc_2_8@@IBEPAV?$RefHashTableOf@VRangeFactory@xercesc_2_8@@@2@XZ
       4287 10BE 0010F880 ?getRangeToken@RangeTokenElemMap@xercesc_2_8@@QBEPAVRangeToken@2@_N@Z
       4288 10BF 000E4210 ?getRanges@DOMDocumentImpl@xercesc_2_8@@UBEPAV?$RefVectorOf@VDOMRangeImpl@xercesc_2_8@@@2@XZ
       4289 10C0 001C27E0 ?getRawBuffer@MemBufFormatTarget@xercesc_2_8@@QBEPBEXZ
       4290 10C1 000ECD70 ?getRawBuffer@XMLBuffer@xercesc_2_8@@QAEPA_WXZ
       4291 10C2 000ECD70 ?getRawBuffer@XMLBuffer@xercesc_2_8@@QBEPB_WXZ
       4292 10C3 000D6990 ?getRawData@XMLAbstractDoubleFloat@xercesc_2_8@@UBEPA_WXZ
       4293 10C4 00105BC0 ?getRawData@XMLBigDecimal@xercesc_2_8@@UBEPA_WXZ
       4294 10C5 0015C6B0 ?getRawData@XMLBigInteger@xercesc_2_8@@QBEPA_WXZ
       4295 10C6 0017B3D0 ?getRawData@XMLDateTime@xercesc_2_8@@UBEPA_WXZ
       4296 10C7 001135F0 ?getRawName@QName@xercesc_2_8@@QAEPA_WXZ
       4297 10C8 001135F0 ?getRawName@QName@xercesc_2_8@@QBEPB_WXZ
       4298 10C9 00119EA0 ?getReaderDepth@ReaderMgr@xercesc_2_8@@QBEIXZ
       4299 10CA 000F46C0 ?getReaderMgr@XMLScanner@xercesc_2_8@@QBEPBVReaderMgr@2@XZ
       4300 10CB 000ED3C0 ?getReaderMgr@XMLValidator@xercesc_2_8@@IAEPAVReaderMgr@2@XZ
       4301 10CC 000ED3C0 ?getReaderMgr@XMLValidator@xercesc_2_8@@IBEPBVReaderMgr@2@XZ
       4302 10CD 000D6970 ?getReaderNum@EndOfEntityException@xercesc_2_8@@QBEIXZ
       4303 10CE 000F2660 ?getReaderNum@XMLReader@xercesc_2_8@@QBEIXZ
       4304 10CF 000E1020 ?getRecursingAnonTypes@SchemaInfo@xercesc_2_8@@QBEPAV?$ValueVectorOf@PBVDOMElement@xercesc_2_8@@@2@XZ
       4305 10D0 000F20A0 ?getRecursingTypeNames@SchemaInfo@xercesc_2_8@@QBEPAV?$ValueVectorOf@PB_W@2@XZ
       4306 10D1 0014FED0 ?getRedefineNewTypeName@TraverseSchema@xercesc_2_8@@AAEXQB_WHAAVXMLBuffer@2@@Z
       4307 10D2 000F2670 ?getRefFrom@XMLReader@xercesc_2_8@@QBE?AW4RefFrom@12@XZ
       4308 10D3 00158400 ?getRefKey@XSIDCDefinition@xercesc_2_8@@QBEPAV12@XZ
       4309 10D4 0015C6B0 ?getRefName@XMLRefInfo@xercesc_2_8@@QBEPB_WXZ
       4310 10D5 00102B80 ?getRefNo@ConditionOp@xercesc_2_8@@UBEHXZ
       4311 10D6 00102750 ?getRefNo@Op@xercesc_2_8@@UBEHXZ
       4312 10D7 000F2FD0 ?getReferenceEscaped@ElemStack@xercesc_2_8@@QBE_NXZ
       4313 10D8 000ED3C0 ?getReferenceNo@ConditionToken@xercesc_2_8@@UBEHXZ
       4314 10D9 000ED3C0 ?getReferenceNo@StringToken@xercesc_2_8@@UBEHXZ
       4315 10DA 001149A0 ?getReferenceNo@Token@xercesc_2_8@@UBEHXZ
       4316 10DB 0011E8F0 ?getReferencedGrammarEnumerator@GrammarResolver@xercesc_2_8@@QBE?AV?$RefHashTableOfEnumerator@VGrammar@xercesc_2_8@@@2@XZ
       4317 10DC 00105BC0 ?getRegBasedAuthority@XMLUri@xercesc_2_8@@QBEPB_WXZ
       4318 10DD 0011FC60 ?getRegex@DatatypeValidator@xercesc_2_8@@IBEPAVRegularExpression@2@XZ
       4319 10DE 00105BC0 ?getRelatedData@DOMErrorImpl@xercesc_2_8@@UBEPAXXZ
       4320 10DF 001149A0 ?getRelatedException@DOMErrorImpl@xercesc_2_8@@UBEPAXXZ
       4321 10E0 001C1570 ?getRequired@XSAttributeDeclaration@xercesc_2_8@@QBE_NXZ
       4322 10E1 000F18B0 ?getRequired@XSAttributeUse@xercesc_2_8@@QBE_NXZ
       4323 10E2 00164C30 ?getResourceIdentifierType@XMLResourceIdentifier@xercesc_2_8@@QBE?AW4ResourceIdentifierType@12@XZ
       4324 10E3 0012B1F0 ?getRetVal@XMLDateTime@xercesc_2_8@@CAHHH@Z
       4325 10E4 000D6970 ?getRoot@DOMNodeIteratorImpl@xercesc_2_8@@UAEPAVDOMNode@2@XZ
       4326 10E5 00102B80 ?getRoot@DOMTreeWalkerImpl@xercesc_2_8@@UAEPAVDOMNode@2@XZ
       4327 10E6 0011FC20 ?getRoot@SchemaInfo@xercesc_2_8@@QBEPBVDOMElement@2@XZ
       4328 10E7 000D6990 ?getRootElemId@DTDGrammar@xercesc_2_8@@QBEIXZ
       4329 10E8 001B6FF0 ?getRootGrammar@DOMBuilderImpl@xercesc_2_8@@UBEPAVGrammar@2@XZ
       4330 10E9 001BBBA0 ?getRootGrammar@SAX2XMLReaderImpl@xercesc_2_8@@UAEPAVGrammar@2@XZ
       4331 10EA 000F5820 ?getRootGrammar@SAXParser@xercesc_2_8@@QAEPAVGrammar@2@XZ
       4332 10EB 000F47B0 ?getRootGrammar@XMLScanner@xercesc_2_8@@QBEPAVGrammar@2@XZ
       4333 10EC 000F77E0 ?getRootGrammar@XercesDOMParser@xercesc_2_8@@QAEPAVGrammar@2@XZ
       4334 10ED 000ED3C0 ?getRootName@XMLDTDDescriptionImpl@xercesc_2_8@@UBEPB_WXZ
       4335 10EE 000709F0 ?getSawFatal@XSDDOMParser@xercesc_2_8@@QBE_NXZ
       4336 10EF 000ED3C0 ?getScale@XMLBigDecimal@xercesc_2_8@@QBEIXZ
       4337 10F0 000D6990 ?getScanner@AbstractDOMParser@xercesc_2_8@@IBEPAVXMLScanner@2@XZ
       4338 10F1 0012ABE0 ?getScanner@SAXParser@xercesc_2_8@@IBEABVXMLScanner@2@XZ
       4339 10F2 00102B80 ?getScanner@XMLValidator@xercesc_2_8@@IAEPAVXMLScanner@2@XZ
       4340 10F3 00102B80 ?getScanner@XMLValidator@xercesc_2_8@@IBEPBVXMLScanner@2@XZ
       4341 10F4 00102B80 ?getSchemaDefault@PSVIItem@xercesc_2_8@@QAEPB_WXZ
       4342 10F5 0016B5D0 ?getSchemaInformation@PSVIElement@xercesc_2_8@@QAEPAVXSModel@2@XZ
       4343 10F6 00102B80 ?getSchemaLocation@DOMConfigurationImpl@xercesc_2_8@@QBEPB_WXZ
       4344 10F7 0015C6B0 ?getSchemaLocation@XMLResourceIdentifier@xercesc_2_8@@QBEPB_WXZ
       4345 10F8 001C5A90 ?getSchemaNamespace@XSNamespaceItem@xercesc_2_8@@QAEPB_WXZ
       4346 10F9 000ED3C0 ?getSchemaNormalizedValue@PSVIItem@xercesc_2_8@@QAEPB_WXZ
       4347 10FA 000ED3C0 ?getSchemaType@DOMConfigurationImpl@xercesc_2_8@@QBEPB_WXZ
       4348 10FB 0015C6B0 ?getScheme@XMLUri@xercesc_2_8@@QBEPB_WXZ
       4349 10FC 0011FC20 ?getScope@XSAttributeDeclaration@xercesc_2_8@@QBE?AW4SCOPE@XSConstants@2@XZ
       4350 10FD 00158400 ?getScope@XSElementDeclaration@xercesc_2_8@@QBE?AW4SCOPE@XSConstants@2@XZ
       4351 10FE 0015C6B0 ?getScope@XercesGroupInfo@xercesc_2_8@@QBEHXZ
       4352 10FF 00102B80 ?getScopeCount@SchemaInfo@xercesc_2_8@@QBEHXZ
       4353 1100 00158400 ?getScopeDefined@ComplexTypeInfo@xercesc_2_8@@QBEHXZ
       4354 1101 00105BC0 ?getSecond@ContentSpecNode@xercesc_2_8@@QAEPAV12@XZ
       4355 1102 00105BC0 ?getSecond@ContentSpecNode@xercesc_2_8@@QBEPBV12@XZ
       4356 1103 001210E0 ?getSecurityManager@AbstractDOMParser@xercesc_2_8@@QBEPAVSecurityManager@2@XZ
       4357 1104 000F57B0 ?getSecurityManager@SAXParser@xercesc_2_8@@QBEPAVSecurityManager@2@XZ
       4358 1105 000F4770 ?getSecurityManager@XMLScanner@xercesc_2_8@@QBEPAVSecurityManager@2@XZ
       4359 1106 001B12D0 ?getSelectedNode@DOMRangeImpl@xercesc_2_8@@AAEPAVDOMNode@2@PAV32@H@Z
       4360 1107 000ED3C0 ?getSelector@IdentityConstraint@xercesc_2_8@@QBEPAVIC_Selector@2@XZ
       4361 1108 001C0F80 ?getSelectorStr@XSIDCDefinition@xercesc_2_8@@QAEPB_WXZ
       4362 1109 00170760 ?getSeverity@DOMErrorImpl@xercesc_2_8@@UBEFXZ
       4363 110A 00158400 ?getSign@XMLAbstractDoubleFloat@xercesc_2_8@@UBEHXZ
       4364 110B 000D6970 ?getSign@XMLBigDecimal@xercesc_2_8@@UBEHXZ
       4365 110C 00164C30 ?getSign@XMLBigInteger@xercesc_2_8@@QBEHXZ
       4366 110D 001149A0 ?getSign@XMLDateTime@xercesc_2_8@@UBEHXZ
       4367 110E 0011FC60 ?getSimpleType@XSComplexTypeDefinition@xercesc_2_8@@QBEPAVXSSimpleTypeDefinition@2@XZ
       4368 110F 000FE8C0 ?getSize@BinFileInputStream@xercesc_2_8@@QBEIXZ
       4369 1110 000ED3C0 ?getSize@BinMemInputStream@xercesc_2_8@@QBEIXZ
       4370 1111 001026C0 ?getSize@Op@xercesc_2_8@@UBEHXZ
       4371 1112 001029A0 ?getSize@UnionOp@xercesc_2_8@@UBEHXZ
       4372 1113 00121140 ?getSkipDTDValidation@AbstractDOMParser@xercesc_2_8@@QBE_NXZ
       4373 1114 000F58C0 ?getSkipDTDValidation@SAXParser@xercesc_2_8@@QBE_NXZ
       4374 1115 000F4850 ?getSkipDTDValidation@XMLScanner@xercesc_2_8@@QBE_NXZ
       4375 1116 000F2680 ?getSource@XMLReader@xercesc_2_8@@QBE?AW4Sources@12@XZ
       4376 1117 00118C50 ?getSpaces@ReaderMgr@xercesc_2_8@@QAEXAAVXMLBuffer@2@@Z
       4377 1118 00112260 ?getSpaces@XMLReader@xercesc_2_8@@QAE_NAAVXMLBuffer@2@@Z
       4378 1119 00164020 ?getSpecified@DOMAttrImpl@xercesc_2_8@@UBE_NXZ
       4379 111A 000F1610 ?getSpecified@XMLAttr@xercesc_2_8@@QBE_NXZ
       4380 111B 000EDF90 ?getSrcFile@OutOfMemoryException@xercesc_2_8@@QBEPBDXZ
       4381 111C 000EBEE0 ?getSrcFile@XMLException@xercesc_2_8@@QBEPBDXZ
       4382 111D 001149A0 ?getSrcLine@OutOfMemoryException@xercesc_2_8@@QBEIXZ
       4383 111E 000ED3C0 ?getSrcLine@XMLException@xercesc_2_8@@QBEIXZ
       4384 111F 001B7040 ?getSrcOffset@DOMBuilderImpl@xercesc_2_8@@UBEIXZ
       4385 1120 000F2C60 ?getSrcOffset@ReaderMgr@xercesc_2_8@@QBEIXZ
       4386 1121 001BBBF0 ?getSrcOffset@SAX2XMLReaderImpl@xercesc_2_8@@UBEIXZ
       4387 1122 000F5870 ?getSrcOffset@SAXParser@xercesc_2_8@@QBEIXZ
       4388 1123 00111C10 ?getSrcOffset@XMLReader@xercesc_2_8@@QBEIXZ
       4389 1124 000F46D0 ?getSrcOffset@XMLScanner@xercesc_2_8@@QBEIXZ
       4390 1125 000F7830 ?getSrcOffset@XercesDOMParser@xercesc_2_8@@QBEIXZ
       4391 1126 00168910 ?getStandalone@DOMDocumentImpl@xercesc_2_8@@UBE_NXZ
       4392 1127 000F46F0 ?getStandalone@XMLScanner@xercesc_2_8@@QBE_NXZ
       4393 1128 00121110 ?getStandardUriConformant@AbstractDOMParser@xercesc_2_8@@QBE_NXZ
       4394 1129 000F5800 ?getStandardUriConformant@SAXParser@xercesc_2_8@@QBE_NXZ
       4395 112A 000F37D0 ?getStandardUriConformant@XMLScanner@xercesc_2_8@@QBE_NXZ
       4396 112B 001AE690 ?getStartContainer@DOMRangeImpl@xercesc_2_8@@UBEPAVDOMNode@2@XZ
       4397 112C 001AE6C0 ?getStartOffset@DOMRangeImpl@xercesc_2_8@@UBEKXZ
       4398 112D 0010A2B0 ?getStartPos@Match@xercesc_2_8@@QBEHH@Z
       4399 112E 0010A500 ?getState@RegxParser@xercesc_2_8@@QBEGXZ
       4400 112F 00104720 ?getStep@XercesLocationPath@xercesc_2_8@@QBEPAVXercesStep@2@I@Z
       4401 1130 001046E0 ?getStepSize@XercesLocationPath@xercesc_2_8@@QBEIXZ
       4402 1131 000EDE20 ?getStorerLevel@XSerializeEngine@xercesc_2_8@@QBEGXZ
       4403 1132 001689F0 ?getStrictErrorChecking@DOMDocumentImpl@xercesc_2_8@@UBE_NXZ
       4404 1133 0011FC20 ?getString@Context@RegularExpression@xercesc_2_8@@QBEPB_WXZ
       4405 1134 00102B80 ?getString@StringToken@xercesc_2_8@@UBEPB_WXZ
       4406 1135 001149A0 ?getString@Token@xercesc_2_8@@UBEPB_WXZ
       4407 1136 00110150 ?getStringBegin@TokenFactory@xercesc_2_8@@QAEPAVToken@2@XZ
       4408 1137 000F2F40 ?getStringCount@XMLStringPool@xercesc_2_8@@UBEIXZ
       4409 1138 001A8BB0 ?getStringCount@XMLSynchronizedStringPool@xercesc_2_8@@UBEIXZ
       4410 1139 00110230 ?getStringEnd2@TokenFactory@xercesc_2_8@@QAEPAVToken@2@XZ
       4411 113A 001101C0 ?getStringEnd@TokenFactory@xercesc_2_8@@QAEPAVToken@2@XZ
       4412 113B 000D6970 ?getStringPool@GrammarResolver@xercesc_2_8@@QAEPAVXMLStringPool@2@XZ
       4413 113C 00101DE0 ?getStringPool@XSerializeEngine@xercesc_2_8@@QBEPAVXMLStringPool@2@XZ
       4414 113D 001616D0 ?getStringProperty@DOMTypeInfoImpl@xercesc_2_8@@UBEPB_WW4PSVIProperty@DOMPSVITypeInfo@2@@Z
       4415 113E 001B7290 ?getSubstitutionGroupAffiliation@XSElementDeclaration@xercesc_2_8@@QBEPAV12@XZ
       4416 113F 001C5A60 ?getSubstitutionGroupElem@SchemaElementDecl@xercesc_2_8@@QBEPAV12@XZ
       4417 1140 0011FC30 ?getSubstitutionGroupExclusions@XSElementDeclaration@xercesc_2_8@@QBEFXZ
       4418 1141 000E1020 ?getSystemId@DOMDocumentTypeImpl@xercesc_2_8@@UBEPB_WXZ
       4419 1142 000F1460 ?getSystemId@DOMEntityImpl@xercesc_2_8@@UBEPB_WXZ
       4420 1143 00105BC0 ?getSystemId@DOMNotationImpl@xercesc_2_8@@UBEPB_WXZ
       4421 1144 00102B80 ?getSystemId@InputSource@xercesc_2_8@@UBEPB_WXZ
       4422 1145 0011A180 ?getSystemId@ReaderMgr@xercesc_2_8@@UBEPB_WXZ
       4423 1146 00158400 ?getSystemId@SAXParseException@xercesc_2_8@@QBEPB_WXZ
       4424 1147 001C2B20 ?getSystemId@Wrapper4DOMInputSource@xercesc_2_8@@UBEPB_WXZ
       4425 1148 001149A0 ?getSystemId@XMLDTDDescription@xercesc_2_8@@UBEPB_WXZ
       4426 1149 0015C6B0 ?getSystemId@XMLDTDDescriptionImpl@xercesc_2_8@@UBEPB_WXZ
       4427 114A 000D6990 ?getSystemId@XMLEntityDecl@xercesc_2_8@@QBEPB_WXZ
       4428 114B 00105BC0 ?getSystemId@XMLNotationDecl@xercesc_2_8@@QBEPB_WXZ
       4429 114C 000F2690 ?getSystemId@XMLReader@xercesc_2_8@@QBEPB_WXZ
       4430 114D 0015C6B0 ?getSystemId@XMLResourceIdentifier@xercesc_2_8@@QBEPB_WXZ
       4431 114E 0011FC20 ?getSystemId@XSAnnotation@xercesc_2_8@@QBEPB_WXZ
       4432 114F 000ED3C0 ?getSystemId@XSDLocator@xercesc_2_8@@UBEPB_WXZ
       4433 1150 001C0BF0 ?getSystemId@XSNotationDeclaration@xercesc_2_8@@QAEPB_WXZ
       4434 1151 0011FC60 ?getTagName@DOMElementImpl@xercesc_2_8@@UBEPB_WXZ
       4435 1152 000D6990 ?getTarget@DOMProcessingInstructionImpl@xercesc_2_8@@UBEPB_WXZ
       4436 1153 000ED3C0 ?getTargetNSURI@SchemaInfo@xercesc_2_8@@QBEHXZ
       4437 1154 000D6990 ?getTargetNSURIString@SchemaInfo@xercesc_2_8@@QBEQB_WXZ
       4438 1155 0011B590 ?getTargetNamespace@DTDGrammar@xercesc_2_8@@UBEPB_WXZ
       4439 1156 000D6970 ?getTargetNamespace@SchemaGrammar@xercesc_2_8@@UBEPB_WXZ
       4440 1157 000ED3C0 ?getTargetNamespace@XMLSchemaDescriptionImpl@xercesc_2_8@@UBEPB_WXZ
       4441 1158 00105BC0 ?getTermType@XSParticle@xercesc_2_8@@QBE?AW4TERM_TYPE@12@XZ
       4442 1159 00166700 ?getTextContent@DOMAttrImpl@xercesc_2_8@@UBEPB_WXZ
       4443 115A 00166700 ?getTextContent@DOMCDATASectionImpl@xercesc_2_8@@UBEPB_WXZ
       4444 115B 00166700 ?getTextContent@DOMCommentImpl@xercesc_2_8@@UBEPB_WXZ
       4445 115C 00166700 ?getTextContent@DOMDocumentFragmentImpl@xercesc_2_8@@UBEPB_WXZ
       4446 115D 00166700 ?getTextContent@DOMDocumentImpl@xercesc_2_8@@UBEPB_WXZ
       4447 115E 00166700 ?getTextContent@DOMDocumentTypeImpl@xercesc_2_8@@UBEPB_WXZ
       4448 115F 00166700 ?getTextContent@DOMElementImpl@xercesc_2_8@@UBEPB_WXZ
       4449 1160 00166700 ?getTextContent@DOMEntityImpl@xercesc_2_8@@UBEPB_WXZ
       4450 1161 00166700 ?getTextContent@DOMEntityReferenceImpl@xercesc_2_8@@UBEPB_WXZ
       4451 1162 00163910 ?getTextContent@DOMNodeImpl@xercesc_2_8@@QBEPB_WPA_WAAI@Z
       4452 1163 00163890 ?getTextContent@DOMNodeImpl@xercesc_2_8@@QBEPB_WXZ
       4453 1164 00166700 ?getTextContent@DOMNotationImpl@xercesc_2_8@@UBEPB_WXZ
       4454 1165 00166700 ?getTextContent@DOMProcessingInstructionImpl@xercesc_2_8@@UBEPB_WXZ
       4455 1166 00166700 ?getTextContent@DOMTextImpl@xercesc_2_8@@UBEPB_WXZ
       4456 1167 001641A0 ?getTextValue@DOMAttrImpl@xercesc_2_8@@ABEXPAVDOMNode@2@AAVXMLBuffer@2@@Z
       4457 1168 000F26A0 ?getThrowAtEnd@XMLReader@xercesc_2_8@@QBE_NXZ
       4458 1169 00103960 ?getThrowEOE@ReaderMgr@xercesc_2_8@@QBE_NXZ
       4459 116A 0017BD50 ?getTime@XMLDateTime@xercesc_2_8@@AAEXXZ
       4460 116B 0017CDF0 ?getTimeCanonicalRepresentation@XMLDateTime@xercesc_2_8@@QBEPA_WQAVMemoryManager@2@@Z
       4461 116C 0017C090 ?getTimeZone@XMLDateTime@xercesc_2_8@@AAEXH@Z
       4462 116D 001028A0 ?getToken@Op@xercesc_2_8@@UBEPBVToken@2@XZ
       4463 116E 00102B80 ?getToken@RangeOp@xercesc_2_8@@UBEPBVToken@2@XZ
       4464 116F 000ED3C0 ?getTokenFactory@RangeTokenMap@xercesc_2_8@@QBEPAVTokenFactory@2@XZ
       4465 1170 000F13B0 ?getTokenFactory@RegxParser@xercesc_2_8@@QBEPAVTokenFactory@2@XZ
       4466 1171 0013B5D0 ?getTokenForShorthand@ParserForXMLSchema@xercesc_2_8@@MAEPAVToken@2@H@Z
       4467 1172 00138F30 ?getTokenForShorthand@RegxParser@xercesc_2_8@@MAEPAVToken@2@H@Z
       4468 1173 00164C30 ?getTokenRegistry@RangeTokenMap@xercesc_2_8@@IBEPAV?$RefHashTableOf@VRangeTokenElemMap@xercesc_2_8@@@2@XZ
       4469 1174 00104410 ?getTokenType@Token@xercesc_2_8@@QBEGXZ
       4470 1175 00193E30 ?getTopLevelComponent@SchemaInfo@xercesc_2_8@@QAEPAVDOMElement@2@GQB_W0@Z
       4471 1176 00193D70 ?getTopLevelComponent@SchemaInfo@xercesc_2_8@@QAEPAVDOMElement@2@GQB_W0PAPAV12@@Z
       4472 1177 0015C6B0 ?getTotalDigit@XMLBigDecimal@xercesc_2_8@@QBEIXZ
       4473 1178 0015C6D0 ?getTotalDigit@XMLBigInteger@xercesc_2_8@@QBEHXZ
       4474 1179 000F4630 ?getTotalDigits@DecimalDatatypeValidator@xercesc_2_8@@QBEIXZ
       4475 117A 00102B80 ?getTranscoder@XMLFormatter@xercesc_2_8@@QBEPBVXMLTranscoder@2@XZ
       4476 117B 00105BC0 ?getTriggeringComponent@XMLSchemaDescriptionImpl@xercesc_2_8@@UBEPBVQName@2@XZ
       4477 117C 000ECBC0 ?getType@ArrayIndexOutOfBoundsException@xercesc_2_8@@UBEPB_WXZ
       4478 117D 00158400 ?getType@ContentSpecNode@xercesc_2_8@@QBE?AW4NodeTypes@12@XZ
       4479 117E 00102B80 ?getType@DOMErrorImpl@xercesc_2_8@@UBEPB_WXZ
       4480 117F 00158400 ?getType@DatatypeValidator@xercesc_2_8@@QBE?AW4ValidatorType@12@XZ
       4481 1180 000F2AF0 ?getType@EmptyStackException@xercesc_2_8@@UBEPB_WXZ
       4482 1181 000F0A50 ?getType@IC_Key@xercesc_2_8@@UBEFXZ
       4483 1182 001C6590 ?getType@IC_KeyRef@xercesc_2_8@@UBEFXZ
       4484 1183 001149A0 ?getType@IC_Unique@xercesc_2_8@@UBEFXZ
       4485 1184 000F4F80 ?getType@IOException@xercesc_2_8@@UBEPB_WXZ
       4486 1185 000EC760 ?getType@IllegalArgumentException@xercesc_2_8@@UBEPB_WXZ
       4487 1186 001032A0 ?getType@InvalidDatatypeFacetException@xercesc_2_8@@UBEPB_WXZ
       4488 1187 00103550 ?getType@InvalidDatatypeValueException@xercesc_2_8@@UBEPB_WXZ
       4489 1188 000ED700 ?getType@MalformedURLException@xercesc_2_8@@UBEPB_WXZ
       4490 1189 000EDA20 ?getType@NetAccessorException@xercesc_2_8@@UBEPB_WXZ
       4491 118A 000EC990 ?getType@NoSuchElementException@xercesc_2_8@@UBEPB_WXZ
       4492 118B 000ED3B0 ?getType@NullPointerException@xercesc_2_8@@UBEPB_WXZ
       4493 118C 000FBA40 ?getType@NumberFormatException@xercesc_2_8@@UBEPB_WXZ
       4494 118D 000EDF80 ?getType@OutOfMemoryException@xercesc_2_8@@QBEPB_WXZ
       4495 118E 0010A7F0 ?getType@ParseException@xercesc_2_8@@UBEPB_WXZ
       4496 118F 000EC520 ?getType@RuntimeException@xercesc_2_8@@UBEPB_WXZ
       4497 1190 0012AF80 ?getType@SchemaDateTimeException@xercesc_2_8@@UBEPB_WXZ
       4498 1191 000F2490 ?getType@TranscodingException@xercesc_2_8@@UBEPB_WXZ
       4499 1192 00125A10 ?getType@UTFDataFormatException@xercesc_2_8@@UBEPB_WXZ
       4500 1193 00105DF0 ?getType@UnexpectedEOFException@xercesc_2_8@@UBEPB_WXZ
       4501 1194 0011DFB0 ?getType@VecAttrListImpl@xercesc_2_8@@UBEPB_WI@Z
       4502 1195 0011E020 ?getType@VecAttrListImpl@xercesc_2_8@@UBEPB_WQB_W@Z
       4503 1196 0011DFB0 ?getType@VecAttributesImpl@xercesc_2_8@@UBEPB_WI@Z
       4504 1197 001C3020 ?getType@VecAttributesImpl@xercesc_2_8@@UBEPB_WQB_W0@Z
       4505 1198 001C3050 ?getType@VecAttributesImpl@xercesc_2_8@@UBEPB_WQB_W@Z
       4506 1199 00102B80 ?getType@XMLAbstractDoubleFloat@xercesc_2_8@@QBE?AW4LiteralType@12@XZ
       4507 119A 0015C6B0 ?getType@XMLAttDef@xercesc_2_8@@QBE?AW4AttTypes@12@XZ
       4508 119B 000D6970 ?getType@XMLAttr@xercesc_2_8@@QBE?AW4AttTypes@XMLAttDef@2@XZ
       4509 119C 000EC230 ?getType@XMLPlatformUtilsException@xercesc_2_8@@UBEPB_WXZ
       4510 119D 000F26B0 ?getType@XMLReader@xercesc_2_8@@QBE?AW4Types@12@XZ
       4511 119E 0013A790 ?getType@XMLUniCharacter@xercesc_2_8@@SAG_W@Z
       4512 119F 00128020 ?getType@XPathException@xercesc_2_8@@UBEPB_WXZ
       4513 11A0 000D6970 ?getType@XSObject@xercesc_2_8@@QBE?AW4COMPONENT_TYPE@XSConstants@2@XZ
       4514 11A1 000EDC50 ?getType@XSerializationException@xercesc_2_8@@UBEPB_WXZ
       4515 11A2 00104410 ?getType@XercesNodeTest@xercesc_2_8@@QBEFXZ
       4516 11A3 000F35E0 ?getTypeAnonymous@SchemaAttDef@xercesc_2_8@@QBE_NXZ
       4517 11A4 000F40D0 ?getTypeAnonymous@SchemaElementDecl@xercesc_2_8@@QBE_NXZ
       4518 11A5 00105BC0 ?getTypeCategory@XSTypeDefinition@xercesc_2_8@@QBE?AW4TYPE_CATEGORY@12@XZ
       4519 11A6 000F1460 ?getTypeDefinition@PSVIAttribute@xercesc_2_8@@UAEPAVXSTypeDefinition@2@XZ
       4520 11A7 000F1460 ?getTypeDefinition@PSVIElement@xercesc_2_8@@UAEPAVXSTypeDefinition@2@XZ
       4521 11A8 00158400 ?getTypeDefinition@XSAttributeDeclaration@xercesc_2_8@@QBEPAVXSSimpleTypeDefinition@2@XZ
       4522 11A9 0011FC20 ?getTypeDefinition@XSElementDeclaration@xercesc_2_8@@QBEPAVXSTypeDefinition@2@XZ
       4523 11AA 0015BD50 ?getTypeDefinition@XSModel@xercesc_2_8@@QAEPAVXSTypeDefinition@2@PB_W0@Z
       4524 11AB 001A9060 ?getTypeDefinition@XSNamespaceItem@xercesc_2_8@@QAEPAVXSTypeDefinition@2@PB_W@Z
       4525 11AC 00164560 ?getTypeInfo@DOMAttrImpl@xercesc_2_8@@UBEPBVDOMTypeInfo@2@XZ
       4526 11AD 00166990 ?getTypeInfo@DOMElementImpl@xercesc_2_8@@UBEPBVDOMTypeInfo@2@XZ
       4527 11AE 00162250 ?getTypeInfo@DOMElementNSImpl@xercesc_2_8@@UBEPBVDOMTypeInfo@2@XZ
       4528 11AF 001A14B0 ?getTypeInfoFromNS@TraverseSchema@xercesc_2_8@@AAEPAVComplexTypeInfo@2@QBVDOMElement@2@QB_W1@Z
       4529 11B0 000F13B0 ?getTypeLocalName@ComplexTypeInfo@xercesc_2_8@@QBEPB_WXZ
       4530 11B1 0016B5D0 ?getTypeLocalName@DatatypeValidator@xercesc_2_8@@QBEPB_WXZ
       4531 11B2 0011FC60 ?getTypeName@ComplexTypeInfo@xercesc_2_8@@QBEPA_WXZ
       4532 11B3 000F13B0 ?getTypeName@DatatypeValidator@xercesc_2_8@@QBEPB_WXZ
       4533 11B4 000F34E0 ?getTypeName@SchemaAttDef@xercesc_2_8@@QBEPB_WXZ
       4534 11B5 000F3F40 ?getTypeName@SchemaElementDecl@xercesc_2_8@@QBEPB_WXZ
       4535 11B6 000F0A50 ?getTypeType@SchemaAttDef@xercesc_2_8@@QBE?AW4Complexity@PSVIDefs@2@XZ
       4536 11B7 000F3F70 ?getTypeType@SchemaElementDecl@xercesc_2_8@@QBE?AW4Complexity@PSVIDefs@2@XZ
       4537 11B8 0016B5D0 ?getTypeUri@ComplexTypeInfo@xercesc_2_8@@QBEPB_WXZ
       4538 11B9 000E1020 ?getTypeUri@DatatypeValidator@xercesc_2_8@@QBEPB_WXZ
       4539 11BA 000F3510 ?getTypeUri@SchemaAttDef@xercesc_2_8@@QBEPB_WXZ
       4540 11BB 000F3FA0 ?getTypeUri@SchemaElementDecl@xercesc_2_8@@QBEPB_WXZ
       4541 11BC 00105BC0 ?getURI@DOMLocatorImpl@xercesc_2_8@@UBEPB_WXZ
       4542 11BD 00102B80 ?getURI@QName@xercesc_2_8@@QBEIXZ
       4543 11BE 001C2C80 ?getURI@VecAttributesImpl@xercesc_2_8@@UBEPB_WI@Z
       4544 11BF 000F1880 ?getURI@XMLElementDecl@xercesc_2_8@@QBEIXZ
       4545 11C0 000F1620 ?getURIId@XMLAttr@xercesc_2_8@@QBEIXZ
       4546 11C1 00159D20 ?getURIStringPool@XMLGrammarPoolImpl@xercesc_2_8@@UAEPAVXMLStringPool@2@XZ
       4547 11C2 000F4740 ?getURIStringPool@XMLScanner@xercesc_2_8@@QAEPAVXMLStringPool@2@XZ
       4548 11C3 000F4740 ?getURIStringPool@XMLScanner@xercesc_2_8@@QBEPBVXMLStringPool@2@XZ
       4549 11C4 0014F740 ?getURIStringPool@XSModel@xercesc_2_8@@QAEPAVXMLStringPool@2@XZ
       4550 11C5 001B7000 ?getURIText@DOMBuilderImpl@xercesc_2_8@@UBEPB_WI@Z
       4551 11C6 001BBBB0 ?getURIText@SAX2XMLReaderImpl@xercesc_2_8@@UBEPB_WI@Z
       4552 11C7 000F5830 ?getURIText@SAXParser@xercesc_2_8@@QBEPB_WI@Z
       4553 11C8 00108C30 ?getURIText@XMLScanner@xercesc_2_8@@QBEPB_WI@Z
       4554 11C9 00108C70 ?getURIText@XMLScanner@xercesc_2_8@@QBE_NIAAVXMLBuffer@2@@Z
       4555 11CA 000F77F0 ?getURIText@XercesDOMParser@xercesc_2_8@@QBEPB_WI@Z
       4556 11CB 000ED4C0 ?getURLText@XMLURL@xercesc_2_8@@QBEPB_WXZ
       4557 11CC 000ED3C0 ?getUnRepFlags@XMLFormatter@xercesc_2_8@@QBE?AW4UnRepFlags@12@XZ
       4558 11CD 00182010 ?getUniCategory@UnicodeRangeFactory@xercesc_2_8@@AAEGG@Z
       4559 11CE 000F13B0 ?getUnknownNamespaceId@XMLScanner@xercesc_2_8@@QBEIXZ
       4560 11CF 00118CA0 ?getUpToCharOrWS@ReaderMgr@xercesc_2_8@@QAEXAAVXMLBuffer@2@_W@Z
       4561 11D0 00112300 ?getUpToCharOrWS@XMLReader@xercesc_2_8@@QAE_NAAVXMLBuffer@2@_W@Z
       4562 11D1 000EDE80 ?getUriText@XMLUri@xercesc_2_8@@QBEPB_WXZ
       4563 11D2 000F37B0 ?getUsed@XMLRefInfo@xercesc_2_8@@QBE_NXZ
       4564 11D3 000F1460 ?getUser@XMLURL@xercesc_2_8@@QBEPB_WXZ
       4565 11D4 001B9F90 ?getUserData@DOMAttrImpl@xercesc_2_8@@UBEPAXPB_W@Z
       4566 11D5 001B9F90 ?getUserData@DOMCDATASectionImpl@xercesc_2_8@@UBEPAXPB_W@Z
       4567 11D6 001B9F90 ?getUserData@DOMCommentImpl@xercesc_2_8@@UBEPAXPB_W@Z
       4568 11D7 001B9F90 ?getUserData@DOMDocumentFragmentImpl@xercesc_2_8@@UBEPAXPB_W@Z
       4569 11D8 00169500 ?getUserData@DOMDocumentImpl@xercesc_2_8@@QBEPAXPBVDOMNodeImpl@2@PB_W@Z
       4570 11D9 001B9F90 ?getUserData@DOMDocumentImpl@xercesc_2_8@@UBEPAXPB_W@Z
       4571 11DA 001B9F90 ?getUserData@DOMDocumentTypeImpl@xercesc_2_8@@UBEPAXPB_W@Z
       4572 11DB 001B9F90 ?getUserData@DOMElementImpl@xercesc_2_8@@UBEPAXPB_W@Z
       4573 11DC 001B9F90 ?getUserData@DOMEntityImpl@xercesc_2_8@@UBEPAXPB_W@Z
       4574 11DD 001B9F90 ?getUserData@DOMEntityReferenceImpl@xercesc_2_8@@UBEPAXPB_W@Z
       4575 11DE 00162E40 ?getUserData@DOMNodeImpl@xercesc_2_8@@QBEPAXPB_W@Z
       4576 11DF 001B9F90 ?getUserData@DOMNotationImpl@xercesc_2_8@@UBEPAXPB_W@Z
       4577 11E0 001B9F90 ?getUserData@DOMProcessingInstructionImpl@xercesc_2_8@@UBEPAXPB_W@Z
       4578 11E1 001B9F90 ?getUserData@DOMTextImpl@xercesc_2_8@@UBEPAXPB_W@Z
       4579 11E2 000D6970 ?getUserDefinedRegistry@DatatypeValidatorFactory@xercesc_2_8@@QBEPAV?$RefHashTableOf@VDatatypeValidator@xercesc_2_8@@@2@XZ
       4580 11E3 000ED3C0 ?getUserInfo@XMLUri@xercesc_2_8@@QBEPB_WXZ
       4581 11E4 0011FC60 ?getValidSubstitutionGroups@SchemaGrammar@xercesc_2_8@@QBEPAV?$RefHash2KeysTableOf@V?$ValueVectorOf@PAVSchemaElementDecl@xercesc_2_8@@@xercesc_2_8@@@2@XZ
       4582 11E5 00121030 ?getValidateAnnotations@AbstractDOMParser@xercesc_2_8@@QBE_NXZ
       4583 11E6 000F5700 ?getValidateAnnotations@SAXParser@xercesc_2_8@@QBE_NXZ
       4584 11E7 000F4820 ?getValidateAnnotations@XMLScanner@xercesc_2_8@@QBE_NXZ
       4585 11E8 000F7240 ?getValidated@DTDGrammar@xercesc_2_8@@UBE_NXZ
       4586 11E9 00104390 ?getValidated@SchemaGrammar@xercesc_2_8@@UBE_NXZ
       4587 11EA 00105BC0 ?getValidatingMemberType@ValidationContextImpl@xercesc_2_8@@UBEPAVDatatypeValidator@2@XZ
       4588 11EB 000F1630 ?getValidatingTypeName@XMLAttr@xercesc_2_8@@QBEPB_WXZ
       4589 11EC 000F1660 ?getValidatingTypeURI@XMLAttr@xercesc_2_8@@QBEPB_WXZ
       4590 11ED 000D6990 ?getValidationAttempted@PSVIItem@xercesc_2_8@@QBE?AW4ASSESSMENT_TYPE@12@XZ
       4591 11EE 0011FC60 ?getValidationAttempted@SchemaAttDef@xercesc_2_8@@QBE?AW4Validation@PSVIDefs@2@XZ
       4592 11EF 000F4090 ?getValidationAttempted@SchemaElementDecl@xercesc_2_8@@QBE?AW4Validation@PSVIDefs@2@XZ
       4593 11F0 00121050 ?getValidationConstraintFatal@AbstractDOMParser@xercesc_2_8@@QBE_NXZ
       4594 11F1 001BBB90 ?getValidationConstraintFatal@SAX2XMLReaderImpl@xercesc_2_8@@UBE_NXZ
       4595 11F2 000F5720 ?getValidationConstraintFatal@SAXParser@xercesc_2_8@@QBE_NXZ
       4596 11F3 001209A0 ?getValidationConstraintFatal@XMLScanner@xercesc_2_8@@QBE_NXZ
       4597 11F4 0015C6B0 ?getValidationContext@PSVIItem@xercesc_2_8@@QAEPB_WXZ
       4598 11F5 000F13B0 ?getValidationContext@SchemaGrammar@xercesc_2_8@@QBEPAVValidationContext@2@XZ
       4599 11F6 0014F740 ?getValidationContext@SchemaInfo@xercesc_2_8@@QBEPAVValidationContext@2@XZ
       4600 11F7 000F4690 ?getValidationContext@XMLScanner@xercesc_2_8@@QAEPAVValidationContext@2@XZ
       4601 11F8 000F2F80 ?getValidationFlag@ElemStack@xercesc_2_8@@QAE_NXZ
       4602 11F9 00121090 ?getValidationSchemaFullChecking@AbstractDOMParser@xercesc_2_8@@QBE_NXZ
       4603 11FA 000F5760 ?getValidationSchemaFullChecking@SAXParser@xercesc_2_8@@QBE_NXZ
       4604 11FB 000F4730 ?getValidationSchemaFullChecking@XMLScanner@xercesc_2_8@@QBE_NXZ
       4605 11FC 00121060 ?getValidationScheme@AbstractDOMParser@xercesc_2_8@@QBE?AW4ValSchemes@12@XZ
       4606 11FD 000F5730 ?getValidationScheme@SAXParser@xercesc_2_8@@QBE?AW4ValSchemes@12@XZ
       4607 11FE 000F4700 ?getValidationScheme@XMLScanner@xercesc_2_8@@QBE?AW4ValSchemes@12@XZ
       4608 11FF 00121000 ?getValidator@AbstractDOMParser@xercesc_2_8@@QBEABVXMLValidator@2@XZ
       4609 1200 001BC310 ?getValidator@SAX2XMLReaderImpl@xercesc_2_8@@UBEPAVXMLValidator@2@XZ
       4610 1201 000F56D0 ?getValidator@SAXParser@xercesc_2_8@@QBEABVXMLValidator@2@XZ
       4611 1202 000F4710 ?getValidator@XMLScanner@xercesc_2_8@@QAEPAVXMLValidator@2@XZ
       4612 1203 000F4710 ?getValidator@XMLScanner@xercesc_2_8@@QBEPBVXMLValidator@2@XZ
       4613 1204 00158400 ?getValidity@PSVIItem@xercesc_2_8@@QBE?AW4VALIDITY_STATE@12@XZ
       4614 1205 001B7290 ?getValidity@SchemaAttDef@xercesc_2_8@@QBE?AW4Validity@PSVIDefs@2@XZ
       4615 1206 0011FC20 ?getValidity@SchemaElementDecl@xercesc_2_8@@QBE?AW4Validity@PSVIDefs@2@XZ
       4616 1207 00164030 ?getValue@DOMAttrImpl@xercesc_2_8@@UBEPB_WXZ
       4617 1208 00102B80 ?getValue@KVStringPair@xercesc_2_8@@QAEPA_WXZ
       4618 1209 00102B80 ?getValue@KVStringPair@xercesc_2_8@@QBEPB_WXZ
       4619 120A 001C2D70 ?getValue@VecAttrListImpl@xercesc_2_8@@UBEPB_WI@Z
       4620 120B 0011E170 ?getValue@VecAttrListImpl@xercesc_2_8@@UBEPB_WQBD@Z
       4621 120C 0011E0E0 ?getValue@VecAttrListImpl@xercesc_2_8@@UBEPB_WQB_W@Z
       4622 120D 001C2D70 ?getValue@VecAttributesImpl@xercesc_2_8@@UBEPB_WI@Z
       4623 120E 001C3080 ?getValue@VecAttributesImpl@xercesc_2_8@@UBEPB_WQB_W0@Z
       4624 120F 001C30B0 ?getValue@VecAttributesImpl@xercesc_2_8@@UBEPB_WQB_W@Z
       4625 1210 0012AC50 ?getValue@XMLAbstractDoubleFloat@xercesc_2_8@@QBENXZ
       4626 1211 00158400 ?getValue@XMLAttDef@xercesc_2_8@@QBEPB_WXZ
       4627 1212 000ED3C0 ?getValue@XMLAttr@xercesc_2_8@@QBEPB_WXZ
       4628 1213 00158400 ?getValue@XMLBigDecimal@xercesc_2_8@@QBEPB_WXZ
       4629 1214 000ED3C0 ?getValue@XMLEntityDecl@xercesc_2_8@@QBEPB_WXZ
       4630 1215 00110D10 ?getValueAt@FieldValueMap@xercesc_2_8@@QBEPA_WI@Z
       4631 1216 00110D60 ?getValueFor@FieldValueMap@xercesc_2_8@@QBEPA_WQBVIC_Field@2@@Z
       4632 1217 000F2EF0 ?getValueForId@XMLStringPool@xercesc_2_8@@UBEPB_WI@Z
       4633 1218 001A8B70 ?getValueForId@XMLSynchronizedStringPool@xercesc_2_8@@UBEPB_WI@Z
       4634 1219 0015C6B0 ?getValueLen@XMLEntityDecl@xercesc_2_8@@QBEIXZ
       4635 121A 000F1460 ?getValueStore@FieldMatcher@xercesc_2_8@@QBEPAVValueStore@2@XZ
       4636 121B 0013D5C0 ?getValueStoreFor@ValueStoreCache@xercesc_2_8@@QAEPAVValueStore@2@QBVIC_Field@2@H@Z
       4637 121C 0013D5F0 ?getValueStoreFor@ValueStoreCache@xercesc_2_8@@QAEPAVValueStore@2@QBVIdentityConstraint@2@H@Z
       4638 121D 001B7290 ?getVariety@XSSimpleTypeDefinition@xercesc_2_8@@QBE?AW4VARIETY@12@XZ
       4639 121E 000E1020 ?getVersion@DOMDocumentImpl@xercesc_2_8@@UBEPB_WXZ
       4640 121F 000E1020 ?getVersion@DOMEntityImpl@xercesc_2_8@@UBEPB_WXZ
       4641 1220 000F0850 ?getWSFacet@DatatypeValidator@xercesc_2_8@@QBEFXZ
       4642 1221 0012B3E0 ?getWSstring@DatatypeValidator@xercesc_2_8@@IBEPB_WF@Z
       4643 1222 000ED3C0 ?getWhatToShow@DOMNodeIteratorImpl@xercesc_2_8@@UAEKXZ
       4644 1223 000D6970 ?getWhatToShow@DOMTreeWalkerImpl@xercesc_2_8@@UAEKXZ
       4645 1224 001B8E70 ?getWholeText@DOMCDATASectionImpl@xercesc_2_8@@UAEPB_WXZ
       4646 1225 001B8E70 ?getWholeText@DOMTextImpl@xercesc_2_8@@UAEPB_WXZ
       4647 1226 001C1780 ?getWildcardTerm@XSParticle@xercesc_2_8@@QAEPAVXSWildcard@2@XZ
       4648 1227 00110380 ?getWordBegin@TokenFactory@xercesc_2_8@@QAEPAVToken@2@XZ
       4649 1228 001102A0 ?getWordEdge@TokenFactory@xercesc_2_8@@QAEPAVToken@2@XZ
       4650 1229 001103F0 ?getWordEnd@TokenFactory@xercesc_2_8@@QAEPAVToken@2@XZ
       4651 122A 000F12E0 ?getWordType@RegularExpression@xercesc_2_8@@AAEGQB_WHHH@Z
       4652 122B 00164CD0 ?getXMLEntityResolver@DOMBuilderImpl@xercesc_2_8@@QAEPAVXMLEntityResolver@2@XZ
       4653 122C 00164CD0 ?getXMLEntityResolver@DOMBuilderImpl@xercesc_2_8@@QBEPBVXMLEntityResolver@2@XZ
       4654 122D 001BBB40 ?getXMLEntityResolver@SAX2XMLReaderImpl@xercesc_2_8@@UBEPAVXMLEntityResolver@2@XZ
       4655 122E 00103ED0 ?getXMLEntityResolver@SAXParser@xercesc_2_8@@QAEPAVXMLEntityResolver@2@XZ
       4656 122F 00103ED0 ?getXMLEntityResolver@SAXParser@xercesc_2_8@@QBEPBVXMLEntityResolver@2@XZ
       4657 1230 000F4650 ?getXMLEntityResolver@XercesDOMParser@xercesc_2_8@@QAEPAVXMLEntityResolver@2@XZ
       4658 1231 000F4650 ?getXMLEntityResolver@XercesDOMParser@xercesc_2_8@@QBEPBVXMLEntityResolver@2@XZ
       4659 1232 000E1020 ?getXMLNSNamespaceId@XMLScanner@xercesc_2_8@@QBEIXZ
       4660 1233 0016B5D0 ?getXMLNamespaceId@XMLScanner@xercesc_2_8@@QBEIXZ
       4661 1234 000F47C0 ?getXMLVersion@XMLScanner@xercesc_2_8@@QBE?AW4XMLVersion@XMLReader@2@XZ
       4662 1235 000D6970 ?getXPath@IC_Field@xercesc_2_8@@QBEPAVXercesXPath@2@XZ
       4663 1236 000D6970 ?getXPath@IC_Selector@xercesc_2_8@@QBEPAVXercesXPath@2@XZ
       4664 1237 0011EDE0 ?getXSModel@GrammarResolver@xercesc_2_8@@QAEPAVXSModel@2@XZ
       4665 1238 000F4530 ?getXSModel@XMLGrammarPool@xercesc_2_8@@UAEPAVXSModel@2@AA_N@Z
       4666 1239 00159CF0 ?getXSModel@XMLGrammarPoolImpl@xercesc_2_8@@UAEPAVXSModel@2@AA_N@Z
       4667 123A 00159CD0 ?getXSModel@XMLGrammarPoolImpl@xercesc_2_8@@UAEPAVXSModel@2@XZ
       4668 123B 0015BF00 ?getXSObject@XSModel@xercesc_2_8@@QAEPAVXSObject@2@PAX@Z
       4669 123C 0015BE90 ?getXSObjectById@XSModel@xercesc_2_8@@QAEPAVXSObject@2@IW4COMPONENT_TYPE@XSConstants@2@@Z
       4670 123D 00162C40 ?getXmlString@DOMNodeImpl@xercesc_2_8@@SAPB_WXZ
       4671 123E 00162C50 ?getXmlURIString@DOMNodeImpl@xercesc_2_8@@SAPB_WXZ
       4672 123F 00162C60 ?getXmlnsString@DOMNodeImpl@xercesc_2_8@@SAPB_WXZ
       4673 1240 00162C70 ?getXmlnsURIString@DOMNodeImpl@xercesc_2_8@@SAPB_WXZ
       4674 1241 0017BF00 ?getYearMonth@XMLDateTime@xercesc_2_8@@AAEXXZ
       4675 1242 00158400 ?getYesFlow@ConditionOp@xercesc_2_8@@UBEPBVOp@2@XZ
       4676 1243 00102810 ?getYesFlow@Op@xercesc_2_8@@UBEPBV12@XZ
       4677 1244 0016CE60 ?gethostbyaddr@BinHTTPURLInputStream@xercesc_2_8@@CAPAUhostent@@PBDHH@Z
       4678 1245 0016CE40 ?gethostbyname@BinHTTPURLInputStream@xercesc_2_8@@CAPAUhostent@@PBD@Z
       4679 1246 00121AD0 ?handleAttributesPSVI@AbstractDOMParser@xercesc_2_8@@UAEXQB_W0PAVPSVIAttributeList@2@@Z
       4680 1247 00113100 ?handleEOL@XMLReader@xercesc_2_8@@AAEXAA_W_N@Z
       4681 1248 00121800 ?handleElementPSVI@AbstractDOMParser@xercesc_2_8@@UAEXQB_W0PAVPSVIElement@2@@Z
       4682 1249 00121AB0 ?handlePartialElementPSVI@AbstractDOMParser@xercesc_2_8@@UAEXQB_W0PAVPSVIElement@2@@Z
       4683 124A 00023AA0 ?handlePartialElementPSVI@PSVIHandler@xercesc_2_8@@UAEXQB_W0PAVPSVIElement@2@@Z
       4684 124B 001C2210 ?handleUnEscapedChars@XMLFormatter@xercesc_2_8@@AAEIPB_WIW4UnRepFlags@12@@Z
       4685 124C 00182C50 ?handlesDTD@DTDValidator@xercesc_2_8@@UBE_NXZ
       4686 124D 0015FC10 ?handlesDTD@SchemaValidator@xercesc_2_8@@UBE_NXZ
       4687 124E 0015FC10 ?handlesSchema@DTDValidator@xercesc_2_8@@UBE_NXZ
       4688 124F 00182C50 ?handlesSchema@SchemaValidator@xercesc_2_8@@UBE_NXZ
       4689 1250 00103AA0 ?hasAllContent@ContentSpecNode@xercesc_2_8@@QAE_NXZ
       4690 1251 000F3B60 ?hasAttDefs@ComplexTypeInfo@xercesc_2_8@@QBE_NXZ
       4691 1252 001160F0 ?hasAttDefs@DTDElementDecl@xercesc_2_8@@UBE_NXZ
       4692 1253 00114490 ?hasAttDefs@SchemaElementDecl@xercesc_2_8@@UBE_NXZ
       4693 1254 001661F0 ?hasAttribute@DOMElementImpl@xercesc_2_8@@UBE_NPB_W@Z
       4694 1255 00166210 ?hasAttributeNS@DOMElementImpl@xercesc_2_8@@UBE_NPB_W0@Z
       4695 1256 0015FC10 ?hasAttributes@DOMAttrImpl@xercesc_2_8@@UBE_NXZ
       4696 1257 0015FC10 ?hasAttributes@DOMCDATASectionImpl@xercesc_2_8@@UBE_NXZ
       4697 1258 0015FC10 ?hasAttributes@DOMCommentImpl@xercesc_2_8@@UBE_NXZ
       4698 1259 0015FC10 ?hasAttributes@DOMDocumentFragmentImpl@xercesc_2_8@@UBE_NXZ
       4699 125A 0015FC10 ?hasAttributes@DOMDocumentImpl@xercesc_2_8@@UBE_NXZ
       4700 125B 0015FC10 ?hasAttributes@DOMDocumentTypeImpl@xercesc_2_8@@UBE_NXZ
       4701 125C 001661D0 ?hasAttributes@DOMElementImpl@xercesc_2_8@@UBE_NXZ
       4702 125D 0015FC10 ?hasAttributes@DOMEntityImpl@xercesc_2_8@@UBE_NXZ
       4703 125E 0015FC10 ?hasAttributes@DOMEntityReferenceImpl@xercesc_2_8@@UBE_NXZ
       4704 125F 0015FC10 ?hasAttributes@DOMNodeImpl@xercesc_2_8@@QBE_NXZ
       4705 1260 0015FC10 ?hasAttributes@DOMNotationImpl@xercesc_2_8@@UBE_NXZ
       4706 1261 0015FC10 ?hasAttributes@DOMProcessingInstructionImpl@xercesc_2_8@@UBE_NXZ
       4707 1262 0015FC10 ?hasAttributes@DOMTextImpl@xercesc_2_8@@UBE_NXZ
       4708 1263 000F37D0 ?hasBackReferences@RegxParser@xercesc_2_8@@QBE_NXZ
       4709 1264 001B8FC0 ?hasChildNodes@DOMAttrImpl@xercesc_2_8@@UBE_NXZ
       4710 1265 001B8FC0 ?hasChildNodes@DOMCDATASectionImpl@xercesc_2_8@@UBE_NXZ
       4711 1266 0015FC10 ?hasChildNodes@DOMCommentImpl@xercesc_2_8@@UBE_NXZ
       4712 1267 001B8FC0 ?hasChildNodes@DOMDocumentFragmentImpl@xercesc_2_8@@UBE_NXZ
       4713 1268 001B8FC0 ?hasChildNodes@DOMDocumentImpl@xercesc_2_8@@UBE_NXZ
       4714 1269 001B8FC0 ?hasChildNodes@DOMDocumentTypeImpl@xercesc_2_8@@UBE_NXZ
       4715 126A 001B8FC0 ?hasChildNodes@DOMElementImpl@xercesc_2_8@@UBE_NXZ
       4716 126B 00161010 ?hasChildNodes@DOMEntityImpl@xercesc_2_8@@UBE_NXZ
       4717 126C 001B8FC0 ?hasChildNodes@DOMEntityReferenceImpl@xercesc_2_8@@UBE_NXZ
       4718 126D 0015FC10 ?hasChildNodes@DOMNodeImpl@xercesc_2_8@@QBE_NXZ
       4719 126E 0015FC10 ?hasChildNodes@DOMNotationImpl@xercesc_2_8@@UBE_NXZ
       4720 126F 000DCFD0 ?hasChildNodes@DOMParentNode@xercesc_2_8@@QBE_NXZ
       4721 1270 0015FC10 ?hasChildNodes@DOMProcessingInstructionImpl@xercesc_2_8@@UBE_NXZ
       4722 1271 0015FC10 ?hasChildNodes@DOMTextImpl@xercesc_2_8@@UBE_NXZ
       4723 1272 000F48B0 ?hasDefaults@DOMAttrMapImpl@xercesc_2_8@@UAEX_N@Z
       4724 1273 001209A0 ?hasDefaults@DOMAttrMapImpl@xercesc_2_8@@UAE_NXZ
       4725 1274 000EEED0 ?hasInvalidChar@XMLURL@xercesc_2_8@@QBE_NXZ
       4726 1275 001AFE80 ?hasLegalRootContainer@DOMRangeImpl@xercesc_2_8@@ABE_NPBVDOMNode@2@@Z
       4727 1276 00142020 ?hasMoreElements@DTDAttDefList@xercesc_2_8@@UBE_NXZ
       4728 1277 00142020 ?hasMoreElements@SchemaAttDefList@xercesc_2_8@@UBE_NXZ
       4729 1278 001945A0 ?hasMoreTokens@XMLStringTokenizer@xercesc_2_8@@QAE_NXZ
       4730 1279 00120660 ?hasUserData@DOMNodeImpl@xercesc_2_8@@QAEX_N@Z
       4731 127A 00120650 ?hasUserData@DOMNodeImpl@xercesc_2_8@@QBE_NXZ
       4732 127B 000FBD40 ?hash@XMLString@xercesc_2_8@@SAIQBDIQAVMemoryManager@2@@Z
       4733 127C 000ED140 ?hash@XMLString@xercesc_2_8@@SAIQB_WIQAVMemoryManager@2@@Z
       4734 127D 000FCD00 ?hashN@XMLString@xercesc_2_8@@SAIQB_WIIQAVMemoryManager@2@@Z
       4735 127E 0010A550 ?hexChar@RegxParser@xercesc_2_8@@AAEHH@Z
       4736 127F 0075B8C0 ?hexNumberTable@HexBin@xercesc_2_8@@0PAEA
       4737 1280 0016CE80 ?htons@BinHTTPURLInputStream@xercesc_2_8@@CAGG@Z
       4738 1281 00121FF0 ?ignorableWhitespace@AbstractDOMParser@xercesc_2_8@@UAEXQB_WI_N@Z
       4739 1282 001205B0 ?ignorableWhitespace@DOMNodeImpl@xercesc_2_8@@QAEX_N@Z
       4740 1283 001205A0 ?ignorableWhitespace@DOMNodeImpl@xercesc_2_8@@QBE_NXZ
       4741 1284 001BCA90 ?ignorableWhitespace@SAX2XMLReaderImpl@xercesc_2_8@@UAEXQB_WI_N@Z
       4742 1285 000F6350 ?ignorableWhitespace@SAXParser@xercesc_2_8@@UAEXQB_WI_N@Z
       4743 1286 00195B40 ?ignorableWhitespace@XSDDOMParser@xercesc_2_8@@UAEXQB_WI_N@Z
       4744 1287 00168B20 ?importNode@DOMDocumentImpl@xercesc_2_8@@EAEPAVDOMNode@2@PAV32@_N1@Z
       4745 1288 00167F80 ?importNode@DOMDocumentImpl@xercesc_2_8@@UAEPAVDOMNode@2@PAV32@_N@Z
       4746 1289 001C1B00 ?inEscapeList@XMLFormatter@xercesc_2_8@@AAE_NW4EscapeFlags@12@_W@Z
       4747 128A 003FBC98 ?inGroup@XSValue@xercesc_2_8@@0QBW4DataGroup@12@B
       4748 128B 00172600 ?increaseDepth@NamespaceScope@xercesc_2_8@@QAEIXZ
       4749 128C 000F4B60 ?incrementErrorCount@XMLScanner@xercesc_2_8@@QAEXXZ
       4750 128D 001AFF30 ?indexOf@DOMRangeImpl@xercesc_2_8@@ABEKPBVDOMNode@2@0@Z
       4751 128E 0013CF20 ?indexOf@FieldValueMap@xercesc_2_8@@QBEHQBVIC_Field@2@@Z
       4752 128F 0017C5C0 ?indexOf@XMLDateTime@xercesc_2_8@@ABEHHH_W@Z
       4753 1290 000FBD80 ?indexOf@XMLString@xercesc_2_8@@SAHQBDD@Z
       4754 1291 000FBDB0 ?indexOf@XMLString@xercesc_2_8@@SAHQBDDIQAVMemoryManager@2@@Z
       4755 1292 000FCD40 ?indexOf@XMLString@xercesc_2_8@@SAHQB_W_W@Z
       4756 1293 000FCD80 ?indexOf@XMLString@xercesc_2_8@@SAHQB_W_WIQAVMemoryManager@2@@Z
       4757 1294 00168280 ?indexofQualifiedName@DOMDocumentImpl@xercesc_2_8@@SAHPB_W@Z
       4758 1295 0016CE50 ?inet_addr@BinHTTPURLInputStream@xercesc_2_8@@CAKPBD@Z
       4759 1296 001BD790 ?inheritAdditionalFacet@AbstractNumericFacetValidator@xercesc_2_8@@MAEXXZ
       4760 1297 001BD790 ?inheritAdditionalFacet@AbstractStringValidator@xercesc_2_8@@MAEXXZ
       4761 1298 00176FA0 ?inheritAdditionalFacet@DecimalDatatypeValidator@xercesc_2_8@@MAEXXZ
       4762 1299 00135590 ?inheritAdditionalFacet@StringDatatypeValidator@xercesc_2_8@@MAEXXZ
       4763 129A 0017E8D0 ?inheritFacet@AbstractNumericFacetValidator@xercesc_2_8@@AAEXXZ
       4764 129B 00180200 ?inheritFacet@AbstractStringValidator@xercesc_2_8@@MAEXXZ
       4765 129C 001795F0 ?inheritFacet@ListDatatypeValidator@xercesc_2_8@@MAEXXZ
       4766 129D 0017D740 ?init@AbstractNumericFacetValidator@xercesc_2_8@@IAEXQAV?$RefArrayVectorOf@_W@2@QAVMemoryManager@2@@Z
       4767 129E 0012ABF0 ?init@AbstractNumericValidator@xercesc_2_8@@IAEXQAV?$RefArrayVectorOf@_W@2@QAVMemoryManager@2@@Z
       4768 129F 0017F650 ?init@AbstractStringValidator@xercesc_2_8@@IAEXQAV?$RefArrayVectorOf@_W@2@QAVMemoryManager@2@@Z
       4769 12A0 001BD790 ?init@Base64@xercesc_2_8@@CAXXZ
       4770 12A1 001159C0 ?init@ContentLeafNameTypeVector@xercesc_2_8@@AAEXI@Z
       4771 12A2 001BD790 ?init@HexBin@xercesc_2_8@@CAXXZ
       4772 12A3 001A56F0 ?init@TraverseSchema@xercesc_2_8@@AAEXXZ
       4773 12A4 00104B00 ?init@UnionDatatypeValidator@xercesc_2_8@@AAEXQAVDatatypeValidator@2@QAV?$RefHashTableOf@VKVStringPair@xercesc_2_8@@@2@QAV?$RefArrayVectorOf@_W@2@QAVMemoryManager@2@@Z
       4774 12A5 00183460 ?init@ValueStoreCache@xercesc_2_8@@AAEXXZ
       4775 12A6 00175E40 ?init@XMLAbstractDoubleFloat@xercesc_2_8@@IAEXQB_W@Z
       4776 12A7 00117AD0 ?init@XPathMatcher@xercesc_2_8@@AAEXQAVXercesXPath@2@@Z
       4777 12A8 00129AB0 ?init@XPathScanner@xercesc_2_8@@AAEXXZ
       4778 12A9 0012E1F0 ?initCanRepRegistory@DatatypeValidatorFactory@xercesc_2_8@@QAEXXZ
       4779 12AA 0012B190 ?initParser@XMLDateTime@xercesc_2_8@@AAEXXZ
       4780 12AB 001B37A0 ?initSession@DOMWriterImpl@xercesc_2_8@@AAEXQBVDOMNode@2@@Z
       4781 12AC 000FDC30 ?initString@XMLString@xercesc_2_8@@CAXQAVXMLLCPTranscoder@2@QAVMemoryManager@2@@Z
       4782 12AD 00125F20 ?initTransService@XMLTransService@xercesc_2_8@@MAEXXZ
       4783 12AE 00107810 ?initValidator@XMLScanner@xercesc_2_8@@IAEXPAVXMLValidator@2@@Z
       4784 12AF 00183600 ?initValueStoresFor@ValueStoreCache@xercesc_2_8@@QAEXQAVSchemaElementDecl@2@H@Z
       4785 12B0 00120CF0 ?initialize@AbstractDOMParser@xercesc_2_8@@AAEXXZ
       4786 12B1 00113E00 ?initialize@BMPattern@xercesc_2_8@@AAEXXZ
       4787 12B2 0013A6D0 ?initialize@Match@xercesc_2_8@@AAEXABV12@@Z
       4788 12B3 001BBE50 ?initialize@SAX2XMLReaderImpl@xercesc_2_8@@AAEXXZ
       4789 12B4 000F5460 ?initialize@SAXParser@xercesc_2_8@@AAEXXZ
       4790 12B5 000F81E0 ?initialize@XMLUri@xercesc_2_8@@AAEXABV12@@Z
       4791 12B6 000F8270 ?initialize@XMLUri@xercesc_2_8@@AAEXQBV12@QB_W@Z
       4792 12B7 0011C260 ?initializeAnyType@XMLInitializer@xercesc_2_8@@CAXXZ
       4793 12B8 000F8AF0 ?initializeAuthority@XMLUri@xercesc_2_8@@AAEXQB_W@Z
       4794 12B9 00164FD0 ?initializeDOMImplementationImpl@XMLInitializer@xercesc_2_8@@CAXXZ
       4795 12BA 0016C700 ?initializeDOMImplementationRegistry@XMLInitializer@xercesc_2_8@@CAXXZ
       4796 12BB 00170990 ?initializeDOMNormalizerMsgLoader@XMLInitializer@xercesc_2_8@@CAXXZ
       4797 12BC 00157920 ?initializeDTDGrammarDfltEntities@XMLInitializer@xercesc_2_8@@CAXXZ
       4798 12BD 0012C7C0 ?initializeDVFactory@XMLInitializer@xercesc_2_8@@CAXXZ
       4799 12BE 001627F0 ?initializeEmptyNodeList@XMLInitializer@xercesc_2_8@@CAXXZ
       4800 12BF 0016DEE0 ?initializeEncodingValidator@XMLInitializer@xercesc_2_8@@CAXXZ
       4801 12C0 000FEB40 ?initializeExceptionMsgLoader@XMLInitializer@xercesc_2_8@@CAXXZ
       4802 12C1 0016F680 ?initializeGeneralAttrCheckMap@XMLInitializer@xercesc_2_8@@CAXXZ
       4803 12C2 00182850 ?initializeKeywordMap@ASCIIRangeFactory@xercesc_2_8@@UAEXPAVRangeTokenMap@2@@Z
       4804 12C3 001822A0 ?initializeKeywordMap@BlockRangeFactory@xercesc_2_8@@UAEXPAVRangeTokenMap@2@@Z
       4805 12C4 00181F60 ?initializeKeywordMap@UnicodeRangeFactory@xercesc_2_8@@UAEXPAVRangeTokenMap@2@@Z
       4806 12C5 00180F50 ?initializeKeywordMap@XMLRangeFactory@xercesc_2_8@@UAEXPAVRangeTokenMap@2@@Z
       4807 12C6 00164EC0 ?initializeMsgLoader4DOM@XMLInitializer@xercesc_2_8@@CAXXZ
       4808 12C7 000F8FB0 ?initializePath@XMLUri@xercesc_2_8@@AAEXQB_W@Z
       4809 12C8 0013C180 ?initializeRangeTokenMap@XMLInitializer@xercesc_2_8@@CAXXZ
       4810 12C9 0016E030 ?initializeRegistry@EncodingValidator@xercesc_2_8@@AAEXXZ
       4811 12CA 0013C700 ?initializeRegistry@RangeTokenMap@xercesc_2_8@@AAEXXZ
       4812 12CB 0015CB70 ?initializeRegistry@XSValue@xercesc_2_8@@CAXXZ
       4813 12CC 0010C7F0 ?initializeRegularExpression@XMLInitializer@xercesc_2_8@@CAXXZ
       4814 12CD 00106040 ?initializeScannerMsgLoader@XMLInitializer@xercesc_2_8@@CAXXZ
       4815 12CE 000F8E80 ?initializeScheme@XMLUri@xercesc_2_8@@AAEXQB_W@Z
       4816 12CF 001153F0 ?initializeValidatorMsgLoader@XMLInitializer@xercesc_2_8@@CAXXZ
       4817 12D0 0016F290 ?initializeXSDErrReporterMsgLoader@XMLInitializer@xercesc_2_8@@CAXXZ
       4818 12D1 0015C9F0 ?initializeXSValueStatics@XMLInitializer@xercesc_2_8@@CAXXZ
       4819 12D2 001B9AD0 ?insertBefore@DOMAttrImpl@xercesc_2_8@@UAEPAVDOMNode@2@PAV32@0@Z
       4820 12D3 001B9AD0 ?insertBefore@DOMCDATASectionImpl@xercesc_2_8@@UAEPAVDOMNode@2@PAV32@0@Z
       4821 12D4 00160B20 ?insertBefore@DOMCommentImpl@xercesc_2_8@@UAEPAVDOMNode@2@PAV32@0@Z
       4822 12D5 001B9AD0 ?insertBefore@DOMDocumentFragmentImpl@xercesc_2_8@@UAEPAVDOMNode@2@PAV32@0@Z
       4823 12D6 00167D20 ?insertBefore@DOMDocumentImpl@xercesc_2_8@@UAEPAVDOMNode@2@PAV32@0@Z
       4824 12D7 001B9AD0 ?insertBefore@DOMDocumentTypeImpl@xercesc_2_8@@UAEPAVDOMNode@2@PAV32@0@Z
       4825 12D8 001B9AD0 ?insertBefore@DOMElementImpl@xercesc_2_8@@UAEPAVDOMNode@2@PAV32@0@Z
       4826 12D9 001611A0 ?insertBefore@DOMEntityImpl@xercesc_2_8@@UAEPAVDOMNode@2@PAV32@0@Z
       4827 12DA 001B9AD0 ?insertBefore@DOMEntityReferenceImpl@xercesc_2_8@@UAEPAVDOMNode@2@PAV32@0@Z
       4828 12DB 00162A60 ?insertBefore@DOMNodeImpl@xercesc_2_8@@QAEPAVDOMNode@2@PAV32@0@Z
       4829 12DC 00160B20 ?insertBefore@DOMNotationImpl@xercesc_2_8@@UAEPAVDOMNode@2@PAV32@0@Z
       4830 12DD 0015FE00 ?insertBefore@DOMParentNode@xercesc_2_8@@QAEPAVDOMNode@2@PAV32@0@Z
       4831 12DE 00160B20 ?insertBefore@DOMProcessingInstructionImpl@xercesc_2_8@@UAEPAVDOMNode@2@PAV32@0@Z
       4832 12DF 00160B20 ?insertBefore@DOMTextImpl@xercesc_2_8@@UAEPAVDOMNode@2@PAV32@0@Z
       4833 12E0 001B9050 ?insertData@DOMCDATASectionImpl@xercesc_2_8@@UAEXKPB_W@Z
       4834 12E1 001B1DC0 ?insertData@DOMCharacterDataImpl@xercesc_2_8@@QAEXPBVDOMNode@2@KPB_W@Z
       4835 12E2 00160BA0 ?insertData@DOMCommentImpl@xercesc_2_8@@UAEXKPB_W@Z
       4836 12E3 00160BA0 ?insertData@DOMTextImpl@xercesc_2_8@@UAEXKPB_W@Z
       4837 12E4 001AF670 ?insertNode@DOMRangeImpl@xercesc_2_8@@UAEXPAVDOMNode@2@@Z
       4838 12E5 0017DB40 ?inspectFacet@AbstractNumericFacetValidator@xercesc_2_8@@AAEXQAVMemoryManager@2@@Z
       4839 12E6 0017FAD0 ?inspectFacet@AbstractStringValidator@xercesc_2_8@@AAEXQAVMemoryManager@2@@Z
       4840 12E7 0017DDB0 ?inspectFacetBase@AbstractNumericFacetValidator@xercesc_2_8@@AAEXQAVMemoryManager@2@@Z
       4841 12E8 0017FBF0 ?inspectFacetBase@AbstractStringValidator@xercesc_2_8@@MAEXQAVMemoryManager@2@@Z
       4842 12E9 00179460 ?inspectFacetBase@ListDatatypeValidator@xercesc_2_8@@MAEXQAVMemoryManager@2@@Z
       4843 12EA 001BC1A0 ?installAdvDocHandler@SAX2XMLReaderImpl@xercesc_2_8@@UAEXQAVXMLDocumentHandler@2@@Z
       4844 12EB 000F5580 ?installAdvDocHandler@SAXParser@xercesc_2_8@@QAEXQAVXMLDocumentHandler@2@@Z
       4845 12EC 0016E0D0 ?instance@EncodingValidator@xercesc_2_8@@SAPAV12@XZ
       4846 12ED 0013C920 ?instance@RangeTokenMap@xercesc_2_8@@SAPAV12@XZ
       4847 12EE 001C2840 ?insureCapacity@MemBufFormatTarget@xercesc_2_8@@AAEXI@Z
       4848 12EF 001025E0 ?insureCapacity@XMLBuffer@xercesc_2_8@@AAEXI@Z
       4849 12F0 001ACCB0 ?intValue@XMLBigInteger@xercesc_2_8@@QBEHXZ
       4850 12F1 00164C30 ?intValue@XMLInteger@xercesc_2_8@@QBEHXZ
       4851 12F2 0013A000 ?intersectRanges@RangeToken@xercesc_2_8@@UAEXQAV12@@Z
       4852 12F3 000F09D0 ?intersectRanges@Token@xercesc_2_8@@UAEXQAVRangeToken@2@@Z
       4853 12F4 00124520 ?isAlias@Win32TransService@xercesc_2_8@@CA_NQAUHKEY__@@QADI@Z
       4854 12F5 000FE130 ?isAllSpaces@XMLChar1_0@xercesc_2_8@@SA_NQB_WI@Z
       4855 12F6 000FE310 ?isAllSpaces@XMLChar1_1@xercesc_2_8@@SA_NQB_WI@Z
       4856 12F7 001113A0 ?isAllSpaces@XMLReader@xercesc_2_8@@QBE_NQB_WI@Z
       4857 12F8 000FC6B0 ?isAllWhiteSpace@XMLString@xercesc_2_8@@SA_NQB_W@Z
       4858 12F9 00184710 ?isAllowedByWildcard@SubstitutionGroupComparator@xercesc_2_8@@QAE_NQAVSchemaGrammar@2@QAVQName@2@I_N@Z
       4859 12FA 000FC620 ?isAlpha@XMLString@xercesc_2_8@@SA_N_W@Z
       4860 12FB 000FC650 ?isAlphaNum@XMLString@xercesc_2_8@@SA_N_W@Z
       4861 12FC 001AFE50 ?isAncestorOf@DOMRangeImpl@xercesc_2_8@@CA_NPBVDOMNode@2@0@Z
       4862 12FD 000FFA80 ?isAnySlash@XMLPlatformUtils@xercesc_2_8@@SA_N_W@Z
       4863 12FE 001ACD30 ?isArrayByteHex@HexBin@xercesc_2_8@@SA_NQB_W@Z
       4864 12FF 0015FC10 ?isAtomic@AnySimpleTypeDatatypeValidator@xercesc_2_8@@UBE_NXZ
       4865 1300 00182C50 ?isAtomic@DatatypeValidator@xercesc_2_8@@UBE_NXZ
       4866 1301 0015FC10 ?isAtomic@ListDatatypeValidator@xercesc_2_8@@UBE_NXZ
       4867 1302 000F3300 ?isAtomic@UnionDatatypeValidator@xercesc_2_8@@UBE_NXZ
       4868 1303 0014FDA0 ?isAttrOrAttrGroup@TraverseSchema@xercesc_2_8@@AAE_NQBVDOMElement@2@@Z
       4869 1304 0014FD60 ?isBaseFromAnotherSchema@TraverseSchema@xercesc_2_8@@AAE_NQB_W@Z
       4870 1305 000F57D0 ?isCachingGrammarFromParse@SAXParser@xercesc_2_8@@QBE_NXZ
       4871 1306 000F4780 ?isCachingGrammarFromParse@XMLScanner@xercesc_2_8@@QBE_NXZ
       4872 1307 000F77B0 ?isCachingGrammarFromParse@XercesDOMParser@xercesc_2_8@@QBE_NXZ
       4873 1308 001206D0 ?isChildNode@DOMNodeImpl@xercesc_2_8@@QBE_NXZ
       4874 1309 000F9E00 ?isConformantSchemeName@XMLUri@xercesc_2_8@@CA_NQB_W@Z
       4875 130A 000FB1D0 ?isConformantSchemeName@XMLUri@xercesc_2_8@@CA_NQB_WH@Z
       4876 130B 000F9E80 ?isConformantUserInfo@XMLUri@xercesc_2_8@@CAXQB_WQAVMemoryManager@2@@Z
       4877 130C 000EE160 ?isControlChar@XMLChar1_0@xercesc_2_8@@SA_N_W0@Z
       4878 130D 000EE3E0 ?isControlChar@XMLChar1_1@xercesc_2_8@@SA_N_W0@Z
       4879 130E 000F25E0 ?isControlChar@XMLReader@xercesc_2_8@@QBE_N_W@Z
       4880 130F 001AC510 ?isData@Base64@xercesc_2_8@@CA_NABE@Z
       4881 1310 000F18B0 ?isDataConverted@XMLAbstractDoubleFloat@xercesc_2_8@@QBE_NXZ
       4882 1311 000F4780 ?isDataOverflowed@XMLAbstractDoubleFloat@xercesc_2_8@@QBE_NXZ
       4883 1312 000F18A0 ?isDeclared@XMLElementDecl@xercesc_2_8@@QBE_NXZ
       4884 1313 001685B0 ?isDefaultNamespace@DOMAttrImpl@xercesc_2_8@@UBE_NPB_W@Z
       4885 1314 001685B0 ?isDefaultNamespace@DOMCDATASectionImpl@xercesc_2_8@@UBE_NPB_W@Z
       4886 1315 001685B0 ?isDefaultNamespace@DOMCommentImpl@xercesc_2_8@@UBE_NPB_W@Z
       4887 1316 001685B0 ?isDefaultNamespace@DOMDocumentFragmentImpl@xercesc_2_8@@UBE_NPB_W@Z
       4888 1317 001685B0 ?isDefaultNamespace@DOMDocumentImpl@xercesc_2_8@@UBE_NPB_W@Z
       4889 1318 001685B0 ?isDefaultNamespace@DOMDocumentTypeImpl@xercesc_2_8@@UBE_NPB_W@Z
       4890 1319 001685B0 ?isDefaultNamespace@DOMElementImpl@xercesc_2_8@@UBE_NPB_W@Z
       4891 131A 001685B0 ?isDefaultNamespace@DOMEntityImpl@xercesc_2_8@@UBE_NPB_W@Z
       4892 131B 001685B0 ?isDefaultNamespace@DOMEntityReferenceImpl@xercesc_2_8@@UBE_NPB_W@Z
       4893 131C 00163BC0 ?isDefaultNamespace@DOMNodeImpl@xercesc_2_8@@QBE_NPB_W@Z
       4894 131D 001685B0 ?isDefaultNamespace@DOMNotationImpl@xercesc_2_8@@UBE_NPB_W@Z
       4895 131E 001685B0 ?isDefaultNamespace@DOMProcessingInstructionImpl@xercesc_2_8@@UBE_NPB_W@Z
       4896 131F 001685B0 ?isDefaultNamespace@DOMTextImpl@xercesc_2_8@@UBE_NPB_W@Z
       4897 1320 001C1250 ?isDefinedFacet@XSSimpleTypeDefinition@xercesc_2_8@@QAE_NW4FACET@12@@Z
       4898 1321 0014FF60 ?isDelimeter@XMLStringTokenizer@xercesc_2_8@@AAE_N_W@Z
       4899 1322 000FC640 ?isDigit@XMLString@xercesc_2_8@@SA_N_W@Z
       4900 1323 00164840 ?isDisallowedSubstitution@XSElementDeclaration@xercesc_2_8@@QAE_NW4DERIVATION_TYPE@XSConstants@2@@Z
       4901 1324 000F4810 ?isDocumentAdopted@AbstractDOMParser@xercesc_2_8@@IBE_NXZ
       4902 1325 0013DD20 ?isDuplicateOf@ValueStore@xercesc_2_8@@AAE_NQAVDatatypeValidator@2@QB_W01@Z
       4903 1326 000F0AF0 ?isEOLChar@RegxUtil@xercesc_2_8@@SA_N_W@Z
       4904 1327 00142030 ?isEmpty@DTDAttDefList@xercesc_2_8@@UBE_NXZ
       4905 1328 000F2F70 ?isEmpty@ElemStack@xercesc_2_8@@QBE_NXZ
       4906 1329 00128060 ?isEmpty@NamespaceScope@xercesc_2_8@@QBE_NXZ
       4907 132A 00118C00 ?isEmpty@ReaderMgr@xercesc_2_8@@QBE_NXZ
       4908 132B 0013E820 ?isEmpty@SchemaAttDefList@xercesc_2_8@@UBE_NXZ
       4909 132C 000F3180 ?isEmpty@WFElemStack@xercesc_2_8@@QBE_NXZ
       4910 132D 000ECDA0 ?isEmpty@XMLBuffer@xercesc_2_8@@QBE_NXZ
       4911 132E 00164630 ?isEqualNode@DOMAttrImpl@xercesc_2_8@@UBE_NPBVDOMNode@2@@Z
       4912 132F 00164630 ?isEqualNode@DOMCDATASectionImpl@xercesc_2_8@@UBE_NPBVDOMNode@2@@Z
       4913 1330 00160B40 ?isEqualNode@DOMCommentImpl@xercesc_2_8@@UBE_NPBVDOMNode@2@@Z
       4914 1331 00164630 ?isEqualNode@DOMDocumentFragmentImpl@xercesc_2_8@@UBE_NPBVDOMNode@2@@Z
       4915 1332 00164630 ?isEqualNode@DOMDocumentImpl@xercesc_2_8@@UBE_NPBVDOMNode@2@@Z
       4916 1333 0016B980 ?isEqualNode@DOMDocumentTypeImpl@xercesc_2_8@@UBE_NPBVDOMNode@2@@Z
       4917 1334 00166720 ?isEqualNode@DOMElementImpl@xercesc_2_8@@UBE_NPBVDOMNode@2@@Z
       4918 1335 00161310 ?isEqualNode@DOMEntityImpl@xercesc_2_8@@UBE_NPBVDOMNode@2@@Z
       4919 1336 00164630 ?isEqualNode@DOMEntityReferenceImpl@xercesc_2_8@@UBE_NPBVDOMNode@2@@Z
       4920 1337 00162F40 ?isEqualNode@DOMNodeImpl@xercesc_2_8@@QBE_NPBVDOMNode@2@@Z
       4921 1338 00160B40 ?isEqualNode@DOMNotationImpl@xercesc_2_8@@UBE_NPBVDOMNode@2@@Z
       4922 1339 001605F0 ?isEqualNode@DOMParentNode@xercesc_2_8@@QBE_NPBVDOMNode@2@@Z
       4923 133A 00160B40 ?isEqualNode@DOMProcessingInstructionImpl@xercesc_2_8@@UBE_NPBVDOMNode@2@@Z
       4924 133B 00160B40 ?isEqualNode@DOMTextImpl@xercesc_2_8@@UBE_NPBVDOMNode@2@@Z
       4925 133C 00184560 ?isEquivalentTo@SubstitutionGroupComparator@xercesc_2_8@@QAE_NQAVQName@2@0@Z
       4926 133D 000F0290 ?isExternal@XMLAttDef@xercesc_2_8@@QBE_NXZ
       4927 133E 000F18B0 ?isExternal@XMLElementDecl@xercesc_2_8@@QBE_NXZ
       4928 133F 000F1C60 ?isExternal@XMLEntityDecl@xercesc_2_8@@QBE_NXZ
       4929 1340 0014F830 ?isFailedRedefine@SchemaInfo@xercesc_2_8@@QAE_NQBVDOMElement@2@@Z
       4930 1341 001ADD70 ?isFinal@XSTypeDefinition@xercesc_2_8@@QAE_NF@Z
       4931 1342 00103960 ?isFirstAdopted@ContentSpecNode@xercesc_2_8@@QBE_NXZ
       4932 1343 00120550 ?isFirstChild@DOMNodeImpl@xercesc_2_8@@QAEX_N@Z
       4933 1344 00120540 ?isFirstChild@DOMNodeImpl@xercesc_2_8@@QBE_NXZ
       4934 1345 000EE000 ?isFirstNCNameChar@XMLChar1_0@xercesc_2_8@@SA_N_W0@Z
       4935 1346 000EE200 ?isFirstNCNameChar@XMLChar1_1@xercesc_2_8@@SA_N_W0@Z
       4936 1347 000F2520 ?isFirstNCNameChar@XMLReader@xercesc_2_8@@QBE_N_W@Z
       4937 1348 000EDFE0 ?isFirstNameChar@XMLChar1_0@xercesc_2_8@@SA_N_W0@Z
       4938 1349 000EE1B0 ?isFirstNameChar@XMLChar1_1@xercesc_2_8@@SA_N_W0@Z
       4939 134A 000F2500 ?isFirstNameChar@XMLReader@xercesc_2_8@@QBE_N_W@Z
       4940 134B 001A9270 ?isFixed@XSFacet@xercesc_2_8@@QBE_NXZ
       4941 134C 001A9270 ?isFixed@XSMultiValueFacet@xercesc_2_8@@QBE_NXZ
       4942 134D 001C1260 ?isFixedFacet@XSSimpleTypeDefinition@xercesc_2_8@@QAE_NW4FACET@12@@Z
       4943 134E 001B8FC0 ?isGenericURI@XMLUri@xercesc_2_8@@AAE_NXZ
       4944 134F 000F3F30 ?isGlobalDecl@SchemaElementDecl@xercesc_2_8@@UBE_NXZ
       4945 1350 001ACFE0 ?isHex@HexBin@xercesc_2_8@@CA_NAB_W@Z
       4946 1351 000FC680 ?isHex@XMLString@xercesc_2_8@@SA_N_W@Z
       4947 1352 000F0B60 ?isHighSurrogate@RegxUtil@xercesc_2_8@@SA_N_W@Z
       4948 1353 00164440 ?isId@DOMAttrImpl@xercesc_2_8@@UBE_NXZ
       4949 1354 00120620 ?isIdAttr@DOMNodeImpl@xercesc_2_8@@QAEX_N@Z
       4950 1355 00120610 ?isIdAttr@DOMNodeImpl@xercesc_2_8@@QBE_NXZ
       4951 1356 0019F6D0 ?isIdentityConstraintName@TraverseSchema@xercesc_2_8@@AAE_NQB_W@Z
       4952 1357 001609D0 ?isIgnorableWhitespace@DOMCDATASectionImpl@xercesc_2_8@@UBE_NXZ
       4953 1358 001609D0 ?isIgnorableWhitespace@DOMTextImpl@xercesc_2_8@@UBE_NXZ
       4954 1359 0014F920 ?isImportingNS@SchemaInfo@xercesc_2_8@@QAE_NH@Z
       4955 135A 000FD6A0 ?isInList@XMLString@xercesc_2_8@@SA_NQB_W0@Z
       4956 135B 0075B8BD ?isInitialized@Base64@xercesc_2_8@@0_NA
       4957 135C 0075B8BC ?isInitialized@HexBin@xercesc_2_8@@0_NA
       4958 135D 00104390 ?isIntSubsetReading@DOMDocumentTypeImpl@xercesc_2_8@@ABE_NXZ
       4959 135E 00168460 ?isKidOK@DOMDocumentImpl@xercesc_2_8@@SA_NPAVDOMNode@2@0@Z
       4960 135F 00120690 ?isLeafNode@DOMNodeImpl@xercesc_2_8@@QBE_NXZ
       4961 1360 001AFEE0 ?isLegalContainedNode@DOMRangeImpl@xercesc_2_8@@ABE_NPBVDOMNode@2@@Z
       4962 1361 00109510 ?isLegalToken@XMLScanner@xercesc_2_8@@IAE_NABVXMLPScanToken@2@@Z
       4963 1362 000EDC70 ?isLoading@XSerializeEngine@xercesc_2_8@@QBE_NXZ
       4964 1363 000F0B40 ?isLowSurrogate@RegxUtil@xercesc_2_8@@SA_N_W@Z
       4965 1364 00118250 ?isMatched@XPathMatcher@xercesc_2_8@@QAEHXZ
       4966 1365 001AB5C0 ?isMultiValueFacetDefined@XSObjectFactory@xercesc_2_8@@AAE_NQAVDatatypeValidator@2@@Z
       4967 1366 000EE050 ?isNCNameChar@XMLChar1_0@xercesc_2_8@@SA_N_W0@Z
       4968 1367 000EE2B0 ?isNCNameChar@XMLChar1_1@xercesc_2_8@@SA_N_W0@Z
       4969 1368 000F24C0 ?isNCNameChar@XMLReader@xercesc_2_8@@QBE_N_W@Z
       4970 1369 001025A0 ?isNELRecognized@XMLChar1_0@xercesc_2_8@@SA_NXZ
       4971 136A 001025A0 ?isNELRecognized@XMLPlatformUtils@xercesc_2_8@@SA_NXZ
       4972 136B 000EE030 ?isNameChar@XMLChar1_0@xercesc_2_8@@SA_N_W0@Z
       4973 136C 000EE260 ?isNameChar@XMLChar1_1@xercesc_2_8@@SA_N_W0@Z
       4974 136D 000F24A0 ?isNameChar@XMLReader@xercesc_2_8@@QBE_N_W@Z
       4975 136E 0012B1E0 ?isNormalized@XMLDateTime@xercesc_2_8@@ABE_NXZ
       4976 136F 00147020 ?isOccurrenceRangeOK@SchemaValidator@xercesc_2_8@@AAE_NHHHH@Z
       4977 1370 00120520 ?isOwned@DOMNodeImpl@xercesc_2_8@@QAEX_N@Z
       4978 1371 00120510 ?isOwned@DOMNodeImpl@xercesc_2_8@@QBE_NXZ
       4979 1372 0015C750 ?isPad@Base64@xercesc_2_8@@CA_NABE@Z
       4980 1373 000EDF00 ?isPathCharacter@XMLUri@xercesc_2_8@@CA_N_W@Z
       4981 1374 000EE070 ?isPlainContentChar@XMLChar1_0@xercesc_2_8@@SA_N_W0@Z
       4982 1375 000EE300 ?isPlainContentChar@XMLChar1_1@xercesc_2_8@@SA_N_W0@Z
       4983 1376 000F24E0 ?isPlainContentChar@XMLReader@xercesc_2_8@@QBE_N_W@Z
       4984 1377 000D24C0 ?isPrefixUnknown@ValidationContext@xercesc_2_8@@UAE_NPA_W@Z
       4985 1378 00135BE0 ?isPrefixUnknown@ValidationContextImpl@xercesc_2_8@@UAE_NPA_W@Z
       4986 1379 0015F5F0 ?isProhibitedSubstitution@XSComplexTypeDefinition@xercesc_2_8@@QAE_NW4DERIVATION_TYPE@XSConstants@2@@Z
       4987 137A 000FE680 ?isPublicIdChar@XMLChar1_0@xercesc_2_8@@SA_N_W0@Z
       4988 137B 000FE680 ?isPublicIdChar@XMLChar1_1@xercesc_2_8@@SA_N_W0@Z
       4989 137C 00111420 ?isPublicIdChar@XMLReader@xercesc_2_8@@QBE_N_W@Z
       4990 137D 00120490 ?isReadOnly@DOMNodeImpl@xercesc_2_8@@QAEX_N@Z
       4991 137E 00120480 ?isReadOnly@DOMNodeImpl@xercesc_2_8@@QBE_NXZ
       4992 137F 001424F0 ?isReadingExternalEntity@DTDScanner@xercesc_2_8@@AAE_NXZ
       4993 1380 000FF970 ?isRelative@XMLPlatformUtils@xercesc_2_8@@SA_NQB_WQAVMemoryManager@2@@Z
       4994 1381 000EEEB0 ?isRelative@XMLURL@xercesc_2_8@@QBE_NXZ
       4995 1382 000EDEE0 ?isReservedCharacter@XMLUri@xercesc_2_8@@CA_N_W@Z
       4996 1383 000EDEA0 ?isReservedOrUnreservedCharacter@XMLUri@xercesc_2_8@@CA_N_W@Z
       4997 1384 001B9F80 ?isSameNode@DOMAttrImpl@xercesc_2_8@@UBE_NPBVDOMNode@2@@Z
       4998 1385 001B9F80 ?isSameNode@DOMCDATASectionImpl@xercesc_2_8@@UBE_NPBVDOMNode@2@@Z
       4999 1386 001B9F80 ?isSameNode@DOMCommentImpl@xercesc_2_8@@UBE_NPBVDOMNode@2@@Z
       5000 1387 001B9F80 ?isSameNode@DOMDocumentFragmentImpl@xercesc_2_8@@UBE_NPBVDOMNode@2@@Z
       5001 1388 001B9F80 ?isSameNode@DOMDocumentImpl@xercesc_2_8@@UBE_NPBVDOMNode@2@@Z
       5002 1389 001B9F80 ?isSameNode@DOMDocumentTypeImpl@xercesc_2_8@@UBE_NPBVDOMNode@2@@Z
       5003 138A 001B9F80 ?isSameNode@DOMElementImpl@xercesc_2_8@@UBE_NPBVDOMNode@2@@Z
       5004 138B 001B9F80 ?isSameNode@DOMEntityImpl@xercesc_2_8@@UBE_NPBVDOMNode@2@@Z
       5005 138C 001B9F80 ?isSameNode@DOMEntityReferenceImpl@xercesc_2_8@@UBE_NPBVDOMNode@2@@Z
       5006 138D 00162F30 ?isSameNode@DOMNodeImpl@xercesc_2_8@@QBE_NPBVDOMNode@2@@Z
       5007 138E 001B9F80 ?isSameNode@DOMNotationImpl@xercesc_2_8@@UBE_NPBVDOMNode@2@@Z
       5008 138F 001B9F80 ?isSameNode@DOMProcessingInstructionImpl@xercesc_2_8@@UBE_NPBVDOMNode@2@@Z
       5009 1390 001B9F80 ?isSameNode@DOMTextImpl@xercesc_2_8@@UBE_NPBVDOMNode@2@@Z
       5010 1391 00119F20 ?isScanningPERefOutOfLiteral@ReaderMgr@xercesc_2_8@@QBE_NXZ
       5011 1392 000F4840 ?isSecondAdopted@ContentSpecNode@xercesc_2_8@@QBE_NXZ
       5012 1393 00182C50 ?isSerializable@AbstractNumericFacetValidator@xercesc_2_8@@UBE_NXZ
       5013 1394 00182C50 ?isSerializable@AbstractNumericValidator@xercesc_2_8@@UBE_NXZ
       5014 1395 00182C50 ?isSerializable@AbstractStringValidator@xercesc_2_8@@UBE_NXZ
       5015 1396 00182C50 ?isSerializable@AnySimpleTypeDatatypeValidator@xercesc_2_8@@UBE_NXZ
       5016 1397 00182C50 ?isSerializable@AnyURIDatatypeValidator@xercesc_2_8@@UBE_NXZ
       5017 1398 00182C50 ?isSerializable@Base64BinaryDatatypeValidator@xercesc_2_8@@UBE_NXZ
       5018 1399 00182C50 ?isSerializable@BooleanDatatypeValidator@xercesc_2_8@@UBE_NXZ
       5019 139A 00182C50 ?isSerializable@ComplexTypeInfo@xercesc_2_8@@UBE_NXZ
       5020 139B 00182C50 ?isSerializable@ContentSpecNode@xercesc_2_8@@UBE_NXZ
       5021 139C 00182C50 ?isSerializable@DTDAttDef@xercesc_2_8@@UBE_NXZ
       5022 139D 00182C50 ?isSerializable@DTDAttDefList@xercesc_2_8@@UBE_NXZ
       5023 139E 00182C50 ?isSerializable@DTDElementDecl@xercesc_2_8@@UBE_NXZ
       5024 139F 00182C50 ?isSerializable@DTDEntityDecl@xercesc_2_8@@UBE_NXZ
       5025 13A0 00182C50 ?isSerializable@DTDGrammar@xercesc_2_8@@UBE_NXZ
       5026 13A1 00182C50 ?isSerializable@DatatypeValidator@xercesc_2_8@@UBE_NXZ
       5027 13A2 00182C50 ?isSerializable@DatatypeValidatorFactory@xercesc_2_8@@UBE_NXZ
       5028 13A3 00182C50 ?isSerializable@DateDatatypeValidator@xercesc_2_8@@UBE_NXZ
       5029 13A4 00182C50 ?isSerializable@DateTimeDatatypeValidator@xercesc_2_8@@UBE_NXZ
       5030 13A5 00182C50 ?isSerializable@DateTimeValidator@xercesc_2_8@@UBE_NXZ
       5031 13A6 00182C50 ?isSerializable@DayDatatypeValidator@xercesc_2_8@@UBE_NXZ
       5032 13A7 00182C50 ?isSerializable@DecimalDatatypeValidator@xercesc_2_8@@UBE_NXZ
       5033 13A8 00182C50 ?isSerializable@DoubleDatatypeValidator@xercesc_2_8@@UBE_NXZ
       5034 13A9 00182C50 ?isSerializable@DurationDatatypeValidator@xercesc_2_8@@UBE_NXZ
       5035 13AA 00182C50 ?isSerializable@ENTITYDatatypeValidator@xercesc_2_8@@UBE_NXZ
       5036 13AB 00182C50 ?isSerializable@FloatDatatypeValidator@xercesc_2_8@@UBE_NXZ
       5037 13AC 00182C50 ?isSerializable@Grammar@xercesc_2_8@@UBE_NXZ
       5038 13AD 00182C50 ?isSerializable@HexBinaryDatatypeValidator@xercesc_2_8@@UBE_NXZ
       5039 13AE 00182C50 ?isSerializable@IC_Field@xercesc_2_8@@UBE_NXZ
       5040 13AF 00182C50 ?isSerializable@IC_Key@xercesc_2_8@@UBE_NXZ
       5041 13B0 00182C50 ?isSerializable@IC_KeyRef@xercesc_2_8@@UBE_NXZ
       5042 13B1 00182C50 ?isSerializable@IC_Selector@xercesc_2_8@@UBE_NXZ
       5043 13B2 00182C50 ?isSerializable@IC_Unique@xercesc_2_8@@UBE_NXZ
       5044 13B3 00182C50 ?isSerializable@IDDatatypeValidator@xercesc_2_8@@UBE_NXZ
       5045 13B4 00182C50 ?isSerializable@IDREFDatatypeValidator@xercesc_2_8@@UBE_NXZ
       5046 13B5 00182C50 ?isSerializable@IdentityConstraint@xercesc_2_8@@UBE_NXZ
       5047 13B6 00182C50 ?isSerializable@KVStringPair@xercesc_2_8@@UBE_NXZ
       5048 13B7 00182C50 ?isSerializable@ListDatatypeValidator@xercesc_2_8@@UBE_NXZ
       5049 13B8 00182C50 ?isSerializable@MonthDatatypeValidator@xercesc_2_8@@UBE_NXZ
       5050 13B9 00182C50 ?isSerializable@MonthDayDatatypeValidator@xercesc_2_8@@UBE_NXZ
       5051 13BA 00182C50 ?isSerializable@NCNameDatatypeValidator@xercesc_2_8@@UBE_NXZ
       5052 13BB 00182C50 ?isSerializable@NOTATIONDatatypeValidator@xercesc_2_8@@UBE_NXZ
       5053 13BC 00182C50 ?isSerializable@NameDatatypeValidator@xercesc_2_8@@UBE_NXZ
       5054 13BD 00182C50 ?isSerializable@QName@xercesc_2_8@@UBE_NXZ
       5055 13BE 00182C50 ?isSerializable@QNameDatatypeValidator@xercesc_2_8@@UBE_NXZ
       5056 13BF 00182C50 ?isSerializable@SchemaAttDef@xercesc_2_8@@UBE_NXZ
       5057 13C0 00182C50 ?isSerializable@SchemaAttDefList@xercesc_2_8@@UBE_NXZ
       5058 13C1 00182C50 ?isSerializable@SchemaElementDecl@xercesc_2_8@@UBE_NXZ
       5059 13C2 00182C50 ?isSerializable@SchemaGrammar@xercesc_2_8@@UBE_NXZ
       5060 13C3 00182C50 ?isSerializable@StringDatatypeValidator@xercesc_2_8@@UBE_NXZ
       5061 13C4 00182C50 ?isSerializable@TimeDatatypeValidator@xercesc_2_8@@UBE_NXZ
       5062 13C5 00182C50 ?isSerializable@UnionDatatypeValidator@xercesc_2_8@@UBE_NXZ
       5063 13C6 00182C50 ?isSerializable@XMLAbstractDoubleFloat@xercesc_2_8@@UBE_NXZ
       5064 13C7 00182C50 ?isSerializable@XMLAttDef@xercesc_2_8@@UBE_NXZ
       5065 13C8 00182C50 ?isSerializable@XMLAttDefList@xercesc_2_8@@UBE_NXZ
       5066 13C9 00182C50 ?isSerializable@XMLBigDecimal@xercesc_2_8@@UBE_NXZ
       5067 13CA 00182C50 ?isSerializable@XMLDTDDescription@xercesc_2_8@@UBE_NXZ
       5068 13CB 00182C50 ?isSerializable@XMLDTDDescriptionImpl@xercesc_2_8@@UBE_NXZ
       5069 13CC 00182C50 ?isSerializable@XMLDateTime@xercesc_2_8@@UBE_NXZ
       5070 13CD 00182C50 ?isSerializable@XMLDouble@xercesc_2_8@@UBE_NXZ
       5071 13CE 00182C50 ?isSerializable@XMLElementDecl@xercesc_2_8@@UBE_NXZ
       5072 13CF 00182C50 ?isSerializable@XMLEntityDecl@xercesc_2_8@@UBE_NXZ
       5073 13D0 00182C50 ?isSerializable@XMLFloat@xercesc_2_8@@UBE_NXZ
       5074 13D1 00182C50 ?isSerializable@XMLGrammarDescription@xercesc_2_8@@UBE_NXZ
       5075 13D2 00182C50 ?isSerializable@XMLNotationDecl@xercesc_2_8@@UBE_NXZ
       5076 13D3 00182C50 ?isSerializable@XMLNumber@xercesc_2_8@@UBE_NXZ
       5077 13D4 00182C50 ?isSerializable@XMLRefInfo@xercesc_2_8@@UBE_NXZ
       5078 13D5 00182C50 ?isSerializable@XMLSchemaDescription@xercesc_2_8@@UBE_NXZ
       5079 13D6 00182C50 ?isSerializable@XMLSchemaDescriptionImpl@xercesc_2_8@@UBE_NXZ
       5080 13D7 00182C50 ?isSerializable@XMLStringPool@xercesc_2_8@@UBE_NXZ
       5081 13D8 00182C50 ?isSerializable@XMLUri@xercesc_2_8@@UBE_NXZ
       5082 13D9 00182C50 ?isSerializable@XSAnnotation@xercesc_2_8@@UBE_NXZ
       5083 13DA 00182C50 ?isSerializable@XercesAttGroupInfo@xercesc_2_8@@UBE_NXZ
       5084 13DB 00182C50 ?isSerializable@XercesGroupInfo@xercesc_2_8@@UBE_NXZ
       5085 13DC 00182C50 ?isSerializable@XercesLocationPath@xercesc_2_8@@UBE_NXZ
       5086 13DD 00182C50 ?isSerializable@XercesNodeTest@xercesc_2_8@@UBE_NXZ
       5087 13DE 00182C50 ?isSerializable@XercesStep@xercesc_2_8@@UBE_NXZ
       5088 13DF 00182C50 ?isSerializable@XercesXPath@xercesc_2_8@@UBE_NXZ
       5089 13E0 00182C50 ?isSerializable@YearDatatypeValidator@xercesc_2_8@@UBE_NXZ
       5090 13E1 00182C50 ?isSerializable@YearMonthDatatypeValidator@xercesc_2_8@@UBE_NXZ
       5091 13E2 000F0CC0 ?isSet@RegularExpression@xercesc_2_8@@SA_NHH@Z
       5092 13E3 0010A530 ?isSet@RegxParser@xercesc_2_8@@AAE_NH@Z
       5093 13E4 000F0890 ?isSet@Token@xercesc_2_8@@AAE_NHI@Z
       5094 13E5 0011FB60 ?isShorterThan@Token@xercesc_2_8@@AAE_NQAV12@@Z
       5095 13E6 001244B0 ?isSpace@Win32TransService@xercesc_2_8@@UBE_N_W@Z
       5096 13E7 000EE0C0 ?isSpecialStartTagChar@XMLChar1_0@xercesc_2_8@@SA_N_W0@Z
       5097 13E8 000EE350 ?isSpecialStartTagChar@XMLChar1_1@xercesc_2_8@@SA_N_W0@Z
       5098 13E9 000F2550 ?isSpecialStartTagChar@XMLReader@xercesc_2_8@@QBE_N_W@Z
       5099 13EA 0012AC40 ?isSpecialValue@XMLAbstractDoubleFloat@xercesc_2_8@@ABE_NXZ
       5100 13EB 00120580 ?isSpecified@DOMNodeImpl@xercesc_2_8@@QAEX_N@Z
       5101 13EC 00120570 ?isSpecified@DOMNodeImpl@xercesc_2_8@@QBE_NXZ
       5102 13ED 000EDC60 ?isStoring@XSerializeEngine@xercesc_2_8@@QBE_NXZ
       5103 13EE 001025D0 ?isStrictIANAEncoding@XMLPlatformUtils@xercesc_2_8@@SA_NXZ
       5104 13EF 001274D0 ?isStrictIANAEncoding@XMLTransService@xercesc_2_8@@AAE_NXZ
       5105 13F0 000D24C0 ?isSubstitutableBy@AnySimpleTypeDatatypeValidator@xercesc_2_8@@UAE_NQBVDatatypeValidator@2@@Z
       5106 13F1 000F1590 ?isSubstitutableBy@DatatypeValidator@xercesc_2_8@@UAE_NQBV12@@Z
       5107 13F2 000F3380 ?isSubstitutableBy@UnionDatatypeValidator@xercesc_2_8@@UAE_NQBVDatatypeValidator@2@@Z
       5108 13F3 001A5550 ?isSubstitutionGroupCircular@TraverseSchema@xercesc_2_8@@AAE_NQAVSchemaElementDecl@2@0@Z
       5109 13F4 00164830 ?isSubstitutionGroupExclusion@XSElementDeclaration@xercesc_2_8@@QAE_NW4DERIVATION_TYPE@XSConstants@2@@Z
       5110 13F5 0019FED0 ?isSubstitutionGroupValid@TraverseSchema@xercesc_2_8@@AAE_NQBVDOMElement@2@QBVSchemaElementDecl@2@QBVComplexTypeInfo@2@QBVDatatypeValidator@2@QB_W_N@Z
       5111 13F6 00164570 ?isSupported@DOMAttrImpl@xercesc_2_8@@UBE_NPB_W0@Z
       5112 13F7 001B9F70 ?isSupported@DOMCDATASectionImpl@xercesc_2_8@@UBE_NPB_W0@Z
       5113 13F8 001B9F70 ?isSupported@DOMCommentImpl@xercesc_2_8@@UBE_NPB_W0@Z
       5114 13F9 001B9F70 ?isSupported@DOMDocumentFragmentImpl@xercesc_2_8@@UBE_NPB_W0@Z
       5115 13FA 001B9F70 ?isSupported@DOMDocumentImpl@xercesc_2_8@@UBE_NPB_W0@Z
       5116 13FB 0016BC60 ?isSupported@DOMDocumentTypeImpl@xercesc_2_8@@UBE_NPB_W0@Z
       5117 13FC 001B9F70 ?isSupported@DOMElementImpl@xercesc_2_8@@UBE_NPB_W0@Z
       5118 13FD 00164570 ?isSupported@DOMElementNSImpl@xercesc_2_8@@UBE_NPB_W0@Z
       5119 13FE 001B9F70 ?isSupported@DOMEntityImpl@xercesc_2_8@@UBE_NPB_W0@Z
       5120 13FF 001B9F70 ?isSupported@DOMEntityReferenceImpl@xercesc_2_8@@UBE_NPB_W0@Z
       5121 1400 001B9F70 ?isSupported@DOMNodeImpl@xercesc_2_8@@QBE_NPB_W0@Z
       5122 1401 001B9F70 ?isSupported@DOMNotationImpl@xercesc_2_8@@UBE_NPB_W0@Z
       5123 1402 001B9F70 ?isSupported@DOMProcessingInstructionImpl@xercesc_2_8@@UBE_NPB_W0@Z
       5124 1403 001B9F70 ?isSupported@DOMTextImpl@xercesc_2_8@@UBE_NPB_W0@Z
       5125 1404 00120720 ?isToBeReleased@DOMNodeImpl@xercesc_2_8@@QAEX_N@Z
       5126 1405 00120710 ?isToBeReleased@DOMNodeImpl@xercesc_2_8@@QBE_NXZ
       5127 1406 000F3610 ?isTypeDefinitionUnion@SchemaAttDef@xercesc_2_8@@QBE_NXZ
       5128 1407 000F4060 ?isTypeDefinitionUnion@SchemaElementDecl@xercesc_2_8@@QBE_NXZ
       5129 1408 000FA490 ?isURIString@XMLUri@xercesc_2_8@@SA_NQB_W@Z
       5130 1409 000F1C80 ?isUnparsed@XMLEntityDecl@xercesc_2_8@@QBE_NXZ
       5131 140A 000EDF20 ?isUnreservedCharacter@XMLUri@xercesc_2_8@@CA_N_W@Z
       5132 140B 000F57E0 ?isUsingCachedGrammarInParse@SAXParser@xercesc_2_8@@QBE_NXZ
       5133 140C 000F4790 ?isUsingCachedGrammarInParse@XMLScanner@xercesc_2_8@@QBE_NXZ
       5134 140D 000F77C0 ?isUsingCachedGrammarInParse@XercesDOMParser@xercesc_2_8@@QBE_NXZ
       5135 140E 001AFE00 ?isValidAncestorType@DOMRangeImpl@xercesc_2_8@@ABE_NPBVDOMNode@2@@Z
       5136 140F 000FC530 ?isValidEncName@XMLString@xercesc_2_8@@SA_NQB_W@Z
       5137 1410 0016E010 ?isValidEncoding@EncodingValidator@xercesc_2_8@@QAE_NQB_W@Z
       5138 1411 000FE190 ?isValidNCName@XMLChar1_0@xercesc_2_8@@SA_NQB_WI@Z
       5139 1412 000FE370 ?isValidNCName@XMLChar1_1@xercesc_2_8@@SA_NQB_WI@Z
       5140 1413 000FC490 ?isValidNCName@XMLString@xercesc_2_8@@SA_NQB_W@Z
       5141 1414 000FC360 ?isValidNOTATION@XMLString@xercesc_2_8@@SA_NQB_WQAVMemoryManager@2@@Z
       5142 1415 000FE250 ?isValidName@XMLChar1_0@xercesc_2_8@@SA_NQB_W@Z
       5143 1416 000FE210 ?isValidName@XMLChar1_0@xercesc_2_8@@SA_NQB_WI@Z
       5144 1417 000FE570 ?isValidName@XMLChar1_1@xercesc_2_8@@SA_NQB_W@Z
       5145 1418 000FE4B0 ?isValidName@XMLChar1_1@xercesc_2_8@@SA_NQB_WI@Z
       5146 1419 000FC4E0 ?isValidName@XMLString@xercesc_2_8@@SA_NQB_W@Z
       5147 141A 000FE1E0 ?isValidNmtoken@XMLChar1_0@xercesc_2_8@@SA_NQB_WI@Z
       5148 141B 000FE430 ?isValidNmtoken@XMLChar1_1@xercesc_2_8@@SA_NQB_WI@Z
       5149 141C 000FE290 ?isValidQName@XMLChar1_0@xercesc_2_8@@SA_NQB_WI@Z
       5150 141D 000FE620 ?isValidQName@XMLChar1_1@xercesc_2_8@@SA_NQB_WI@Z
       5151 141E 000FC5D0 ?isValidQName@XMLString@xercesc_2_8@@SA_NQB_W@Z
       5152 141F 000FA370 ?isValidRegistryBasedAuthority@XMLUri@xercesc_2_8@@CA_NQB_W@Z
       5153 1420 000FA240 ?isValidRegistryBasedAuthority@XMLUri@xercesc_2_8@@CA_NQB_WH@Z
       5154 1421 000FA160 ?isValidServerBasedAuthority@XMLUri@xercesc_2_8@@CA_NQB_WH0QAVMemoryManager@2@@Z
       5155 1422 000FA050 ?isValidServerBasedAuthority@XMLUri@xercesc_2_8@@CA_NQB_WHH0H@Z
       5156 1423 000FACB0 ?isValidURI@XMLUri@xercesc_2_8@@SA_NQBV12@QB_W@Z
       5157 1424 000FAE90 ?isValidURI@XMLUri@xercesc_2_8@@SA_N_NQB_W@Z
       5158 1425 000F0290 ?isValidatorFromUser@XMLScanner@xercesc_2_8@@QAE_NXZ
       5159 1426 000FD840 ?isWSCollapsed@XMLString@xercesc_2_8@@SA_NQB_W@Z
       5160 1427 000FD750 ?isWSReplaced@XMLString@xercesc_2_8@@SA_NQB_W@Z
       5161 1428 000FB070 ?isWellFormedAddress@XMLUri@xercesc_2_8@@CA_NQB_WH@Z
       5162 1429 000FA560 ?isWellFormedAddress@XMLUri@xercesc_2_8@@CA_NQB_WQAVMemoryManager@2@@Z
       5163 142A 000FA6D0 ?isWellFormedIPv4Address@XMLUri@xercesc_2_8@@CA_NQB_WH@Z
       5164 142B 000FA770 ?isWellFormedIPv6Reference@XMLUri@xercesc_2_8@@CA_NQB_WH@Z
       5165 142C 000EE140 ?isWhitespace@XMLChar1_0@xercesc_2_8@@SA_N_W0@Z
       5166 142D 000EE130 ?isWhitespace@XMLChar1_0@xercesc_2_8@@SA_N_W@Z
       5167 142E 000EE3C0 ?isWhitespace@XMLChar1_1@xercesc_2_8@@SA_N_W0@Z
       5168 142F 000F25C0 ?isWhitespace@XMLReader@xercesc_2_8@@QBE_N_W@Z
       5169 1430 0018DFF0 ?isWildCardEltSubset@SchemaValidator@xercesc_2_8@@AAE_NQBVContentSpecNode@2@0@Z
       5170 1431 001A42E0 ?isWildCardSubset@TraverseSchema@xercesc_2_8@@AAE_NQBVSchemaAttDef@2@0@Z
       5171 1432 000F0BB0 ?isWordChar@RegxUtil@xercesc_2_8@@SA_N_W@Z
       5172 1433 000EE0E0 ?isXMLChar@XMLChar1_0@xercesc_2_8@@SA_N_W0@Z
       5173 1434 000EE370 ?isXMLChar@XMLChar1_1@xercesc_2_8@@SA_N_W0@Z
       5174 1435 000F2570 ?isXMLChar@XMLReader@xercesc_2_8@@QBE_N_W@Z
       5175 1436 000EDFA0 ?isXMLLetter@XMLChar1_0@xercesc_2_8@@SA_N_W0@Z
       5176 1437 000EE180 ?isXMLLetter@XMLChar1_1@xercesc_2_8@@SA_N_W0@Z
       5177 1438 000F2590 ?isXMLLetter@XMLReader@xercesc_2_8@@QBE_N_W@Z
       5178 1439 00167EF0 ?isXMLName@DOMDocumentImpl@xercesc_2_8@@QAE_NPB_W@Z
       5179 143A 001B3080 ?item@DOMAttrMapImpl@xercesc_2_8@@UBEPAVDOMNode@2@K@Z
       5180 143B 001B9350 ?item@DOMDeepNodeListImpl@xercesc_2_8@@UBEPAVDOMNode@2@K@Z
       5181 143C 001BA310 ?item@DOMNamedNodeMapImpl@xercesc_2_8@@UBEPAVDOMNode@2@K@Z
       5182 143D 0016BDB0 ?item@DOMNodeListImpl@xercesc_2_8@@UBEPAVDOMNode@2@K@Z
       5183 143E 00110DC0 ?keyAt@FieldValueMap@xercesc_2_8@@QBEPAVIC_Field@2@I@Z
       5184 143F 0015FDD0 ?lastChild@DOMParentNode@xercesc_2_8@@QAEXPAVDOMNode@2@@Z
       5185 1440 0015FDA0 ?lastChild@DOMParentNode@xercesc_2_8@@QBEPAVDOMNode@2@XZ
       5186 1441 001B7B20 ?lastChild@DOMTreeWalkerImpl@xercesc_2_8@@UAEPAVDOMNode@2@XZ
       5187 1442 000FBE20 ?lastIndexOf@XMLString@xercesc_2_8@@SAHQBDD@Z
       5188 1443 000FBE50 ?lastIndexOf@XMLString@xercesc_2_8@@SAHQBDDIQAVMemoryManager@2@@Z
       5189 1444 000ED0F0 ?lastIndexOf@XMLString@xercesc_2_8@@SAHQB_W_W@Z
       5190 1445 000FCE40 ?lastIndexOf@XMLString@xercesc_2_8@@SAHQB_W_WIQAVMemoryManager@2@@Z
       5191 1446 000FCE10 ?lastIndexOf@XMLString@xercesc_2_8@@SAH_WQB_WI@Z
       5192 1447 00193070 ?laxElementValidation@IGXMLScanner@xercesc_2_8@@AAE_NPAVQName@2@PAVContentLeafNameTypeVector@2@QBVXMLContentModel@2@I@Z
       5193 1448 00193070 ?laxElementValidation@SGXMLScanner@xercesc_2_8@@IAE_NPAVQName@2@PAVContentLeafNameTypeVector@2@QBVXMLContentModel@2@I@Z
       5194 1449 00125470 ?load@XProtoType@xercesc_2_8@@SAXAAVXSerializeEngine@2@QAEQAVMemoryManager@2@@Z
       5195 144A 000FFBC0 ?loadAMsgSet@XMLPlatformUtils@xercesc_2_8@@CAPAVXMLMsgLoader@2@QB_W@Z
       5196 144B 0017EC30 ?loadClusive@AbstractNumericFacetValidator@xercesc_2_8@@AAEXAAVXSerializeEngine@2@AA_NAAPAVXMLNumber@2@W4NumberType@42@H@Z
       5197 144C 001652C0 ?loadDOMExceptionMsg@DOMImplementation@xercesc_2_8@@SA_NW4ExceptionCode@DOMException@2@QA_WI@Z
       5198 144D 001652F0 ?loadDOMExceptionMsg@DOMImplementation@xercesc_2_8@@SA_NW4RangeExceptionCode@DOMRangeException@2@QA_WI@Z
       5199 144E 00144590 ?loadDTDGrammar@DGXMLScanner@xercesc_2_8@@AAEPAVGrammar@2@ABVInputSource@2@_N@Z
       5200 144F 0014B540 ?loadDTDGrammar@IGXMLScanner@xercesc_2_8@@AAEPAVGrammar@2@ABVInputSource@2@_N@Z
       5201 1450 0012BA40 ?loadDV@DatatypeValidator@xercesc_2_8@@SAPAV12@AAVXSerializeEngine@2@@Z
       5202 1451 00102FA0 ?loadElementDecl@XMLElementDecl@xercesc_2_8@@SAPAV12@AAVXSerializeEngine@2@@Z
       5203 1452 000FED70 ?loadExceptText@XMLException@xercesc_2_8@@IAEXW4Codes@XMLExcepts@2@@Z
       5204 1453 000FEEB0 ?loadExceptText@XMLException@xercesc_2_8@@IAEXW4Codes@XMLExcepts@2@QBD111@Z
       5205 1454 000FEDF0 ?loadExceptText@XMLException@xercesc_2_8@@IAEXW4Codes@XMLExcepts@2@QB_W111@Z
       5206 1455 00144400 ?loadGrammar@DGXMLScanner@xercesc_2_8@@UAEPAVGrammar@2@ABVInputSource@2@F_N@Z
       5207 1456 001B6EB0 ?loadGrammar@DOMBuilderImpl@xercesc_2_8@@UAEPAVGrammar@2@ABVDOMInputSource@2@F_N@Z
       5208 1457 001B6CD0 ?loadGrammar@DOMBuilderImpl@xercesc_2_8@@UAEPAVGrammar@2@QBDF_N@Z
       5209 1458 001B6DC0 ?loadGrammar@DOMBuilderImpl@xercesc_2_8@@UAEPAVGrammar@2@QB_WF_N@Z
       5210 1459 0011B7A0 ?loadGrammar@Grammar@xercesc_2_8@@SAPAV12@AAVXSerializeEngine@2@@Z
       5211 145A 0014B390 ?loadGrammar@IGXMLScanner@xercesc_2_8@@UAEPAVGrammar@2@ABVInputSource@2@F_N@Z
       5212 145B 001BE3D0 ?loadGrammar@SAX2XMLReaderImpl@xercesc_2_8@@UAEPAVGrammar@2@ABVInputSource@2@F_N@Z
       5213 145C 001BE230 ?loadGrammar@SAX2XMLReaderImpl@xercesc_2_8@@UAEPAVGrammar@2@QBDF_N@Z
       5214 145D 001BE300 ?loadGrammar@SAX2XMLReaderImpl@xercesc_2_8@@UAEPAVGrammar@2@QB_WF_N@Z
       5215 145E 000F69C0 ?loadGrammar@SAXParser@xercesc_2_8@@QAEPAVGrammar@2@ABVInputSource@2@F_N@Z
       5216 145F 000F6820 ?loadGrammar@SAXParser@xercesc_2_8@@QAEPAVGrammar@2@QBDF_N@Z
       5217 1460 000F68F0 ?loadGrammar@SAXParser@xercesc_2_8@@QAEPAVGrammar@2@QB_WF_N@Z
       5218 1461 001521D0 ?loadGrammar@SGXMLScanner@xercesc_2_8@@UAEPAVGrammar@2@ABVInputSource@2@F_N@Z
       5219 1462 00084FE0 ?loadGrammar@WFXMLScanner@xercesc_2_8@@UAEPAVGrammar@2@ABVInputSource@2@F_N@Z
       5220 1463 001091C0 ?loadGrammar@XMLScanner@xercesc_2_8@@QAEPAVGrammar@2@QBDF_N@Z
       5221 1464 00108E70 ?loadGrammar@XMLScanner@xercesc_2_8@@QAEPAVGrammar@2@QB_WF_N@Z
       5222 1465 000F7C80 ?loadGrammar@XercesDOMParser@xercesc_2_8@@QAEPAVGrammar@2@ABVInputSource@2@F_N@Z
       5223 1466 000F7AC0 ?loadGrammar@XercesDOMParser@xercesc_2_8@@QAEPAVGrammar@2@QBDF_N@Z
       5224 1467 000F7BA0 ?loadGrammar@XercesDOMParser@xercesc_2_8@@QAEPAVGrammar@2@QB_WF_N@Z
       5225 1468 0013D540 ?loadIC@IdentityConstraint@xercesc_2_8@@SAPAV12@AAVXSerializeEngine@2@@Z
       5226 1469 001251F0 ?loadMsg@InMemMsgLoader@xercesc_2_8@@UAE_NIQA_WI@Z
       5227 146A 00125330 ?loadMsg@InMemMsgLoader@xercesc_2_8@@UAE_NIQA_WIQBD111QAVMemoryManager@2@@Z
       5228 146B 001252E0 ?loadMsg@InMemMsgLoader@xercesc_2_8@@UAE_NIQA_WIQB_W111QAVMemoryManager@2@@Z
       5229 146C 00102520 ?loadMsgSet@XMLPlatformUtils@xercesc_2_8@@SAPAVXMLMsgLoader@2@QB_W@Z
       5230 146D 0017ED60 ?loadNumber@XMLNumber@xercesc_2_8@@SAPAV12@W4NumberType@12@AAVXSerializeEngine@2@@Z
       5231 146E 00132FB0 ?loadObject@XTemplateSerializer@xercesc_2_8@@SAXPAPAV?$NameIdPool@VDTDElementDecl@xercesc_2_8@@@2@HHAAVXSerializeEngine@2@@Z
       5232 146F 00133160 ?loadObject@XTemplateSerializer@xercesc_2_8@@SAXPAPAV?$NameIdPool@VDTDEntityDecl@xercesc_2_8@@@2@HHAAVXSerializeEngine@2@@Z
       5233 1470 001333C0 ?loadObject@XTemplateSerializer@xercesc_2_8@@SAXPAPAV?$NameIdPool@VXMLNotationDecl@xercesc_2_8@@@2@HHAAVXSerializeEngine@2@@Z
       5234 1471 0012F590 ?loadObject@XTemplateSerializer@xercesc_2_8@@SAXPAPAV?$RefArrayVectorOf@_W@2@H_NAAVXSerializeEngine@2@@Z
       5235 1472 001329B0 ?loadObject@XTemplateSerializer@xercesc_2_8@@SAXPAPAV?$RefHash2KeysTableOf@V?$ValueVectorOf@PAVSchemaElementDecl@xercesc_2_8@@@xercesc_2_8@@@2@H_NAAVXSerializeEngine@2@@Z
       5236 1473 001325C0 ?loadObject@XTemplateSerializer@xercesc_2_8@@SAXPAPAV?$RefHash2KeysTableOf@VSchemaAttDef@xercesc_2_8@@@2@H_NAAVXSerializeEngine@2@@Z
       5237 1474 00132E20 ?loadObject@XTemplateSerializer@xercesc_2_8@@SAXPAPAV?$RefHash3KeysIdPool@VSchemaElementDecl@xercesc_2_8@@@2@H_NHAAVXSerializeEngine@2@@Z
       5238 1475 00130BE0 ?loadObject@XTemplateSerializer@xercesc_2_8@@SAXPAPAV?$RefHashTableOf@VComplexTypeInfo@xercesc_2_8@@@2@H_NAAVXSerializeEngine@2@@Z
       5239 1476 00130A80 ?loadObject@XTemplateSerializer@xercesc_2_8@@SAXPAPAV?$RefHashTableOf@VDTDAttDef@xercesc_2_8@@@2@H_NAAVXSerializeEngine@2@@Z
       5240 1477 001317F0 ?loadObject@XTemplateSerializer@xercesc_2_8@@SAXPAPAV?$RefHashTableOf@VDatatypeValidator@xercesc_2_8@@@2@H_NAAVXSerializeEngine@2@@Z
       5241 1478 00131CB0 ?loadObject@XTemplateSerializer@xercesc_2_8@@SAXPAPAV?$RefHashTableOf@VGrammar@xercesc_2_8@@@2@H_NAAVXSerializeEngine@2@@Z
       5242 1479 00130640 ?loadObject@XTemplateSerializer@xercesc_2_8@@SAXPAPAV?$RefHashTableOf@VKVStringPair@xercesc_2_8@@@2@H_NAAVXSerializeEngine@2@@Z
       5243 147A 00130790 ?loadObject@XTemplateSerializer@xercesc_2_8@@SAXPAPAV?$RefHashTableOf@VXMLAttDef@xercesc_2_8@@@2@H_NAAVXSerializeEngine@2@@Z
       5244 147B 00131480 ?loadObject@XTemplateSerializer@xercesc_2_8@@SAXPAPAV?$RefHashTableOf@VXMLRefInfo@xercesc_2_8@@@2@H_NAAVXSerializeEngine@2@@Z
       5245 147C 001321D0 ?loadObject@XTemplateSerializer@xercesc_2_8@@SAXPAPAV?$RefHashTableOf@VXSAnnotation@xercesc_2_8@@@2@H_NAAVXSerializeEngine@2@@Z
       5246 147D 001310C0 ?loadObject@XTemplateSerializer@xercesc_2_8@@SAXPAPAV?$RefHashTableOf@VXercesAttGroupInfo@xercesc_2_8@@@2@H_NAAVXSerializeEngine@2@@Z
       5247 147E 00130F20 ?loadObject@XTemplateSerializer@xercesc_2_8@@SAXPAPAV?$RefHashTableOf@VXercesGroupInfo@xercesc_2_8@@@2@H_NAAVXSerializeEngine@2@@Z
       5248 147F 0012FAD0 ?loadObject@XTemplateSerializer@xercesc_2_8@@SAXPAPAV?$RefVectorOf@VContentSpecNode@xercesc_2_8@@@2@H_NAAVXSerializeEngine@2@@Z
       5249 1480 0012FE30 ?loadObject@XTemplateSerializer@xercesc_2_8@@SAXPAPAV?$RefVectorOf@VDatatypeValidator@xercesc_2_8@@@2@H_NAAVXSerializeEngine@2@@Z
       5250 1481 0012FC40 ?loadObject@XTemplateSerializer@xercesc_2_8@@SAXPAPAV?$RefVectorOf@VIC_Field@xercesc_2_8@@@2@H_NAAVXSerializeEngine@2@@Z
       5251 1482 00130090 ?loadObject@XTemplateSerializer@xercesc_2_8@@SAXPAPAV?$RefVectorOf@VIdentityConstraint@xercesc_2_8@@@2@H_NAAVXSerializeEngine@2@@Z
       5252 1483 0012F7F0 ?loadObject@XTemplateSerializer@xercesc_2_8@@SAXPAPAV?$RefVectorOf@VSchemaAttDef@xercesc_2_8@@@2@H_NAAVXSerializeEngine@2@@Z
       5253 1484 0012F960 ?loadObject@XTemplateSerializer@xercesc_2_8@@SAXPAPAV?$RefVectorOf@VSchemaElementDecl@xercesc_2_8@@@2@H_NAAVXSerializeEngine@2@@Z
       5254 1485 00130200 ?loadObject@XTemplateSerializer@xercesc_2_8@@SAXPAPAV?$RefVectorOf@VXMLNumber@xercesc_2_8@@@2@H_NW4NumberType@XMLNumber@2@AAVXSerializeEngine@2@@Z
       5255 1486 00130360 ?loadObject@XTemplateSerializer@xercesc_2_8@@SAXPAPAV?$RefVectorOf@VXercesLocationPath@xercesc_2_8@@@2@H_NAAVXSerializeEngine@2@@Z
       5256 1487 001304D0 ?loadObject@XTemplateSerializer@xercesc_2_8@@SAXPAPAV?$RefVectorOf@VXercesStep@xercesc_2_8@@@2@H_NAAVXSerializeEngine@2@@Z
       5257 1488 0012F2D0 ?loadObject@XTemplateSerializer@xercesc_2_8@@SAXPAPAV?$ValueVectorOf@I@2@H_NAAVXSerializeEngine@2@@Z
       5258 1489 0012F090 ?loadObject@XTemplateSerializer@xercesc_2_8@@SAXPAPAV?$ValueVectorOf@PAVSchemaElementDecl@xercesc_2_8@@@2@H_NAAVXSerializeEngine@2@@Z
       5259 148A 00191710 ?loadXMLSchemaGrammar@IGXMLScanner@xercesc_2_8@@AAEPAVGrammar@2@ABVInputSource@2@_N@Z
       5260 148B 00155BF0 ?loadXMLSchemaGrammar@SGXMLScanner@xercesc_2_8@@AAEPAVGrammar@2@ABVInputSource@2@_N@Z
       5261 148C 0011DA70 ?lock@XMLMutex@xercesc_2_8@@QAEXXZ
       5262 148D 000FFAE0 ?lockMutex@XMLPlatformUtils@xercesc_2_8@@SAXQAX@Z
       5263 148E 00159A10 ?lockPool@XMLGrammarPoolImpl@xercesc_2_8@@UAEXXZ
       5264 148F 000F2C70 ?lookingAtChar@ReaderMgr@xercesc_2_8@@QAE_N_W@Z
       5265 1490 000F2CD0 ?lookingAtSpace@ReaderMgr@xercesc_2_8@@QAE_NXZ
       5266 1491 000EE400 ?lookupByName@XMLURL@xercesc_2_8@@SA?AW4Protocols@12@QB_W@Z
       5267 1492 00101290 ?lookupLoadPool@XSerializeEngine@xercesc_2_8@@ABEPAVXSerializable@2@I@Z
       5268 1493 00166710 ?lookupNamespacePrefix@DOMAttrImpl@xercesc_2_8@@UBEPB_WPB_W_N@Z
       5269 1494 00166710 ?lookupNamespacePrefix@DOMCDATASectionImpl@xercesc_2_8@@UBEPB_WPB_W_N@Z
       5270 1495 00166710 ?lookupNamespacePrefix@DOMCommentImpl@xercesc_2_8@@UBEPB_WPB_W_N@Z
       5271 1496 00166710 ?lookupNamespacePrefix@DOMDocumentFragmentImpl@xercesc_2_8@@UBEPB_WPB_W_N@Z
       5272 1497 00166710 ?lookupNamespacePrefix@DOMDocumentImpl@xercesc_2_8@@UBEPB_WPB_W_N@Z
       5273 1498 00166710 ?lookupNamespacePrefix@DOMDocumentTypeImpl@xercesc_2_8@@UBEPB_WPB_W_N@Z
       5274 1499 00166710 ?lookupNamespacePrefix@DOMElementImpl@xercesc_2_8@@UBEPB_WPB_W_N@Z
       5275 149A 00166710 ?lookupNamespacePrefix@DOMEntityImpl@xercesc_2_8@@UBEPB_WPB_W_N@Z
       5276 149B 00166710 ?lookupNamespacePrefix@DOMEntityReferenceImpl@xercesc_2_8@@UBEPB_WPB_W_N@Z
       5277 149C 00163060 ?lookupNamespacePrefix@DOMNodeImpl@xercesc_2_8@@QBEPB_WPB_W_N@Z
       5278 149D 00163170 ?lookupNamespacePrefix@DOMNodeImpl@xercesc_2_8@@QBEPB_WQB_W_NPAVDOMElement@2@@Z
       5279 149E 00166710 ?lookupNamespacePrefix@DOMNotationImpl@xercesc_2_8@@UBEPB_WPB_W_N@Z
       5280 149F 00166710 ?lookupNamespacePrefix@DOMProcessingInstructionImpl@xercesc_2_8@@UBEPB_WPB_W_N@Z
       5281 14A0 00166710 ?lookupNamespacePrefix@DOMTextImpl@xercesc_2_8@@UBEPB_WPB_W_N@Z
       5282 14A1 00160B80 ?lookupNamespaceURI@DOMAttrImpl@xercesc_2_8@@UBEPB_WPB_W@Z
       5283 14A2 00160B80 ?lookupNamespaceURI@DOMCDATASectionImpl@xercesc_2_8@@UBEPB_WPB_W@Z
       5284 14A3 00160B80 ?lookupNamespaceURI@DOMCommentImpl@xercesc_2_8@@UBEPB_WPB_W@Z
       5285 14A4 00160B80 ?lookupNamespaceURI@DOMDocumentFragmentImpl@xercesc_2_8@@UBEPB_WPB_W@Z
       5286 14A5 00160B80 ?lookupNamespaceURI@DOMDocumentImpl@xercesc_2_8@@UBEPB_WPB_W@Z
       5287 14A6 00160B80 ?lookupNamespaceURI@DOMDocumentTypeImpl@xercesc_2_8@@UBEPB_WPB_W@Z
       5288 14A7 00160B80 ?lookupNamespaceURI@DOMElementImpl@xercesc_2_8@@UBEPB_WPB_W@Z
       5289 14A8 00160B80 ?lookupNamespaceURI@DOMEntityImpl@xercesc_2_8@@UBEPB_WPB_W@Z
       5290 14A9 00160B80 ?lookupNamespaceURI@DOMEntityReferenceImpl@xercesc_2_8@@UBEPB_WPB_W@Z
       5291 14AA 00163340 ?lookupNamespaceURI@DOMNodeImpl@xercesc_2_8@@QBEPB_WPB_W@Z
       5292 14AB 00160B80 ?lookupNamespaceURI@DOMNotationImpl@xercesc_2_8@@UBEPB_WPB_W@Z
       5293 14AC 00160B80 ?lookupNamespaceURI@DOMProcessingInstructionImpl@xercesc_2_8@@UBEPB_WPB_W@Z
       5294 14AD 00160B80 ?lookupNamespaceURI@DOMTextImpl@xercesc_2_8@@UBEPB_WPB_W@Z
       5295 14AE 00101210 ?lookupStorePool@XSerializeEngine@xercesc_2_8@@ABEIQAX@Z
       5296 14AF 00124510 ?lowerCase@Win32TransService@xercesc_2_8@@UBEXQA_W@Z
       5297 14B0 000FD3A0 ?lowerCase@XMLString@xercesc_2_8@@SAXQA_W@Z
       5298 14B1 000FD3C0 ?lowerCaseASCII@XMLString@xercesc_2_8@@SAXQA_W@Z
       5299 14B2 0011CCB0 ?makeContentModel@ComplexTypeInfo@xercesc_2_8@@AAEPAVXMLContentModel@2@_N@Z
       5300 14B3 00116440 ?makeContentModel@DTDElementDecl@xercesc_2_8@@AAEPAVXMLContentModel@2@XZ
       5301 14B4 000FFAF0 ?makeMutex@XMLPlatformUtils@xercesc_2_8@@SAPAXPAVMemoryManager@2@@Z
       5302 14B5 000FFB90 ?makeNetAccessor@XMLPlatformUtils@xercesc_2_8@@CAPAVXMLNetAccessor@2@XZ
       5303 14B6 00124FC0 ?makeNew@WinSockNetAccessor@xercesc_2_8@@UAEPAVBinInputStream@2@ABVXMLURL@2@PBVXMLNetHTTPInfo@2@@Z
       5304 14B7 001244D0 ?makeNewLCPTranscoder@Win32TransService@xercesc_2_8@@UAEPAVXMLLCPTranscoder@2@XZ
       5305 14B8 000EEEE0 ?makeNewStream@XMLURL@xercesc_2_8@@QBEPAVBinInputStream@2@XZ
       5306 14B9 00125C80 ?makeNewTranscoderFor@XMLTransService@xercesc_2_8@@QAEPAVXMLTranscoder@2@QBDAAW4Codes@12@IQAVMemoryManager@2@@Z
       5307 14BA 00125D30 ?makeNewTranscoderFor@XMLTransService@xercesc_2_8@@QAEPAVXMLTranscoder@2@QB_WAAW4Codes@12@IQAVMemoryManager@2@@Z
       5308 14BB 00125E50 ?makeNewTranscoderFor@XMLTransService@xercesc_2_8@@QAEPAVXMLTranscoder@2@W4Encodings@XMLRecognizer@2@AAW4Codes@12@IQAVMemoryManager@2@@Z
       5309 14BC 00124560 ?makeNewXMLTranscoder@Win32TransService@xercesc_2_8@@MAEPAVXMLTranscoder@2@QB_WAAW4Codes@XMLTransService@2@IQAVMemoryManager@2@@Z
       5310 14BD 000EF280 ?makeRelativeTo@XMLURL@xercesc_2_8@@QAEXABV12@@Z
       5311 14BE 000EF1E0 ?makeRelativeTo@XMLURL@xercesc_2_8@@QAEXQB_W@Z
       5312 14BF 00136230 ?makeStream@LocalFileInputSource@xercesc_2_8@@UBEPAVBinInputStream@2@XZ
       5313 14C0 001BE780 ?makeStream@MemBufInputSource@xercesc_2_8@@UBEPAVBinInputStream@2@XZ
       5314 14C1 00136750 ?makeStream@URLInputSource@xercesc_2_8@@UBEPAVBinInputStream@2@XZ
       5315 14C2 001C2B80 ?makeStream@Wrapper4DOMInputSource@xercesc_2_8@@UBEPAVBinInputStream@2@XZ
       5316 14C3 000FFC90 ?makeTransService@XMLPlatformUtils@xercesc_2_8@@CAPAVXMLTransService@2@XZ
       5317 14C4 000FCED0 ?makeUName@XMLString@xercesc_2_8@@SAPA_WQB_W0@Z
       5318 14C5 0016F950 ?mapAttributes@GeneralAttributeCheck@xercesc_2_8@@AAEXXZ
       5319 14C6 0016F840 ?mapElements@GeneralAttributeCheck@xercesc_2_8@@AAEXXZ
       5320 14C7 00162C80 ?mapPrefix@DOMNodeImpl@xercesc_2_8@@SAPB_WPB_W0F@Z
       5321 14C8 0010E6C0 ?mapPrefixToURI@ElemStack@xercesc_2_8@@QBEIQB_WW4MapModes@12@AA_N@Z
       5322 14C9 0010EF20 ?mapPrefixToURI@WFElemStack@xercesc_2_8@@QBEIQB_WW4MapModes@12@AA_N@Z
       5323 14CA 0010F7B0 ?match@CharToken@xercesc_2_8@@QAE_NH@Z
       5324 14CB 0013A2C0 ?match@RangeToken@xercesc_2_8@@QAE_NH@Z
       5325 14CC 0010C950 ?match@RegularExpression@xercesc_2_8@@AAEHQAVContext@12@QBVOp@2@HF@Z
       5326 14CD 0010CE60 ?matchAnchor@RegularExpression@xercesc_2_8@@AAE_NQAVContext@12@HH@Z
       5327 14CE 0010D190 ?matchBackReference@RegularExpression@xercesc_2_8@@AAE_NQAVContext@12@HAAHF_N@Z
       5328 14CF 0010D340 ?matchCapture@RegularExpression@xercesc_2_8@@AAEHQAVContext@12@QBVOp@2@HF@Z
       5329 14D0 0010CCA0 ?matchChar@RegularExpression@xercesc_2_8@@AAE_NQAVContext@12@HAAHF_N@Z
       5330 14D1 0010D5D0 ?matchCondition@RegularExpression@xercesc_2_8@@AAE_NQAVContext@12@QBVOp@2@HF@Z
       5331 14D2 0010CD30 ?matchDot@RegularExpression@xercesc_2_8@@AAE_NQAVContext@12@AAHF@Z
       5332 14D3 0010A810 ?matchIgnoreCase@RegularExpression@xercesc_2_8@@AAE_NHH@Z
       5333 14D4 000F1290 ?matchModifier@RegularExpression@xercesc_2_8@@AAEHQAVContext@12@QBVOp@2@HF@Z
       5334 14D5 001AE310 ?matchNodeOrParent@DOMNodeIteratorImpl@xercesc_2_8@@AAEPAVDOMNode@2@PAV32@@Z
       5335 14D6 0010CDD0 ?matchRange@RegularExpression@xercesc_2_8@@AAE_NQAVContext@12@QBVOp@2@AAHF_N@Z
       5336 14D7 0010D2A0 ?matchString@RegularExpression@xercesc_2_8@@AAE_NQAVContext@12@QB_WAAHF_N@Z
       5337 14D8 0010D410 ?matchUnion@RegularExpression@xercesc_2_8@@AAEHQAVContext@12@QBVOp@2@HF@Z
       5338 14D9 00111070 ?matched@FieldMatcher@xercesc_2_8@@UAEXQB_WQAVDatatypeValidator@2@_N@Z
       5339 14DA 00023AA0 ?matched@XPathMatcher@xercesc_2_8@@MAEXQB_WQAVDatatypeValidator@2@_N@Z
       5340 14DB 00113C50 ?matches@BMPattern@xercesc_2_8@@QAEHQB_WHH@Z
       5341 14DC 0010B4B0 ?matches@RegularExpression@xercesc_2_8@@QAE_NQBDHHQAVMatch@2@QAVMemoryManager@2@@Z
       5342 14DD 0010B330 ?matches@RegularExpression@xercesc_2_8@@QAE_NQBDHHQAVMemoryManager@2@@Z
       5343 14DE 0010B3E0 ?matches@RegularExpression@xercesc_2_8@@QAE_NQBDQAVMatch@2@QAVMemoryManager@2@@Z
       5344 14DF 0010B260 ?matches@RegularExpression@xercesc_2_8@@QAE_NQBDQAVMemoryManager@2@@Z
       5345 14E0 0010B630 ?matches@RegularExpression@xercesc_2_8@@QAE_NQB_WHHQAVMatch@2@QAVMemoryManager@2@@Z
       5346 14E1 0010B5C0 ?matches@RegularExpression@xercesc_2_8@@QAE_NQB_WHHQAVMemoryManager@2@@Z
       5347 14E2 0010B5E0 ?matches@RegularExpression@xercesc_2_8@@QAE_NQB_WQAVMatch@2@QAVMemoryManager@2@@Z
       5348 14E3 0010B560 ?matches@RegularExpression@xercesc_2_8@@QAE_NQB_WQAVMemoryManager@2@@Z
       5349 14E4 00139CC0 ?mergeRanges@RangeToken@xercesc_2_8@@UAEXQBVToken@2@@Z
       5350 14E5 000F0910 ?mergeRanges@Token@xercesc_2_8@@UAEXQBV12@@Z
       5351 14E6 000ECE00 ?moveChars@XMLString@xercesc_2_8@@SAXQA_WQB_WI@Z
       5352 14E7 000F2C50 ?movePlainContentChars@ReaderMgr@xercesc_2_8@@QAEXAAVXMLBuffer@2@@Z
       5353 14E8 000F2720 ?movePlainContentChars@XMLReader@xercesc_2_8@@QAEXAAVXMLBuffer@2@@Z
       5354 14E9 001B3010 ?moveSpecifiedAttributes@DOMAttrMapImpl@xercesc_2_8@@QAEXPAV12@@Z
       5355 14EA 001ACB80 ?multiply@XMLBigInteger@xercesc_2_8@@QAEXI@Z
       5356 14EB 0013E5F0 ?nameForEncoding@XMLRecognizer@xercesc_2_8@@SAPB_WW4Encodings@12@QAVMemoryManager@2@@Z
       5357 14EC 00101D80 ?needToLoadObject@XSerializeEngine@xercesc_2_8@@QAE_NPAPAX@Z
       5358 14ED 00101D10 ?needToStoreObject@XSerializeEngine@xercesc_2_8@@QAE_NQAX@Z
       5359 14EE 001204F0 ?needsSyncChildren@DOMNodeImpl@xercesc_2_8@@QAEX_N@Z
       5360 14EF 001204E0 ?needsSyncChildren@DOMNodeImpl@xercesc_2_8@@QBE_NXZ
       5361 14F0 001204C0 ?needsSyncData@DOMNodeImpl@xercesc_2_8@@QAEX_N@Z
       5362 14F1 001204B0 ?needsSyncData@DOMNodeImpl@xercesc_2_8@@QBE_NXZ
       5363 14F2 001780B0 ?newInstance@AnySimpleTypeDatatypeValidator@xercesc_2_8@@UAEPAVDatatypeValidator@2@QAV?$RefHashTableOf@VKVStringPair@xercesc_2_8@@@2@QAV?$RefArrayVectorOf@_W@2@HQAVMemoryManager@2@@Z
       5364 14F3 00174D70 ?newInstance@AnyURIDatatypeValidator@xercesc_2_8@@UAEPAVDatatypeValidator@2@QAV?$RefHashTableOf@VKVStringPair@xercesc_2_8@@@2@QAV?$RefArrayVectorOf@_W@2@HQAVMemoryManager@2@@Z
       5365 14F4 0017A640 ?newInstance@Base64BinaryDatatypeValidator@xercesc_2_8@@UAEPAVDatatypeValidator@2@QAV?$RefHashTableOf@VKVStringPair@xercesc_2_8@@@2@QAV?$RefArrayVectorOf@_W@2@HQAVMemoryManager@2@@Z
       5366 14F5 0012AB50 ?newInstance@BooleanDatatypeValidator@xercesc_2_8@@UAEPAVDatatypeValidator@2@QAV?$RefHashTableOf@VKVStringPair@xercesc_2_8@@@2@QAV?$RefArrayVectorOf@_W@2@HQAVMemoryManager@2@@Z
       5367 14F6 00177D70 ?newInstance@DateDatatypeValidator@xercesc_2_8@@UAEPAVDatatypeValidator@2@QAV?$RefHashTableOf@VKVStringPair@xercesc_2_8@@@2@QAV?$RefArrayVectorOf@_W@2@HQAVMemoryManager@2@@Z
       5368 14F7 00172F70 ?newInstance@DateTimeDatatypeValidator@xercesc_2_8@@UAEPAVDatatypeValidator@2@QAV?$RefHashTableOf@VKVStringPair@xercesc_2_8@@@2@QAV?$RefArrayVectorOf@_W@2@HQAVMemoryManager@2@@Z
       5369 14F8 00175960 ?newInstance@DayDatatypeValidator@xercesc_2_8@@UAEPAVDatatypeValidator@2@QAV?$RefHashTableOf@VKVStringPair@xercesc_2_8@@@2@QAV?$RefArrayVectorOf@_W@2@HQAVMemoryManager@2@@Z
       5370 14F9 00176D10 ?newInstance@DecimalDatatypeValidator@xercesc_2_8@@UAEPAVDatatypeValidator@2@QAV?$RefHashTableOf@VKVStringPair@xercesc_2_8@@@2@QAV?$RefArrayVectorOf@_W@2@HQAVMemoryManager@2@@Z
       5371 14FA 00174240 ?newInstance@DoubleDatatypeValidator@xercesc_2_8@@UAEPAVDatatypeValidator@2@QAV?$RefHashTableOf@VKVStringPair@xercesc_2_8@@@2@QAV?$RefArrayVectorOf@_W@2@HQAVMemoryManager@2@@Z
       5372 14FB 001751D0 ?newInstance@DurationDatatypeValidator@xercesc_2_8@@UAEPAVDatatypeValidator@2@QAV?$RefHashTableOf@VKVStringPair@xercesc_2_8@@@2@QAV?$RefArrayVectorOf@_W@2@HQAVMemoryManager@2@@Z
       5373 14FC 00175700 ?newInstance@ENTITYDatatypeValidator@xercesc_2_8@@UAEPAVDatatypeValidator@2@QAV?$RefHashTableOf@VKVStringPair@xercesc_2_8@@@2@QAV?$RefArrayVectorOf@_W@2@HQAVMemoryManager@2@@Z
       5374 14FD 00179E10 ?newInstance@FloatDatatypeValidator@xercesc_2_8@@UAEPAVDatatypeValidator@2@QAV?$RefHashTableOf@VKVStringPair@xercesc_2_8@@@2@QAV?$RefArrayVectorOf@_W@2@HQAVMemoryManager@2@@Z
       5375 14FE 00173F60 ?newInstance@HexBinaryDatatypeValidator@xercesc_2_8@@UAEPAVDatatypeValidator@2@QAV?$RefHashTableOf@VKVStringPair@xercesc_2_8@@@2@QAV?$RefArrayVectorOf@_W@2@HQAVMemoryManager@2@@Z
       5376 14FF 001343F0 ?newInstance@IDDatatypeValidator@xercesc_2_8@@UAEPAVDatatypeValidator@2@QAV?$RefHashTableOf@VKVStringPair@xercesc_2_8@@@2@QAV?$RefArrayVectorOf@_W@2@HQAVMemoryManager@2@@Z
       5377 1500 00173520 ?newInstance@IDREFDatatypeValidator@xercesc_2_8@@UAEPAVDatatypeValidator@2@QAV?$RefHashTableOf@VKVStringPair@xercesc_2_8@@@2@QAV?$RefArrayVectorOf@_W@2@HQAVMemoryManager@2@@Z
       5378 1501 00178BA0 ?newInstance@ListDatatypeValidator@xercesc_2_8@@UAEPAVDatatypeValidator@2@QAV?$RefHashTableOf@VKVStringPair@xercesc_2_8@@@2@QAV?$RefArrayVectorOf@_W@2@HQAVMemoryManager@2@@Z
       5379 1502 001732B0 ?newInstance@MonthDatatypeValidator@xercesc_2_8@@UAEPAVDatatypeValidator@2@QAV?$RefHashTableOf@VKVStringPair@xercesc_2_8@@@2@QAV?$RefArrayVectorOf@_W@2@HQAVMemoryManager@2@@Z
       5380 1503 00173C80 ?newInstance@MonthDayDatatypeValidator@xercesc_2_8@@UAEPAVDatatypeValidator@2@QAV?$RefHashTableOf@VKVStringPair@xercesc_2_8@@@2@QAV?$RefArrayVectorOf@_W@2@HQAVMemoryManager@2@@Z
       5381 1504 001739F0 ?newInstance@NCNameDatatypeValidator@xercesc_2_8@@UAEPAVDatatypeValidator@2@QAV?$RefHashTableOf@VKVStringPair@xercesc_2_8@@@2@QAV?$RefArrayVectorOf@_W@2@HQAVMemoryManager@2@@Z
       5382 1505 00178720 ?newInstance@NOTATIONDatatypeValidator@xercesc_2_8@@UAEPAVDatatypeValidator@2@QAV?$RefHashTableOf@VKVStringPair@xercesc_2_8@@@2@QAV?$RefArrayVectorOf@_W@2@HQAVMemoryManager@2@@Z
       5383 1506 00175BD0 ?newInstance@NameDatatypeValidator@xercesc_2_8@@UAEPAVDatatypeValidator@2@QAV?$RefHashTableOf@VKVStringPair@xercesc_2_8@@@2@QAV?$RefArrayVectorOf@_W@2@HQAVMemoryManager@2@@Z
       5384 1507 00172AA0 ?newInstance@QNameDatatypeValidator@xercesc_2_8@@UAEPAVDatatypeValidator@2@QAV?$RefHashTableOf@VKVStringPair@xercesc_2_8@@@2@QAV?$RefArrayVectorOf@_W@2@HQAVMemoryManager@2@@Z
       5385 1508 001353B0 ?newInstance@StringDatatypeValidator@xercesc_2_8@@UAEPAVDatatypeValidator@2@QAV?$RefHashTableOf@VKVStringPair@xercesc_2_8@@@2@QAV?$RefArrayVectorOf@_W@2@HQAVMemoryManager@2@@Z
       5386 1509 00179980 ?newInstance@TimeDatatypeValidator@xercesc_2_8@@UAEPAVDatatypeValidator@2@QAV?$RefHashTableOf@VKVStringPair@xercesc_2_8@@@2@QAV?$RefArrayVectorOf@_W@2@HQAVMemoryManager@2@@Z
       5387 150A 000F31E0 ?newInstance@UnionDatatypeValidator@xercesc_2_8@@UAEPAVDatatypeValidator@2@QAV?$RefHashTableOf@VKVStringPair@xercesc_2_8@@@2@QAV?$RefArrayVectorOf@_W@2@HQAVMemoryManager@2@@Z
       5388 150B 00175460 ?newInstance@YearDatatypeValidator@xercesc_2_8@@UAEPAVDatatypeValidator@2@QAV?$RefHashTableOf@VKVStringPair@xercesc_2_8@@@2@QAV?$RefArrayVectorOf@_W@2@HQAVMemoryManager@2@@Z
       5389 150C 00174A60 ?newInstance@YearMonthDatatypeValidator@xercesc_2_8@@UAEPAVDatatypeValidator@2@QAV?$RefHashTableOf@VKVStringPair@xercesc_2_8@@@2@QAV?$RefArrayVectorOf@_W@2@HQAVMemoryManager@2@@Z
       5390 150D 0010AC40 ?nextCh@Context@RegularExpression@xercesc_2_8@@QAE_NAAH0F@Z
       5391 150E 00142070 ?nextElement@DTDAttDefList@xercesc_2_8@@UAEAAVXMLAttDef@2@XZ
       5392 150F 00142070 ?nextElement@SchemaAttDefList@xercesc_2_8@@UAEAAVXMLAttDef@2@XZ
       5393 1510 001B93F0 ?nextMatchingElementAfter@DOMDeepNodeListImpl@xercesc_2_8@@AAEPAVDOMNode@2@PAV32@@Z
       5394 1511 001AE340 ?nextNode@DOMNodeIteratorImpl@xercesc_2_8@@AAEPAVDOMNode@2@PAV32@_N@Z
       5395 1512 001AE130 ?nextNode@DOMNodeIteratorImpl@xercesc_2_8@@UAEPAVDOMNode@2@XZ
       5396 1513 001B0380 ?nextNode@DOMRangeImpl@xercesc_2_8@@ABEPAVDOMNode@2@PBV32@_N@Z
       5397 1514 001B7BF0 ?nextNode@DOMTreeWalkerImpl@xercesc_2_8@@UAEPAVDOMNode@2@XZ
       5398 1515 001B7B80 ?nextSibling@DOMTreeWalkerImpl@xercesc_2_8@@UAEPAVDOMNode@2@XZ
       5399 1516 001944C0 ?nextToken@XMLStringTokenizer@xercesc_2_8@@QAEPA_WXZ
       5400 1517 0015FBF0 ?normalize@DOMAttrImpl@xercesc_2_8@@UAEXXZ
       5401 1518 001BD790 ?normalize@DOMCDATASectionImpl@xercesc_2_8@@UAEXXZ
       5402 1519 001BD790 ?normalize@DOMCommentImpl@xercesc_2_8@@UAEXXZ
       5403 151A 0015FBF0 ?normalize@DOMDocumentFragmentImpl@xercesc_2_8@@UAEXXZ
       5404 151B 0015FBF0 ?normalize@DOMDocumentImpl@xercesc_2_8@@UAEXXZ
       5405 151C 0015FBF0 ?normalize@DOMDocumentTypeImpl@xercesc_2_8@@UAEXXZ
       5406 151D 0015FBF0 ?normalize@DOMElementImpl@xercesc_2_8@@UAEXXZ
       5407 151E 00161200 ?normalize@DOMEntityImpl@xercesc_2_8@@UAEXXZ
       5408 151F 0015FBF0 ?normalize@DOMEntityReferenceImpl@xercesc_2_8@@UAEXXZ
       5409 1520 001BD790 ?normalize@DOMNodeImpl@xercesc_2_8@@QAEXXZ
       5410 1521 001BD790 ?normalize@DOMNotationImpl@xercesc_2_8@@UAEXXZ
       5411 1522 00160550 ?normalize@DOMParentNode@xercesc_2_8@@QAEXXZ
       5412 1523 001BD790 ?normalize@DOMProcessingInstructionImpl@xercesc_2_8@@UAEXXZ
       5413 1524 001BD790 ?normalize@DOMTextImpl@xercesc_2_8@@UAEXXZ
       5414 1525 0017C160 ?normalize@XMLDateTime@xercesc_2_8@@AAEXXZ
       5415 1526 00154120 ?normalizeAttRawValue@IGXMLScanner@xercesc_2_8@@AAE_NQB_W0AAVXMLBuffer@2@@Z
       5416 1527 00154120 ?normalizeAttRawValue@SGXMLScanner@xercesc_2_8@@AAE_NQB_W0AAVXMLBuffer@2@@Z
       5417 1528 00153EA0 ?normalizeAttValue@IGXMLScanner@xercesc_2_8@@AAE_NQBVXMLAttDef@2@QB_W1AAVXMLBuffer@2@@Z
       5418 1529 00153EA0 ?normalizeAttValue@SGXMLScanner@xercesc_2_8@@AAE_NQBVXMLAttDef@2@QB_W1AAVXMLBuffer@2@@Z
       5419 152A 000C1D60 ?normalizeContent@AbstractStringValidator@xercesc_2_8@@MBEXQA_WQAVMemoryManager@2@@Z
       5420 152B 0017A7D0 ?normalizeContent@Base64BinaryDatatypeValidator@xercesc_2_8@@MBEXQA_WQAVMemoryManager@2@@Z
       5421 152C 001765A0 ?normalizeDecimalPoint@XMLAbstractDoubleFloat@xercesc_2_8@@SAXQAD@Z
       5422 152D 00168A30 ?normalizeDocument@DOMDocumentImpl@xercesc_2_8@@UAEXXZ
       5423 152E 001805C0 ?normalizeEnumeration@AbstractStringValidator@xercesc_2_8@@MAEXQAVMemoryManager@2@@Z
       5424 152F 0017A750 ?normalizeEnumeration@Base64BinaryDatatypeValidator@xercesc_2_8@@MAEXQAVMemoryManager@2@@Z
       5425 1530 000FB580 ?normalizeURI@XMLUri@xercesc_2_8@@SAXQB_WAAVXMLBuffer@2@@Z
       5426 1531 0018C7E0 ?normalizeWhiteSpace@SchemaValidator@xercesc_2_8@@QAEXPAVDatatypeValidator@2@QB_WAAVXMLBuffer@2@@Z
       5427 1532 001763F0 ?normalizeZero@XMLAbstractDoubleFloat@xercesc_2_8@@AAEXQA_W@Z
       5428 1533 00123610 ?notationDecl@AbstractDOMParser@xercesc_2_8@@UAEXABVXMLNotationDecl@2@_N@Z
       5429 1534 001BD760 ?notationDecl@SAX2XMLReaderImpl@xercesc_2_8@@UAEXABVXMLNotationDecl@2@_N@Z
       5430 1535 000F6650 ?notationDecl@SAXParser@xercesc_2_8@@UAEXABVXMLNotationDecl@2@_N@Z
       5431 1536 003FBD48 ?numericSign@XSValue@xercesc_2_8@@0QB_NB
       5432 1537 000FF2F0 ?openFile@XMLPlatformUtils@xercesc_2_8@@SAPAXQBDQAVMemoryManager@2@@Z
       5433 1538 000FF320 ?openFile@XMLPlatformUtils@xercesc_2_8@@SAPAXQB_WQAVMemoryManager@2@@Z
       5434 1539 000FF490 ?openFileToWrite@XMLPlatformUtils@xercesc_2_8@@SAPAXQBDQAVMemoryManager@2@@Z
       5435 153A 000FF4C0 ?openFileToWrite@XMLPlatformUtils@xercesc_2_8@@SAPAXQB_WQAVMemoryManager@2@@Z
       5436 153B 001A43C0 ?openRedefinedSchema@TraverseSchema@xercesc_2_8@@AAE_NQBVDOMElement@2@@Z
       5437 153C 000FF5D0 ?openStdInHandle@XMLPlatformUtils@xercesc_2_8@@SAPAXQAVMemoryManager@2@@Z
       5438 153D 00103940 ?orphanFirst@ContentSpecNode@xercesc_2_8@@QAEPAV12@XZ
       5439 153E 0011ED50 ?orphanGrammar@GrammarResolver@xercesc_2_8@@QAEPAVGrammar@2@QB_W@Z
       5440 153F 00159940 ?orphanGrammar@XMLGrammarPoolImpl@xercesc_2_8@@UAEPAVGrammar@2@QB_W@Z
       5441 1540 00103950 ?orphanSecond@ContentSpecNode@xercesc_2_8@@QAEPAV12@XZ
       5442 1541 001256D0 ?panic@DefaultPanicHandler@xercesc_2_8@@UAEXW4PanicReasons@PanicHandler@2@@Z
       5443 1542 000FF160 ?panic@XMLPlatformUtils@xercesc_2_8@@SAXW4PanicReasons@PanicHandler@2@@Z
       5444 1543 001B7AC0 ?parentNode@DOMTreeWalkerImpl@xercesc_2_8@@UAEPAVDOMNode@2@XZ
       5445 1544 00121490 ?parse@AbstractDOMParser@xercesc_2_8@@QAEXABVInputSource@2@@Z
       5446 1545 00121620 ?parse@AbstractDOMParser@xercesc_2_8@@QAEXQBD@Z
       5447 1546 00121560 ?parse@AbstractDOMParser@xercesc_2_8@@QAEXQB_W@Z
       5448 1547 001B6950 ?parse@DOMBuilderImpl@xercesc_2_8@@UAEPAVDOMDocument@2@ABVDOMInputSource@2@@Z
       5449 1548 00177DF0 ?parse@DateDatatypeValidator@xercesc_2_8@@MAEPAVXMLDateTime@2@QB_WQAVMemoryManager@2@@Z
       5450 1549 00177E90 ?parse@DateDatatypeValidator@xercesc_2_8@@MAEXQAVXMLDateTime@2@@Z
       5451 154A 00172FF0 ?parse@DateTimeDatatypeValidator@xercesc_2_8@@MAEPAVXMLDateTime@2@QB_WQAVMemoryManager@2@@Z
       5452 154B 00173090 ?parse@DateTimeDatatypeValidator@xercesc_2_8@@MAEXQAVXMLDateTime@2@@Z
       5453 154C 001759E0 ?parse@DayDatatypeValidator@xercesc_2_8@@MAEPAVXMLDateTime@2@QB_WQAVMemoryManager@2@@Z
       5454 154D 00175A80 ?parse@DayDatatypeValidator@xercesc_2_8@@MAEXQAVXMLDateTime@2@@Z
       5455 154E 00175250 ?parse@DurationDatatypeValidator@xercesc_2_8@@MAEPAVXMLDateTime@2@QB_WQAVMemoryManager@2@@Z
       5456 154F 001752F0 ?parse@DurationDatatypeValidator@xercesc_2_8@@MAEXQAVXMLDateTime@2@@Z
       5457 1550 00173330 ?parse@MonthDatatypeValidator@xercesc_2_8@@MAEPAVXMLDateTime@2@QB_WQAVMemoryManager@2@@Z
       5458 1551 001733D0 ?parse@MonthDatatypeValidator@xercesc_2_8@@MAEXQAVXMLDateTime@2@@Z
       5459 1552 00173D00 ?parse@MonthDayDatatypeValidator@xercesc_2_8@@MAEPAVXMLDateTime@2@QB_WQAVMemoryManager@2@@Z
       5460 1553 00173DA0 ?parse@MonthDayDatatypeValidator@xercesc_2_8@@MAEXQAVXMLDateTime@2@@Z
       5461 1554 001367D0 ?parse@RegxParser@xercesc_2_8@@QAEPAVToken@2@QB_WH@Z
       5462 1555 001BC500 ?parse@SAX2XMLReaderImpl@xercesc_2_8@@UAEXABVInputSource@2@@Z
       5463 1556 001BC6A0 ?parse@SAX2XMLReaderImpl@xercesc_2_8@@UAEXQBD@Z
       5464 1557 001BC5D0 ?parse@SAX2XMLReaderImpl@xercesc_2_8@@UAEXQB_W@Z
       5465 1558 000F5C40 ?parse@SAXParser@xercesc_2_8@@UAEXABVInputSource@2@@Z
       5466 1559 000F5DD0 ?parse@SAXParser@xercesc_2_8@@UAEXQBD@Z
       5467 155A 000F5D10 ?parse@SAXParser@xercesc_2_8@@UAEXQB_W@Z
       5468 155B 00179A00 ?parse@TimeDatatypeValidator@xercesc_2_8@@MAEPAVXMLDateTime@2@QB_WQAVMemoryManager@2@@Z
       5469 155C 00179AA0 ?parse@TimeDatatypeValidator@xercesc_2_8@@MAEXQAVXMLDateTime@2@@Z
       5470 155D 000EF940 ?parse@XMLURL@xercesc_2_8@@AAEXQB_W@Z
       5471 155E 000EFE20 ?parse@XMLURL@xercesc_2_8@@SA_NQB_WAAV12@@Z
       5472 155F 001754E0 ?parse@YearDatatypeValidator@xercesc_2_8@@MAEPAVXMLDateTime@2@QB_WQAVMemoryManager@2@@Z
       5473 1560 00175580 ?parse@YearDatatypeValidator@xercesc_2_8@@MAEXQAVXMLDateTime@2@@Z
       5474 1561 00174AE0 ?parse@YearMonthDatatypeValidator@xercesc_2_8@@MAEPAVXMLDateTime@2@QB_WQAVMemoryManager@2@@Z
       5475 1562 00174B80 ?parse@YearMonthDatatypeValidator@xercesc_2_8@@MAEXQAVXMLDateTime@2@@Z
       5476 1563 00138320 ?parseAtom@RegxParser@xercesc_2_8@@AAEPAVToken@2@XZ
       5477 1564 001AC660 ?parseBigInteger@XMLBigInteger@xercesc_2_8@@SAXQB_WQA_WAAHQAVMemoryManager@2@@Z
       5478 1565 0019F1A0 ?parseBlockSet@TraverseSchema@xercesc_2_8@@AAEHQBVDOMElement@2@H_N@Z
       5479 1566 0013ABB0 ?parseCharacterClass@ParserForXMLSchema@xercesc_2_8@@MAEPAVRangeToken@2@_N@Z
       5480 1567 001388A0 ?parseCharacterClass@RegxParser@xercesc_2_8@@MAEPAVRangeToken@2@_N@Z
       5481 1568 0017B4A0 ?parseDate@XMLDateTime@xercesc_2_8@@QAEXXZ
       5482 1569 0017B420 ?parseDateTime@XMLDateTime@xercesc_2_8@@QAEXXZ
       5483 156A 0017B520 ?parseDay@XMLDateTime@xercesc_2_8@@QAEXXZ
       5484 156B 001AD750 ?parseDecimal@XMLBigDecimal@xercesc_2_8@@SAXQB_WQAVMemoryManager@2@@Z
       5485 156C 001AD500 ?parseDecimal@XMLBigDecimal@xercesc_2_8@@SAXQB_WQA_WAAH22QAVMemoryManager@2@@Z
       5486 156D 0017B8F0 ?parseDuration@XMLDateTime@xercesc_2_8@@QAEXXZ
       5487 156E 00128B80 ?parseExpression@XercesXPath@xercesc_2_8@@AAEXQAVXMLStringPool@2@QAVNamespaceScope@2@@Z
       5488 156F 00137E70 ?parseFactor@RegxParser@xercesc_2_8@@AAEPAVToken@2@XZ
       5489 1570 0019F3B0 ?parseFinalSet@TraverseSchema@xercesc_2_8@@AAEHQBVDOMElement@2@H_N@Z
       5490 1571 00121780 ?parseFirst@AbstractDOMParser@xercesc_2_8@@QAE_NABVInputSource@2@AAVXMLPScanToken@2@@Z
       5491 1572 00121730 ?parseFirst@AbstractDOMParser@xercesc_2_8@@QAE_NQBDAAVXMLPScanToken@2@@Z
       5492 1573 001216E0 ?parseFirst@AbstractDOMParser@xercesc_2_8@@QAE_NQB_WAAVXMLPScanToken@2@@Z
       5493 1574 001BC810 ?parseFirst@SAX2XMLReaderImpl@xercesc_2_8@@UAE_NABVInputSource@2@AAVXMLPScanToken@2@@Z
       5494 1575 001BC7C0 ?parseFirst@SAX2XMLReaderImpl@xercesc_2_8@@UAE_NQBDAAVXMLPScanToken@2@@Z
       5495 1576 001BC770 ?parseFirst@SAX2XMLReaderImpl@xercesc_2_8@@UAE_NQB_WAAVXMLPScanToken@2@@Z
       5496 1577 000F6080 ?parseFirst@SAXParser@xercesc_2_8@@QAE_NABVInputSource@2@AAVXMLPScanToken@2@@Z
       5497 1578 000F6030 ?parseFirst@SAXParser@xercesc_2_8@@QAE_NQBDAAVXMLPScanToken@2@@Z
       5498 1579 000F5FE0 ?parseFirst@SAXParser@xercesc_2_8@@QAE_NQB_WAAVXMLPScanToken@2@@Z
       5499 157A 0017C650 ?parseInt@XMLDateTime@xercesc_2_8@@ABEHHH@Z
       5500 157B 000FD100 ?parseInt@XMLString@xercesc_2_8@@SAHQB_WQAVMemoryManager@2@@Z
       5501 157C 0017C790 ?parseIntYear@XMLDateTime@xercesc_2_8@@ABEHH@Z
       5502 157D 0017C6D0 ?parseMiliSecond@XMLDateTime@xercesc_2_8@@ABENHH@Z
       5503 157E 0017B620 ?parseMonth@XMLDateTime@xercesc_2_8@@QAEXXZ
       5504 157F 0017B7B0 ?parseMonthDay@XMLDateTime@xercesc_2_8@@QAEXXZ
       5505 1580 001217D0 ?parseNext@AbstractDOMParser@xercesc_2_8@@QAE_NAAVXMLPScanToken@2@@Z
       5506 1581 001BC860 ?parseNext@SAX2XMLReaderImpl@xercesc_2_8@@UAE_NAAVXMLPScanToken@2@@Z
       5507 1582 000F60D0 ?parseNext@SAXParser@xercesc_2_8@@QAE_NAAVXMLPScanToken@2@@Z
       5508 1583 0010D660 ?parseOptions@RegularExpression@xercesc_2_8@@AAEHQB_W@Z
       5509 1584 00136F70 ?parseRegx@RegxParser@xercesc_2_8@@IAEPAVToken@2@_N@Z
       5510 1585 001217E0 ?parseReset@AbstractDOMParser@xercesc_2_8@@QAEXAAVXMLPScanToken@2@@Z
       5511 1586 001BC870 ?parseReset@SAX2XMLReaderImpl@xercesc_2_8@@UAEXAAVXMLPScanToken@2@@Z
       5512 1587 000F60E0 ?parseReset@SAXParser@xercesc_2_8@@QAEXAAVXMLPScanToken@2@@Z
       5513 1588 00190940 ?parseSchemaLocation@IGXMLScanner@xercesc_2_8@@AAEXQB_W@Z
       5514 1589 00154F10 ?parseSchemaLocation@SGXMLScanner@xercesc_2_8@@AAEXQB_W@Z
       5515 158A 0013B5A0 ?parseSetOperations@ParserForXMLSchema@xercesc_2_8@@MAEPAVRangeToken@2@XZ
       5516 158B 00138E20 ?parseSetOperations@RegxParser@xercesc_2_8@@MAEPAVRangeToken@2@XZ
       5517 158C 00137050 ?parseTerm@RegxParser@xercesc_2_8@@AAEPAVToken@2@_N@Z
       5518 158D 0017B4D0 ?parseTime@XMLDateTime@xercesc_2_8@@QAEXXZ
       5519 158E 0017C010 ?parseTimeZone@XMLDateTime@xercesc_2_8@@AAEXXZ
       5520 158F 001B6A40 ?parseURI@DOMBuilderImpl@xercesc_2_8@@UAEPAVDOMDocument@2@QBD@Z
       5521 1590 001B6A10 ?parseURI@DOMBuilderImpl@xercesc_2_8@@UAEPAVDOMDocument@2@QB_W@Z
       5522 1591 001B5B90 ?parseWithContext@DOMBuilderImpl@xercesc_2_8@@UAEXABVDOMInputSource@2@QAVDOMNode@2@F@Z
       5523 1592 0017B740 ?parseYear@XMLDateTime@xercesc_2_8@@QAEXXZ
       5524 1593 0017B8B0 ?parseYearMonth@XMLDateTime@xercesc_2_8@@QAEXXZ
       5525 1594 000FCC90 ?patternMatch@XMLString@xercesc_2_8@@SAHQB_W0@Z
       5526 1595 00118D00 ?peekNextChar@ReaderMgr@xercesc_2_8@@QAE_WXZ
       5527 1596 000F2860 ?peekNextChar@XMLReader@xercesc_2_8@@QAE_NAA_W@Z
       5528 1597 000F2DA0 ?peekString@ReaderMgr@xercesc_2_8@@QAE_NQB_W@Z
       5529 1598 00112700 ?peekString@XMLReader@xercesc_2_8@@QAE_NQB_W@Z
       5530 1599 000FFCF0 ?platformInit@XMLPlatformUtils@xercesc_2_8@@CAXXZ
       5531 159A 001BD790 ?platformTerm@XMLPlatformUtils@xercesc_2_8@@CAXXZ
       5532 159B 00169C70 ?popBuffer@DOMDocumentImpl@xercesc_2_8@@QAEPAVDOMBuffer@2@XZ
       5533 159C 00147130 ?popContext@XPathMatcherStack@xercesc_2_8@@QAEXXZ
       5534 159D 0014FE80 ?popCurrentTypeNameStack@TraverseSchema@xercesc_2_8@@AAEXXZ
       5535 159E 0011A2A0 ?popReader@ReaderMgr@xercesc_2_8@@AAE_NXZ
       5536 159F 0010E3E0 ?popTop@ElemStack@xercesc_2_8@@QAEPBUStackElem@12@XZ
       5537 15A0 0010ED40 ?popTop@WFElemStack@xercesc_2_8@@QAEPBUStackElem@12@XZ
       5538 15A1 001BD790 ?postParseValidation@DTDValidator@xercesc_2_8@@UAEXXZ
       5539 15A2 001BD790 ?postParseValidation@SchemaValidator@xercesc_2_8@@UAEXXZ
       5540 15A3 00185510 ?preContentValidation@DTDValidator@xercesc_2_8@@UAEX_N0@Z
       5541 15A4 0018C1C0 ?preContentValidation@SchemaValidator@xercesc_2_8@@UAEX_N0@Z
       5542 15A5 0010DB80 ?prepare@RegularExpression@xercesc_2_8@@AAEXXZ
       5543 15A6 0019E9E0 ?preprocessChildren@TraverseSchema@xercesc_2_8@@AAEXQBVDOMElement@2@@Z
       5544 15A7 00196E40 ?preprocessImport@TraverseSchema@xercesc_2_8@@AAEXQBVDOMElement@2@@Z
       5545 15A8 001969E0 ?preprocessInclude@TraverseSchema@xercesc_2_8@@AAEXQBVDOMElement@2@@Z
       5546 15A9 00197370 ?preprocessRedefine@TraverseSchema@xercesc_2_8@@AAEXQBVDOMElement@2@@Z
       5547 15AA 001960B0 ?preprocessSchema@TraverseSchema@xercesc_2_8@@AAEXQAVDOMElement@2@QB_W@Z
       5548 15AB 001AE420 ?previousNode@DOMNodeIteratorImpl@xercesc_2_8@@AAEPAVDOMNode@2@PAV32@@Z
       5549 15AC 001AE1D0 ?previousNode@DOMNodeIteratorImpl@xercesc_2_8@@UAEPAVDOMNode@2@XZ
       5550 15AD 001B7BA0 ?previousNode@DOMTreeWalkerImpl@xercesc_2_8@@UAEPAVDOMNode@2@XZ
       5551 15AE 001B7B60 ?previousSibling@DOMTreeWalkerImpl@xercesc_2_8@@UAEPAVDOMNode@2@XZ
       5552 15AF 001B5350 ?printIndent@DOMWriterImpl@xercesc_2_8@@IBEXH@Z
       5553 15B0 001B5330 ?printNewLine@DOMWriterImpl@xercesc_2_8@@IAEXXZ
       5554 15B1 001B4DE0 ?procCdataSection@DOMWriterImpl@xercesc_2_8@@AAEXQB_WQBVDOMNode@2@H@Z
       5555 15B2 001B5040 ?procUnrepCharInCdataSection@DOMWriterImpl@xercesc_2_8@@AAEXQB_WQBVDOMNode@2@H@Z
       5556 15B3 001AB570 ?processAttUse@XSObjectFactory@xercesc_2_8@@AAEXQAVSchemaAttDef@2@QAVXSAttributeUse@2@@Z
       5557 15B4 001A6960 ?processAttValue@TraverseSchema@xercesc_2_8@@AAEXQB_WAAVXMLBuffer@2@@Z
       5558 15B5 001A0140 ?processAttributeDeclRef@TraverseSchema@xercesc_2_8@@AAEXQBVDOMElement@2@QAVComplexTypeInfo@2@QB_W222@Z
       5559 15B6 001A2A50 ?processAttributeGroupRef@TraverseSchema@xercesc_2_8@@AAEPAVXercesAttGroupInfo@2@QBVDOMElement@2@QB_WQAVComplexTypeInfo@2@@Z
       5560 15B7 001A1560 ?processAttributes@TraverseSchema@xercesc_2_8@@AAEXQBVDOMElement@2@0QAVComplexTypeInfo@2@_N@Z
       5561 15B8 000FB250 ?processAuthority@XMLUri@xercesc_2_8@@CA_NQB_WH@Z
       5562 15B9 001B5410 ?processBOM@DOMWriterImpl@xercesc_2_8@@IAEXXZ
       5563 15BA 0013B4B0 ?processBackReference@ParserForXMLSchema@xercesc_2_8@@MAEPAVToken@2@XZ
       5564 15BB 00137D80 ?processBackReference@RegxParser@xercesc_2_8@@MAEPAVToken@2@XZ
       5565 15BC 0013B280 ?processBacksolidus_A@ParserForXMLSchema@xercesc_2_8@@MAEPAVToken@2@XZ
       5566 15BD 00137270 ?processBacksolidus_A@RegxParser@xercesc_2_8@@MAEPAVToken@2@XZ
       5567 15BE 0013B2B0 ?processBacksolidus_B@ParserForXMLSchema@xercesc_2_8@@MAEPAVToken@2@XZ
       5568 15BF 001372F0 ?processBacksolidus_B@RegxParser@xercesc_2_8@@MAEPAVToken@2@XZ
       5569 15C0 0013B310 ?processBacksolidus_C@ParserForXMLSchema@xercesc_2_8@@MAEPAVToken@2@XZ
       5570 15C1 001149A0 ?processBacksolidus_C@RegxParser@xercesc_2_8@@MAEPAVToken@2@XZ
       5571 15C2 0013B3B0 ?processBacksolidus_I@ParserForXMLSchema@xercesc_2_8@@MAEPAVToken@2@XZ
       5572 15C3 001149A0 ?processBacksolidus_I@RegxParser@xercesc_2_8@@MAEPAVToken@2@XZ
       5573 15C4 0013B420 ?processBacksolidus_X@ParserForXMLSchema@xercesc_2_8@@MAEPAVToken@2@XZ
       5574 15C5 00137D60 ?processBacksolidus_X@RegxParser@xercesc_2_8@@MAEPAVToken@2@XZ
       5575 15C6 0013B450 ?processBacksolidus_Z@ParserForXMLSchema@xercesc_2_8@@MAEPAVToken@2@XZ
       5576 15C7 00137290 ?processBacksolidus_Z@RegxParser@xercesc_2_8@@MAEPAVToken@2@XZ
       5577 15C8 0013B2E0 ?processBacksolidus_b@ParserForXMLSchema@xercesc_2_8@@MAEPAVToken@2@XZ
       5578 15C9 001372D0 ?processBacksolidus_b@RegxParser@xercesc_2_8@@MAEPAVToken@2@XZ
       5579 15CA 0013B330 ?processBacksolidus_c@ParserForXMLSchema@xercesc_2_8@@MAEPAVToken@2@XZ
       5580 15CB 00137C00 ?processBacksolidus_c@RegxParser@xercesc_2_8@@MAEPAVToken@2@XZ
       5581 15CC 0013B350 ?processBacksolidus_g@ParserForXMLSchema@xercesc_2_8@@MAEPAVToken@2@XZ
       5582 15CD 00137D40 ?processBacksolidus_g@RegxParser@xercesc_2_8@@MAEPAVToken@2@XZ
       5583 15CE 0013B380 ?processBacksolidus_gt@ParserForXMLSchema@xercesc_2_8@@MAEPAVToken@2@XZ
       5584 15CF 00137330 ?processBacksolidus_gt@RegxParser@xercesc_2_8@@MAEPAVToken@2@XZ
       5585 15D0 0013B3D0 ?processBacksolidus_i@ParserForXMLSchema@xercesc_2_8@@MAEPAVToken@2@XZ
       5586 15D1 00137CD0 ?processBacksolidus_i@RegxParser@xercesc_2_8@@MAEPAVToken@2@XZ
       5587 15D2 0013B3F0 ?processBacksolidus_lt@ParserForXMLSchema@xercesc_2_8@@MAEPAVToken@2@XZ
       5588 15D3 00137310 ?processBacksolidus_lt@RegxParser@xercesc_2_8@@MAEPAVToken@2@XZ
       5589 15D4 00138740 ?processBacksolidus_pP@RegxParser@xercesc_2_8@@IAEPAVRangeToken@2@H@Z
       5590 15D5 0013B480 ?processBacksolidus_z@ParserForXMLSchema@xercesc_2_8@@MAEPAVToken@2@XZ
       5591 15D6 001372B0 ?processBacksolidus_z@RegxParser@xercesc_2_8@@MAEPAVToken@2@XZ
       5592 15D7 001A10C0 ?processBaseTypeInfo@TraverseSchema@xercesc_2_8@@AAEXQBVDOMElement@2@QB_W11QAVComplexTypeInfo@2@@Z
       5593 15D8 0013B220 ?processCInCharacterClass@ParserForXMLSchema@xercesc_2_8@@MAEHQAVRangeToken@2@H@Z
       5594 15D9 00138890 ?processCInCharacterClass@RegxParser@xercesc_2_8@@MAEHQAVRangeToken@2@H@Z
       5595 15DA 0013A860 ?processCaret@ParserForXMLSchema@xercesc_2_8@@MAEPAVToken@2@XZ
       5596 15DB 001371C0 ?processCaret@RegxParser@xercesc_2_8@@MAEPAVToken@2@XZ
       5597 15DC 0019DFD0 ?processChildren@TraverseSchema@xercesc_2_8@@AAEXQBVDOMElement@2@@Z
       5598 15DD 001A0980 ?processComplexContent@TraverseSchema@xercesc_2_8@@AAEXQBVDOMElement@2@QB_W0QAVComplexTypeInfo@2@1_N3@Z
       5599 15DE 0013B4E0 ?processCondition@ParserForXMLSchema@xercesc_2_8@@MAEPAVToken@2@XZ
       5600 15DF 00137750 ?processCondition@RegxParser@xercesc_2_8@@MAEPAVToken@2@XZ
       5601 15E0 0013A8D0 ?processDollar@ParserForXMLSchema@xercesc_2_8@@MAEPAVToken@2@XZ
       5602 15E1 001371E0 ?processDollar@RegxParser@xercesc_2_8@@MAEPAVToken@2@XZ
       5603 15E2 001A5E20 ?processElemDeclAttrs@TraverseSchema@xercesc_2_8@@AAEXQBVDOMElement@2@QAVSchemaElementDecl@2@AAPB_W_N@Z
       5604 15E3 001A5FC0 ?processElemDeclIC@TraverseSchema@xercesc_2_8@@AAEXQAVDOMElement@2@QAVSchemaElementDecl@2@@Z
       5605 15E4 0019F0A0 ?processElementDeclRef@TraverseSchema@xercesc_2_8@@AAEPAVSchemaElementDecl@2@QBVDOMElement@2@QB_W@Z
       5606 15E5 001A2D20 ?processElements@TraverseSchema@xercesc_2_8@@AAEXQBVDOMElement@2@QAVComplexTypeInfo@2@1@Z
       5607 15E6 001A2EC0 ?processElements@TraverseSchema@xercesc_2_8@@AAEXQBVDOMElement@2@QAVXercesGroupInfo@2@QAVComplexTypeInfo@2@@Z
       5608 15E7 001AAC90 ?processFacets@XSObjectFactory@xercesc_2_8@@AAEXQAVDatatypeValidator@2@QAVXSModel@2@QAVXSSimpleTypeDefinition@2@@Z
       5609 15E8 001A26A0 ?processGroupRef@TraverseSchema@xercesc_2_8@@AAEPAVXercesGroupInfo@2@QBVDOMElement@2@QB_W@Z
       5610 15E9 0013B510 ?processIndependent@ParserForXMLSchema@xercesc_2_8@@MAEPAVToken@2@XZ
       5611 15EA 00137B90 ?processIndependent@RegxParser@xercesc_2_8@@MAEPAVToken@2@XZ
       5612 15EB 0013B250 ?processLook@ParserForXMLSchema@xercesc_2_8@@MAEPAVToken@2@G@Z
       5613 15EC 00137200 ?processLook@RegxParser@xercesc_2_8@@MAEPAVToken@2@G@Z
       5614 15ED 0013B540 ?processModifiers@ParserForXMLSchema@xercesc_2_8@@MAEPAVToken@2@XZ
       5615 15EE 001379E0 ?processModifiers@RegxParser@xercesc_2_8@@MAEPAVToken@2@XZ
       5616 15EF 001369B0 ?processNext@RegxParser@xercesc_2_8@@IAEXXZ
       5617 15F0 001B5300 ?processNode@DOMWriterImpl@xercesc_2_8@@AAEXQBVDOMNode@2@@Z
       5618 15F1 001B3860 ?processNode@DOMWriterImpl@xercesc_2_8@@IAEXQBVDOMNode@2@H@Z
       5619 15F2 0013B570 ?processParen2@ParserForXMLSchema@xercesc_2_8@@MAEPAVToken@2@XZ
       5620 15F3 001376E0 ?processParen2@RegxParser@xercesc_2_8@@MAEPAVToken@2@XZ
       5621 15F4 0013AB40 ?processParen@ParserForXMLSchema@xercesc_2_8@@MAEPAVToken@2@XZ
       5622 15F5 00137670 ?processParen@RegxParser@xercesc_2_8@@MAEPAVToken@2@XZ
       5623 15F6 000FB390 ?processPath@XMLUri@xercesc_2_8@@CA_NQB_WH_N@Z
       5624 15F7 0013A940 ?processPlus@ParserForXMLSchema@xercesc_2_8@@MAEPAVToken@2@QAV32@@Z
       5625 15F8 00137400 ?processPlus@RegxParser@xercesc_2_8@@MAEPAVToken@2@QAV32@@Z
       5626 15F9 0013AA50 ?processQuestion@ParserForXMLSchema@xercesc_2_8@@MAEPAVToken@2@QAV32@@Z
       5627 15FA 001374D0 ?processQuestion@RegxParser@xercesc_2_8@@MAEPAVToken@2@QAV32@@Z
       5628 15FB 0014BA50 ?processSchemaLocation@IGXMLScanner@xercesc_2_8@@AAEXQA_W@Z
       5629 15FC 000FB190 ?processScheme@XMLUri@xercesc_2_8@@CA_NQB_WAAH@Z
       5630 15FD 0013A9D0 ?processStar@ParserForXMLSchema@xercesc_2_8@@MAEPAVToken@2@QAV32@@Z
       5631 15FE 00137350 ?processStar@RegxParser@xercesc_2_8@@MAEPAVToken@2@QAV32@@Z
       5632 15FF 001A65A0 ?processSubstitutionGroup@TraverseSchema@xercesc_2_8@@AAEXQBVDOMElement@2@QAVSchemaElementDecl@2@AAPAVComplexTypeInfo@2@AAPAVDatatypeValidator@2@QB_W@Z
       5633 1600 001014B0 ?pumpCount@XSerializeEngine@xercesc_2_8@@AAEXXZ
       5634 1601 00147100 ?pushContext@XPathMatcherStack@xercesc_2_8@@QAEXXZ
       5635 1602 00119F50 ?pushReader@ReaderMgr@xercesc_2_8@@QAE_NQAVXMLReader@2@QAVXMLEntityDecl@2@@Z
       5636 1603 00110E20 ?put@FieldValueMap@xercesc_2_8@@QAEXQAVIC_Field@2@QAVDatatypeValidator@2@QB_W@Z
       5637 1604 00134CD0 ?putAnnotation@SchemaGrammar@xercesc_2_8@@QAEXPAXQAVXSAnnotation@2@@Z
       5638 1605 0011B670 ?putElemDecl@DTDGrammar@xercesc_2_8@@UAEIQAVXMLElementDecl@2@_N@Z
       5639 1606 00157FD0 ?putElemDecl@DTDGrammar@xercesc_2_8@@UAEPAVXMLElementDecl@2@IQB_W00I_N@Z
       5640 1607 00104280 ?putElemDecl@SchemaGrammar@xercesc_2_8@@UAEIQAVXMLElementDecl@2@_N@Z
       5641 1608 00134A20 ?putElemDecl@SchemaGrammar@xercesc_2_8@@UAEPAVXMLElementDecl@2@IQB_W00I_N@Z
       5642 1609 0011B570 ?putEntityDecl@DTDGrammar@xercesc_2_8@@QBEIQAVDTDEntityDecl@2@@Z
       5643 160A 0011EA00 ?putGrammar@GrammarResolver@xercesc_2_8@@QAEXQAVGrammar@2@@Z
       5644 160B 00104340 ?putGroupElemDecl@SchemaGrammar@xercesc_2_8@@QBEIQAVXMLElementDecl@2@@Z
       5645 160C 00104370 ?putNotationDecl@DTDGrammar@xercesc_2_8@@UBEIQAVXMLNotationDecl@2@@Z
       5646 160D 00104370 ?putNotationDecl@SchemaGrammar@xercesc_2_8@@UBEIQAVXMLNotationDecl@2@@Z
       5647 160E 001AAC50 ?putObjectInMap@XSObjectFactory@xercesc_2_8@@AAEXPAXQAVXSObject@2@@Z
       5648 160F 003E53E4 ?quadsPerLine@Base64@xercesc_2_8@@0IB
       5649 1610 00148040 ?rawAttrScan@IGXMLScanner@xercesc_2_8@@AAEIQB_WAAV?$RefVectorOf@VKVStringPair@xercesc_2_8@@@2@AA_N@Z
       5650 1611 00150800 ?rawAttrScan@SGXMLScanner@xercesc_2_8@@IAEIQB_WAAV?$RefVectorOf@VKVStringPair@xercesc_2_8@@@2@AA_N@Z
       5651 1612 00100A90 ?read@XSerializeEngine@xercesc_2_8@@QAEPAVXSerializable@2@QAVXProtoType@2@@Z
       5652 1613 00100CA0 ?read@XSerializeEngine@xercesc_2_8@@QAEXQAEH@Z
       5653 1614 00100C90 ?read@XSerializeEngine@xercesc_2_8@@QAEXQA_WH@Z
       5654 1615 00100B20 ?read@XSerializeEngine@xercesc_2_8@@QAE_NQAVXProtoType@2@PAI@Z
       5655 1616 000FE920 ?readBytes@BinFileInputStream@xercesc_2_8@@UAEIQAEI@Z
       5656 1617 0016D920 ?readBytes@BinHTTPURLInputStream@xercesc_2_8@@UAEIQAEI@Z
       5657 1618 00142450 ?readBytes@BinMemInputStream@xercesc_2_8@@UAEIQAEI@Z
       5658 1619 000FF6C0 ?readFileBuffer@XMLPlatformUtils@xercesc_2_8@@SAIPAXIQAEQAVMemoryManager@2@@Z
       5659 161A 001B2460 ?readOnly@DOMAttrMapImpl@xercesc_2_8@@IAE_NXZ
       5660 161B 001BA0F0 ?readOnly@DOMNamedNodeMapImpl@xercesc_2_8@@IAE_NXZ
       5661 161C 000EDDD0 ?readString@XSerializeEngine@xercesc_2_8@@QAEXAAPAE@Z
       5662 161D 00100E10 ?readString@XSerializeEngine@xercesc_2_8@@QAEXAAPAEAAH1_N@Z
       5663 161E 000EDDB0 ?readString@XSerializeEngine@xercesc_2_8@@QAEXAAPAEAAH@Z
       5664 161F 000EDD90 ?readString@XSerializeEngine@xercesc_2_8@@QAEXAAPA_W@Z
       5665 1620 00100D80 ?readString@XSerializeEngine@xercesc_2_8@@QAEXAAPA_WAAH1_N@Z
       5666 1621 000EDD70 ?readString@XSerializeEngine@xercesc_2_8@@QAEXAAPA_WAAH@Z
       5667 1622 001B1580 ?receiveReplacedText@DOMRangeImpl@xercesc_2_8@@QAEXPAVDOMNode@2@@Z
       5668 1623 00102530 ?recognizeNEL@XMLPlatformUtils@xercesc_2_8@@SAX_NQAVMemoryManager@2@@Z
       5669 1624 001B2F40 ?reconcileDefaultAttributes@DOMAttrMapImpl@xercesc_2_8@@QAEXPBV12@@Z
       5670 1625 00109E80 ?recreateUIntPool@XMLScanner@xercesc_2_8@@IAEXXZ
       5671 1626 001B14A0 ?recurseTreeAndCheck@DOMRangeImpl@xercesc_2_8@@AAEXPAVDOMNode@2@0@Z
       5672 1627 0016CEF0 ?recv@BinHTTPURLInputStream@xercesc_2_8@@CAHIPADHH@Z
       5673 1628 00111CA0 ?refreshCharBuffer@XMLReader@xercesc_2_8@@QAE_NXZ
       5674 1629 00113010 ?refreshRawBuffer@XMLReader@xercesc_2_8@@AAEXXZ
       5675 162A 000FCB40 ?regionIMatches@XMLString@xercesc_2_8@@SA_NQB_WH0HI@Z
       5676 162B 000FCAD0 ?regionMatches@XMLString@xercesc_2_8@@SA_NQB_WH0HI@Z
       5677 162C 00123B80 ?registerCleanup@XMLRegisterCleanup@xercesc_2_8@@QAEXP6AXXZ@Z
       5678 162D 00101DC0 ?registerObject@XSerializeEngine@xercesc_2_8@@QAEXQAX@Z
       5679 162E 0011C1F0 ?reinitAnyType@ComplexTypeInfo@xercesc_2_8@@SAXXZ
       5680 162F 00157E30 ?reinitDfltEntities@DTDGrammar@xercesc_2_8@@SAXXZ
       5681 1630 0016FF10 ?reinitGeneralAttCheck@GeneralAttributeCheck@xercesc_2_8@@SAXXZ
       5682 1631 0016E190 ?reinitInstance@EncodingValidator@xercesc_2_8@@SAXXZ
       5683 1632 0013CA80 ?reinitInstance@RangeTokenMap@xercesc_2_8@@SAXXZ
       5684 1633 00125AB0 ?reinitMappings@XMLTransService@xercesc_2_8@@CAXXZ
       5685 1634 00125AD0 ?reinitMappingsRecognizer@XMLTransService@xercesc_2_8@@CAXXZ
       5686 1635 000FF000 ?reinitMsgLoader@XMLException@xercesc_2_8@@SAXXZ
       5687 1636 00105E50 ?reinitMsgLoader@XMLScanner@xercesc_2_8@@SAXXZ
       5688 1637 00115960 ?reinitMsgLoader@XMLValidator@xercesc_2_8@@SAXXZ
       5689 1638 000FEF70 ?reinitMsgMutex@XMLException@xercesc_2_8@@SAXXZ
       5690 1639 00115910 ?reinitMsgMutex@XMLValidator@xercesc_2_8@@SAXXZ
       5691 163A 0015F100 ?reinitMutex@XSValue@xercesc_2_8@@SAXXZ
       5692 163B 0015F150 ?reinitRegEx@XSValue@xercesc_2_8@@SAXXZ
       5693 163C 0012C740 ?reinitRegistry@DatatypeValidatorFactory@xercesc_2_8@@SAXXZ
       5694 163D 0015F180 ?reinitRegistry@XSValue@xercesc_2_8@@SAXXZ
       5695 163E 00105E70 ?reinitScannerMutex@XMLScanner@xercesc_2_8@@SAXXZ
       5696 163F 00164360 ?release@DOMAttrImpl@xercesc_2_8@@UAEXXZ
       5697 1640 001B7590 ?release@DOMAttrNSImpl@xercesc_2_8@@UAEXXZ
       5698 1641 001B6930 ?release@DOMBuilderImpl@xercesc_2_8@@UAEXXZ
       5699 1642 001B8EC0 ?release@DOMCDATASectionImpl@xercesc_2_8@@UAEXXZ
       5700 1643 001B9CE0 ?release@DOMCommentImpl@xercesc_2_8@@UAEXXZ
       5701 1644 001B99E0 ?release@DOMDocumentFragmentImpl@xercesc_2_8@@UAEXXZ
       5702 1645 001699F0 ?release@DOMDocumentImpl@xercesc_2_8@@QAEXPAVDOMNode@2@W4NodeObjectType@12@@Z
       5703 1646 001698C0 ?release@DOMDocumentImpl@xercesc_2_8@@UAEXXZ
       5704 1647 0016B800 ?release@DOMDocumentTypeImpl@xercesc_2_8@@UAEXXZ
       5705 1648 001664A0 ?release@DOMElementImpl@xercesc_2_8@@UAEXXZ
       5706 1649 00161F30 ?release@DOMElementNSImpl@xercesc_2_8@@UAEXXZ
       5707 164A 00161060 ?release@DOMEntityImpl@xercesc_2_8@@UAEXXZ
       5708 164B 0015FB10 ?release@DOMEntityReferenceImpl@xercesc_2_8@@UAEXXZ
       5709 164C 00163D50 ?release@DOMNodeImpl@xercesc_2_8@@QAEXXZ
       5710 164D 001AE570 ?release@DOMNodeIteratorImpl@xercesc_2_8@@UAEXXZ
       5711 164E 0016C400 ?release@DOMNotationImpl@xercesc_2_8@@UAEXXZ
       5712 164F 00160670 ?release@DOMParentNode@xercesc_2_8@@QAEXXZ
       5713 1650 001624B0 ?release@DOMProcessingInstructionImpl@xercesc_2_8@@UAEXXZ
       5714 1651 001AFDF0 ?release@DOMRangeImpl@xercesc_2_8@@UAEXXZ
       5715 1652 00160A00 ?release@DOMTextImpl@xercesc_2_8@@UAEXXZ
       5716 1653 001BD790 ?release@DOMTreeWalkerImpl@xercesc_2_8@@UAEXXZ
       5717 1654 001B5400 ?release@DOMWriterImpl@xercesc_2_8@@UAEXXZ
       5718 1655 000FDBF0 ?release@XMLString@xercesc_2_8@@SAXPAPAD@Z
       5719 1656 000FDBF0 ?release@XMLString@xercesc_2_8@@SAXPAPAE@Z
       5720 1657 000FDC10 ?release@XMLString@xercesc_2_8@@SAXPAPAXQAVMemoryManager@2@@Z
       5721 1658 000FDBF0 ?release@XMLString@xercesc_2_8@@SAXPAPA_W@Z
       5722 1659 001B2140 ?releaseBuffer@DOMCharacterDataImpl@xercesc_2_8@@QAEXXZ
       5723 165A 00169BC0 ?releaseBuffer@DOMDocumentImpl@xercesc_2_8@@QAEXPAVDOMBuffer@2@@Z
       5724 165B 0011C080 ?releaseBuffer@XMLBufferMgr@xercesc_2_8@@QAEXAAVXMLBuffer@2@@Z
       5725 165C 00169920 ?releaseDocNotifyUserData@DOMDocumentImpl@xercesc_2_8@@QAEXPAVDOMNode@2@@Z
       5726 165D 001BC270 ?removeAdvDocHandler@SAX2XMLReaderImpl@xercesc_2_8@@UAE_NQAVXMLDocumentHandler@2@@Z
       5727 165E 000F5650 ?removeAdvDocHandler@SAXParser@xercesc_2_8@@QAE_NQAVXMLDocumentHandler@2@@Z
       5728 165F 001207C0 ?removeAttrFromIDNodeMap@DOMAttrImpl@xercesc_2_8@@UAEXXZ
       5729 1660 00165970 ?removeAttribute@DOMElementImpl@xercesc_2_8@@UAEXPB_W@Z
       5730 1661 00166060 ?removeAttributeNS@DOMElementImpl@xercesc_2_8@@UAEXPB_W0@Z
       5731 1662 00165A00 ?removeAttributeNode@DOMElementImpl@xercesc_2_8@@UAEPAVDOMAttr@2@PAV32@@Z
       5732 1663 000FDA30 ?removeChar@XMLString@xercesc_2_8@@SAXQB_WAB_WAAVXMLBuffer@2@@Z
       5733 1664 00164620 ?removeChild@DOMAttrImpl@xercesc_2_8@@UAEPAVDOMNode@2@PAV32@@Z
       5734 1665 00164620 ?removeChild@DOMCDATASectionImpl@xercesc_2_8@@UAEPAVDOMNode@2@PAV32@@Z
